
MQTT_PUB.elf:     file format elf32-littlearm

Sections:
Idx Name          Size      VMA       LMA       File off  Algn
  0 .isr_vector   000001d8  08000000  08000000  00001000  2**0
                  CONTENTS, ALLOC, LOAD, READONLY, DATA
  1 .text         00007688  080001e0  080001e0  000011e0  2**4
                  CONTENTS, ALLOC, LOAD, READONLY, CODE
  2 .rodata       00000380  08007868  08007868  00008868  2**2
                  CONTENTS, ALLOC, LOAD, READONLY, DATA
  3 .ARM.extab    00000000  08007be8  08007be8  00009120  2**0
                  CONTENTS
  4 .ARM          00000008  08007be8  08007be8  00008be8  2**2
                  CONTENTS, ALLOC, LOAD, READONLY, DATA
  5 .preinit_array 00000000  08007bf0  08007bf0  00009120  2**0
                  CONTENTS, ALLOC, LOAD, DATA
  6 .init_array   00000004  08007bf0  08007bf0  00008bf0  2**2
                  CONTENTS, ALLOC, LOAD, READONLY, DATA
  7 .fini_array   00000004  08007bf4  08007bf4  00008bf4  2**2
                  CONTENTS, ALLOC, LOAD, READONLY, DATA
  8 .data         00000120  20000000  08007bf8  00009000  2**2
                  CONTENTS, ALLOC, LOAD, DATA
  9 .bss          00000510  20000120  08007d18  00009120  2**2
                  ALLOC
 10 ._user_heap_stack 00000600  20000630  08007d18  00009630  2**0
                  ALLOC
 11 .ARM.attributes 00000030  00000000  00000000  00009120  2**0
                  CONTENTS, READONLY
 12 .debug_info   00014748  00000000  00000000  00009150  2**0
                  CONTENTS, READONLY, DEBUGGING, OCTETS
 13 .debug_abbrev 000036e5  00000000  00000000  0001d898  2**0
                  CONTENTS, READONLY, DEBUGGING, OCTETS
 14 .debug_aranges 00001160  00000000  00000000  00020f80  2**3
                  CONTENTS, READONLY, DEBUGGING, OCTETS
 15 .debug_rnglists 00000d98  00000000  00000000  000220e0  2**0
                  CONTENTS, READONLY, DEBUGGING, OCTETS
 16 .debug_macro  000279bc  00000000  00000000  00022e78  2**0
                  CONTENTS, READONLY, DEBUGGING, OCTETS
 17 .debug_line   00015447  00000000  00000000  0004a834  2**0
                  CONTENTS, READONLY, DEBUGGING, OCTETS
 18 .debug_str    000f2201  00000000  00000000  0005fc7b  2**0
                  CONTENTS, READONLY, DEBUGGING, OCTETS
 19 .comment      00000043  00000000  00000000  00151e7c  2**0
                  CONTENTS, READONLY
 20 .debug_frame  00004ec8  00000000  00000000  00151ec0  2**2
                  CONTENTS, READONLY, DEBUGGING, OCTETS
 21 .debug_line_str 00000071  00000000  00000000  00156d88  2**0
                  CONTENTS, READONLY, DEBUGGING, OCTETS

Disassembly of section .text:

080001e0 <__do_global_dtors_aux>:
 80001e0:	b510      	push	{r4, lr}
 80001e2:	4c05      	ldr	r4, [pc, #20]	@ (80001f8 <__do_global_dtors_aux+0x18>)
 80001e4:	7823      	ldrb	r3, [r4, #0]
 80001e6:	b933      	cbnz	r3, 80001f6 <__do_global_dtors_aux+0x16>
 80001e8:	4b04      	ldr	r3, [pc, #16]	@ (80001fc <__do_global_dtors_aux+0x1c>)
 80001ea:	b113      	cbz	r3, 80001f2 <__do_global_dtors_aux+0x12>
 80001ec:	4804      	ldr	r0, [pc, #16]	@ (8000200 <__do_global_dtors_aux+0x20>)
 80001ee:	f3af 8000 	nop.w
 80001f2:	2301      	movs	r3, #1
 80001f4:	7023      	strb	r3, [r4, #0]
 80001f6:	bd10      	pop	{r4, pc}
 80001f8:	20000120 	.word	0x20000120
 80001fc:	00000000 	.word	0x00000000
 8000200:	08007850 	.word	0x08007850

08000204 <frame_dummy>:
 8000204:	b508      	push	{r3, lr}
 8000206:	4b03      	ldr	r3, [pc, #12]	@ (8000214 <frame_dummy+0x10>)
 8000208:	b11b      	cbz	r3, 8000212 <frame_dummy+0xe>
 800020a:	4903      	ldr	r1, [pc, #12]	@ (8000218 <frame_dummy+0x14>)
 800020c:	4803      	ldr	r0, [pc, #12]	@ (800021c <frame_dummy+0x18>)
 800020e:	f3af 8000 	nop.w
 8000212:	bd08      	pop	{r3, pc}
 8000214:	00000000 	.word	0x00000000
 8000218:	20000124 	.word	0x20000124
 800021c:	08007850 	.word	0x08007850

08000220 <strlen>:
 8000220:	4603      	mov	r3, r0
 8000222:	f813 2b01 	ldrb.w	r2, [r3], #1
 8000226:	2a00      	cmp	r2, #0
 8000228:	d1fb      	bne.n	8000222 <strlen+0x2>
 800022a:	1a18      	subs	r0, r3, r0
 800022c:	3801      	subs	r0, #1
 800022e:	4770      	bx	lr

08000230 <memchr>:
 8000230:	f001 01ff 	and.w	r1, r1, #255	@ 0xff
 8000234:	2a10      	cmp	r2, #16
 8000236:	db2b      	blt.n	8000290 <memchr+0x60>
 8000238:	f010 0f07 	tst.w	r0, #7
 800023c:	d008      	beq.n	8000250 <memchr+0x20>
 800023e:	f810 3b01 	ldrb.w	r3, [r0], #1
 8000242:	3a01      	subs	r2, #1
 8000244:	428b      	cmp	r3, r1
 8000246:	d02d      	beq.n	80002a4 <memchr+0x74>
 8000248:	f010 0f07 	tst.w	r0, #7
 800024c:	b342      	cbz	r2, 80002a0 <memchr+0x70>
 800024e:	d1f6      	bne.n	800023e <memchr+0xe>
 8000250:	b4f0      	push	{r4, r5, r6, r7}
 8000252:	ea41 2101 	orr.w	r1, r1, r1, lsl #8
 8000256:	ea41 4101 	orr.w	r1, r1, r1, lsl #16
 800025a:	f022 0407 	bic.w	r4, r2, #7
 800025e:	f07f 0700 	mvns.w	r7, #0
 8000262:	2300      	movs	r3, #0
 8000264:	e8f0 5602 	ldrd	r5, r6, [r0], #8
 8000268:	3c08      	subs	r4, #8
 800026a:	ea85 0501 	eor.w	r5, r5, r1
 800026e:	ea86 0601 	eor.w	r6, r6, r1
 8000272:	fa85 f547 	uadd8	r5, r5, r7
 8000276:	faa3 f587 	sel	r5, r3, r7
 800027a:	fa86 f647 	uadd8	r6, r6, r7
 800027e:	faa5 f687 	sel	r6, r5, r7
 8000282:	b98e      	cbnz	r6, 80002a8 <memchr+0x78>
 8000284:	d1ee      	bne.n	8000264 <memchr+0x34>
 8000286:	bcf0      	pop	{r4, r5, r6, r7}
 8000288:	f001 01ff 	and.w	r1, r1, #255	@ 0xff
 800028c:	f002 0207 	and.w	r2, r2, #7
 8000290:	b132      	cbz	r2, 80002a0 <memchr+0x70>
 8000292:	f810 3b01 	ldrb.w	r3, [r0], #1
 8000296:	3a01      	subs	r2, #1
 8000298:	ea83 0301 	eor.w	r3, r3, r1
 800029c:	b113      	cbz	r3, 80002a4 <memchr+0x74>
 800029e:	d1f8      	bne.n	8000292 <memchr+0x62>
 80002a0:	2000      	movs	r0, #0
 80002a2:	4770      	bx	lr
 80002a4:	3801      	subs	r0, #1
 80002a6:	4770      	bx	lr
 80002a8:	2d00      	cmp	r5, #0
 80002aa:	bf06      	itte	eq
 80002ac:	4635      	moveq	r5, r6
 80002ae:	3803      	subeq	r0, #3
 80002b0:	3807      	subne	r0, #7
 80002b2:	f015 0f01 	tst.w	r5, #1
 80002b6:	d107      	bne.n	80002c8 <memchr+0x98>
 80002b8:	3001      	adds	r0, #1
 80002ba:	f415 7f80 	tst.w	r5, #256	@ 0x100
 80002be:	bf02      	ittt	eq
 80002c0:	3001      	addeq	r0, #1
 80002c2:	f415 3fc0 	tsteq.w	r5, #98304	@ 0x18000
 80002c6:	3001      	addeq	r0, #1
 80002c8:	bcf0      	pop	{r4, r5, r6, r7}
 80002ca:	3801      	subs	r0, #1
 80002cc:	4770      	bx	lr
 80002ce:	bf00      	nop

080002d0 <__aeabi_uldivmod>:
 80002d0:	b953      	cbnz	r3, 80002e8 <__aeabi_uldivmod+0x18>
 80002d2:	b94a      	cbnz	r2, 80002e8 <__aeabi_uldivmod+0x18>
 80002d4:	2900      	cmp	r1, #0
 80002d6:	bf08      	it	eq
 80002d8:	2800      	cmpeq	r0, #0
 80002da:	bf1c      	itt	ne
 80002dc:	f04f 31ff 	movne.w	r1, #4294967295
 80002e0:	f04f 30ff 	movne.w	r0, #4294967295
 80002e4:	f000 b96a 	b.w	80005bc <__aeabi_idiv0>
 80002e8:	f1ad 0c08 	sub.w	ip, sp, #8
 80002ec:	e96d ce04 	strd	ip, lr, [sp, #-16]!
 80002f0:	f000 f806 	bl	8000300 <__udivmoddi4>
 80002f4:	f8dd e004 	ldr.w	lr, [sp, #4]
 80002f8:	e9dd 2302 	ldrd	r2, r3, [sp, #8]
 80002fc:	b004      	add	sp, #16
 80002fe:	4770      	bx	lr

08000300 <__udivmoddi4>:
 8000300:	e92d 47f0 	stmdb	sp!, {r4, r5, r6, r7, r8, r9, sl, lr}
 8000304:	9d08      	ldr	r5, [sp, #32]
 8000306:	460c      	mov	r4, r1
 8000308:	2b00      	cmp	r3, #0
 800030a:	d14e      	bne.n	80003aa <__udivmoddi4+0xaa>
 800030c:	4694      	mov	ip, r2
 800030e:	458c      	cmp	ip, r1
 8000310:	4686      	mov	lr, r0
 8000312:	fab2 f282 	clz	r2, r2
 8000316:	d962      	bls.n	80003de <__udivmoddi4+0xde>
 8000318:	b14a      	cbz	r2, 800032e <__udivmoddi4+0x2e>
 800031a:	f1c2 0320 	rsb	r3, r2, #32
 800031e:	4091      	lsls	r1, r2
 8000320:	fa20 f303 	lsr.w	r3, r0, r3
 8000324:	fa0c fc02 	lsl.w	ip, ip, r2
 8000328:	4319      	orrs	r1, r3
 800032a:	fa00 fe02 	lsl.w	lr, r0, r2
 800032e:	ea4f 471c 	mov.w	r7, ip, lsr #16
 8000332:	fa1f f68c 	uxth.w	r6, ip
 8000336:	fbb1 f4f7 	udiv	r4, r1, r7
 800033a:	ea4f 431e 	mov.w	r3, lr, lsr #16
 800033e:	fb07 1114 	mls	r1, r7, r4, r1
 8000342:	ea43 4301 	orr.w	r3, r3, r1, lsl #16
 8000346:	fb04 f106 	mul.w	r1, r4, r6
 800034a:	4299      	cmp	r1, r3
 800034c:	d90a      	bls.n	8000364 <__udivmoddi4+0x64>
 800034e:	eb1c 0303 	adds.w	r3, ip, r3
 8000352:	f104 30ff 	add.w	r0, r4, #4294967295
 8000356:	f080 8112 	bcs.w	800057e <__udivmoddi4+0x27e>
 800035a:	4299      	cmp	r1, r3
 800035c:	f240 810f 	bls.w	800057e <__udivmoddi4+0x27e>
 8000360:	3c02      	subs	r4, #2
 8000362:	4463      	add	r3, ip
 8000364:	1a59      	subs	r1, r3, r1
 8000366:	fa1f f38e 	uxth.w	r3, lr
 800036a:	fbb1 f0f7 	udiv	r0, r1, r7
 800036e:	fb07 1110 	mls	r1, r7, r0, r1
 8000372:	ea43 4301 	orr.w	r3, r3, r1, lsl #16
 8000376:	fb00 f606 	mul.w	r6, r0, r6
 800037a:	429e      	cmp	r6, r3
 800037c:	d90a      	bls.n	8000394 <__udivmoddi4+0x94>
 800037e:	eb1c 0303 	adds.w	r3, ip, r3
 8000382:	f100 31ff 	add.w	r1, r0, #4294967295
 8000386:	f080 80fc 	bcs.w	8000582 <__udivmoddi4+0x282>
 800038a:	429e      	cmp	r6, r3
 800038c:	f240 80f9 	bls.w	8000582 <__udivmoddi4+0x282>
 8000390:	4463      	add	r3, ip
 8000392:	3802      	subs	r0, #2
 8000394:	1b9b      	subs	r3, r3, r6
 8000396:	ea40 4004 	orr.w	r0, r0, r4, lsl #16
 800039a:	2100      	movs	r1, #0
 800039c:	b11d      	cbz	r5, 80003a6 <__udivmoddi4+0xa6>
 800039e:	40d3      	lsrs	r3, r2
 80003a0:	2200      	movs	r2, #0
 80003a2:	e9c5 3200 	strd	r3, r2, [r5]
 80003a6:	e8bd 87f0 	ldmia.w	sp!, {r4, r5, r6, r7, r8, r9, sl, pc}
 80003aa:	428b      	cmp	r3, r1
 80003ac:	d905      	bls.n	80003ba <__udivmoddi4+0xba>
 80003ae:	b10d      	cbz	r5, 80003b4 <__udivmoddi4+0xb4>
 80003b0:	e9c5 0100 	strd	r0, r1, [r5]
 80003b4:	2100      	movs	r1, #0
 80003b6:	4608      	mov	r0, r1
 80003b8:	e7f5      	b.n	80003a6 <__udivmoddi4+0xa6>
 80003ba:	fab3 f183 	clz	r1, r3
 80003be:	2900      	cmp	r1, #0
 80003c0:	d146      	bne.n	8000450 <__udivmoddi4+0x150>
 80003c2:	42a3      	cmp	r3, r4
 80003c4:	d302      	bcc.n	80003cc <__udivmoddi4+0xcc>
 80003c6:	4290      	cmp	r0, r2
 80003c8:	f0c0 80f0 	bcc.w	80005ac <__udivmoddi4+0x2ac>
 80003cc:	1a86      	subs	r6, r0, r2
 80003ce:	eb64 0303 	sbc.w	r3, r4, r3
 80003d2:	2001      	movs	r0, #1
 80003d4:	2d00      	cmp	r5, #0
 80003d6:	d0e6      	beq.n	80003a6 <__udivmoddi4+0xa6>
 80003d8:	e9c5 6300 	strd	r6, r3, [r5]
 80003dc:	e7e3      	b.n	80003a6 <__udivmoddi4+0xa6>
 80003de:	2a00      	cmp	r2, #0
 80003e0:	f040 8090 	bne.w	8000504 <__udivmoddi4+0x204>
 80003e4:	eba1 040c 	sub.w	r4, r1, ip
 80003e8:	ea4f 481c 	mov.w	r8, ip, lsr #16
 80003ec:	fa1f f78c 	uxth.w	r7, ip
 80003f0:	2101      	movs	r1, #1
 80003f2:	fbb4 f6f8 	udiv	r6, r4, r8
 80003f6:	ea4f 431e 	mov.w	r3, lr, lsr #16
 80003fa:	fb08 4416 	mls	r4, r8, r6, r4
 80003fe:	ea43 4304 	orr.w	r3, r3, r4, lsl #16
 8000402:	fb07 f006 	mul.w	r0, r7, r6
 8000406:	4298      	cmp	r0, r3
 8000408:	d908      	bls.n	800041c <__udivmoddi4+0x11c>
 800040a:	eb1c 0303 	adds.w	r3, ip, r3
 800040e:	f106 34ff 	add.w	r4, r6, #4294967295
 8000412:	d202      	bcs.n	800041a <__udivmoddi4+0x11a>
 8000414:	4298      	cmp	r0, r3
 8000416:	f200 80cd 	bhi.w	80005b4 <__udivmoddi4+0x2b4>
 800041a:	4626      	mov	r6, r4
 800041c:	1a1c      	subs	r4, r3, r0
 800041e:	fa1f f38e 	uxth.w	r3, lr
 8000422:	fbb4 f0f8 	udiv	r0, r4, r8
 8000426:	fb08 4410 	mls	r4, r8, r0, r4
 800042a:	ea43 4304 	orr.w	r3, r3, r4, lsl #16
 800042e:	fb00 f707 	mul.w	r7, r0, r7
 8000432:	429f      	cmp	r7, r3
 8000434:	d908      	bls.n	8000448 <__udivmoddi4+0x148>
 8000436:	eb1c 0303 	adds.w	r3, ip, r3
 800043a:	f100 34ff 	add.w	r4, r0, #4294967295
 800043e:	d202      	bcs.n	8000446 <__udivmoddi4+0x146>
 8000440:	429f      	cmp	r7, r3
 8000442:	f200 80b0 	bhi.w	80005a6 <__udivmoddi4+0x2a6>
 8000446:	4620      	mov	r0, r4
 8000448:	1bdb      	subs	r3, r3, r7
 800044a:	ea40 4006 	orr.w	r0, r0, r6, lsl #16
 800044e:	e7a5      	b.n	800039c <__udivmoddi4+0x9c>
 8000450:	f1c1 0620 	rsb	r6, r1, #32
 8000454:	408b      	lsls	r3, r1
 8000456:	fa22 f706 	lsr.w	r7, r2, r6
 800045a:	431f      	orrs	r7, r3
 800045c:	fa20 fc06 	lsr.w	ip, r0, r6
 8000460:	fa04 f301 	lsl.w	r3, r4, r1
 8000464:	ea43 030c 	orr.w	r3, r3, ip
 8000468:	40f4      	lsrs	r4, r6
 800046a:	fa00 f801 	lsl.w	r8, r0, r1
 800046e:	0c38      	lsrs	r0, r7, #16
 8000470:	ea4f 4913 	mov.w	r9, r3, lsr #16
 8000474:	fbb4 fef0 	udiv	lr, r4, r0
 8000478:	fa1f fc87 	uxth.w	ip, r7
 800047c:	fb00 441e 	mls	r4, r0, lr, r4
 8000480:	ea49 4404 	orr.w	r4, r9, r4, lsl #16
 8000484:	fb0e f90c 	mul.w	r9, lr, ip
 8000488:	45a1      	cmp	r9, r4
 800048a:	fa02 f201 	lsl.w	r2, r2, r1
 800048e:	d90a      	bls.n	80004a6 <__udivmoddi4+0x1a6>
 8000490:	193c      	adds	r4, r7, r4
 8000492:	f10e 3aff 	add.w	sl, lr, #4294967295
 8000496:	f080 8084 	bcs.w	80005a2 <__udivmoddi4+0x2a2>
 800049a:	45a1      	cmp	r9, r4
 800049c:	f240 8081 	bls.w	80005a2 <__udivmoddi4+0x2a2>
 80004a0:	f1ae 0e02 	sub.w	lr, lr, #2
 80004a4:	443c      	add	r4, r7
 80004a6:	eba4 0409 	sub.w	r4, r4, r9
 80004aa:	fa1f f983 	uxth.w	r9, r3
 80004ae:	fbb4 f3f0 	udiv	r3, r4, r0
 80004b2:	fb00 4413 	mls	r4, r0, r3, r4
 80004b6:	ea49 4404 	orr.w	r4, r9, r4, lsl #16
 80004ba:	fb03 fc0c 	mul.w	ip, r3, ip
 80004be:	45a4      	cmp	ip, r4
 80004c0:	d907      	bls.n	80004d2 <__udivmoddi4+0x1d2>
 80004c2:	193c      	adds	r4, r7, r4
 80004c4:	f103 30ff 	add.w	r0, r3, #4294967295
 80004c8:	d267      	bcs.n	800059a <__udivmoddi4+0x29a>
 80004ca:	45a4      	cmp	ip, r4
 80004cc:	d965      	bls.n	800059a <__udivmoddi4+0x29a>
 80004ce:	3b02      	subs	r3, #2
 80004d0:	443c      	add	r4, r7
 80004d2:	ea43 400e 	orr.w	r0, r3, lr, lsl #16
 80004d6:	fba0 9302 	umull	r9, r3, r0, r2
 80004da:	eba4 040c 	sub.w	r4, r4, ip
 80004de:	429c      	cmp	r4, r3
 80004e0:	46ce      	mov	lr, r9
 80004e2:	469c      	mov	ip, r3
 80004e4:	d351      	bcc.n	800058a <__udivmoddi4+0x28a>
 80004e6:	d04e      	beq.n	8000586 <__udivmoddi4+0x286>
 80004e8:	b155      	cbz	r5, 8000500 <__udivmoddi4+0x200>
 80004ea:	ebb8 030e 	subs.w	r3, r8, lr
 80004ee:	eb64 040c 	sbc.w	r4, r4, ip
 80004f2:	fa04 f606 	lsl.w	r6, r4, r6
 80004f6:	40cb      	lsrs	r3, r1
 80004f8:	431e      	orrs	r6, r3
 80004fa:	40cc      	lsrs	r4, r1
 80004fc:	e9c5 6400 	strd	r6, r4, [r5]
 8000500:	2100      	movs	r1, #0
 8000502:	e750      	b.n	80003a6 <__udivmoddi4+0xa6>
 8000504:	f1c2 0320 	rsb	r3, r2, #32
 8000508:	fa20 f103 	lsr.w	r1, r0, r3
 800050c:	fa0c fc02 	lsl.w	ip, ip, r2
 8000510:	fa24 f303 	lsr.w	r3, r4, r3
 8000514:	4094      	lsls	r4, r2
 8000516:	430c      	orrs	r4, r1
 8000518:	ea4f 481c 	mov.w	r8, ip, lsr #16
 800051c:	fa00 fe02 	lsl.w	lr, r0, r2
 8000520:	fa1f f78c 	uxth.w	r7, ip
 8000524:	fbb3 f0f8 	udiv	r0, r3, r8
 8000528:	fb08 3110 	mls	r1, r8, r0, r3
 800052c:	0c23      	lsrs	r3, r4, #16
 800052e:	ea43 4301 	orr.w	r3, r3, r1, lsl #16
 8000532:	fb00 f107 	mul.w	r1, r0, r7
 8000536:	4299      	cmp	r1, r3
 8000538:	d908      	bls.n	800054c <__udivmoddi4+0x24c>
 800053a:	eb1c 0303 	adds.w	r3, ip, r3
 800053e:	f100 36ff 	add.w	r6, r0, #4294967295
 8000542:	d22c      	bcs.n	800059e <__udivmoddi4+0x29e>
 8000544:	4299      	cmp	r1, r3
 8000546:	d92a      	bls.n	800059e <__udivmoddi4+0x29e>
 8000548:	3802      	subs	r0, #2
 800054a:	4463      	add	r3, ip
 800054c:	1a5b      	subs	r3, r3, r1
 800054e:	b2a4      	uxth	r4, r4
 8000550:	fbb3 f1f8 	udiv	r1, r3, r8
 8000554:	fb08 3311 	mls	r3, r8, r1, r3
 8000558:	ea44 4403 	orr.w	r4, r4, r3, lsl #16
 800055c:	fb01 f307 	mul.w	r3, r1, r7
 8000560:	42a3      	cmp	r3, r4
 8000562:	d908      	bls.n	8000576 <__udivmoddi4+0x276>
 8000564:	eb1c 0404 	adds.w	r4, ip, r4
 8000568:	f101 36ff 	add.w	r6, r1, #4294967295
 800056c:	d213      	bcs.n	8000596 <__udivmoddi4+0x296>
 800056e:	42a3      	cmp	r3, r4
 8000570:	d911      	bls.n	8000596 <__udivmoddi4+0x296>
 8000572:	3902      	subs	r1, #2
 8000574:	4464      	add	r4, ip
 8000576:	1ae4      	subs	r4, r4, r3
 8000578:	ea41 4100 	orr.w	r1, r1, r0, lsl #16
 800057c:	e739      	b.n	80003f2 <__udivmoddi4+0xf2>
 800057e:	4604      	mov	r4, r0
 8000580:	e6f0      	b.n	8000364 <__udivmoddi4+0x64>
 8000582:	4608      	mov	r0, r1
 8000584:	e706      	b.n	8000394 <__udivmoddi4+0x94>
 8000586:	45c8      	cmp	r8, r9
 8000588:	d2ae      	bcs.n	80004e8 <__udivmoddi4+0x1e8>
 800058a:	ebb9 0e02 	subs.w	lr, r9, r2
 800058e:	eb63 0c07 	sbc.w	ip, r3, r7
 8000592:	3801      	subs	r0, #1
 8000594:	e7a8      	b.n	80004e8 <__udivmoddi4+0x1e8>
 8000596:	4631      	mov	r1, r6
 8000598:	e7ed      	b.n	8000576 <__udivmoddi4+0x276>
 800059a:	4603      	mov	r3, r0
 800059c:	e799      	b.n	80004d2 <__udivmoddi4+0x1d2>
 800059e:	4630      	mov	r0, r6
 80005a0:	e7d4      	b.n	800054c <__udivmoddi4+0x24c>
 80005a2:	46d6      	mov	lr, sl
 80005a4:	e77f      	b.n	80004a6 <__udivmoddi4+0x1a6>
 80005a6:	4463      	add	r3, ip
 80005a8:	3802      	subs	r0, #2
 80005aa:	e74d      	b.n	8000448 <__udivmoddi4+0x148>
 80005ac:	4606      	mov	r6, r0
 80005ae:	4623      	mov	r3, r4
 80005b0:	4608      	mov	r0, r1
 80005b2:	e70f      	b.n	80003d4 <__udivmoddi4+0xd4>
 80005b4:	3e02      	subs	r6, #2
 80005b6:	4463      	add	r3, ip
 80005b8:	e730      	b.n	800041c <__udivmoddi4+0x11c>
 80005ba:	bf00      	nop

080005bc <__aeabi_idiv0>:
 80005bc:	4770      	bx	lr
 80005be:	bf00      	nop

080005c0 <main>:
/**
  * @brief  The application entry point.
  * @retval int
  */
int main(void)
{
 80005c0:	b580      	push	{r7, lr}
 80005c2:	b086      	sub	sp, #24
 80005c4:	af04      	add	r7, sp, #16
	/* USER CODE END 1 */

	/* MCU Configuration--------------------------------------------------------*/

	/* Reset of all peripherals, Initializes the Flash interface and the Systick. */
	HAL_Init();
 80005c6:	f003 fe76 	bl	80042b6 <HAL_Init>

	/* USER CODE BEGIN Init */
	setbuf(stdout, NULL);
 80005ca:	4b47      	ldr	r3, [pc, #284]	@ (80006e8 <main+0x128>)
 80005cc:	681b      	ldr	r3, [r3, #0]
 80005ce:	689b      	ldr	r3, [r3, #8]
 80005d0:	2100      	movs	r1, #0
 80005d2:	4618      	mov	r0, r3
 80005d4:	f006 f9fc 	bl	80069d0 <setbuf>
	/* USER CODE END Init */

	/* Configure the system clock */
	SystemClock_Config();
 80005d8:	f000 f8b2 	bl	8000740 <SystemClock_Config>
	/* USER CODE BEGIN SysInit */

	/* USER CODE END SysInit */

	/* Initialize all configured peripherals */
	MX_GPIO_Init();
 80005dc:	f000 f98c 	bl	80008f8 <MX_GPIO_Init>
	MX_SPI1_Init();
 80005e0:	f000 f8f8 	bl	80007d4 <MX_SPI1_Init>
	MX_USART2_UART_Init();
 80005e4:	f000 f93c 	bl	8000860 <MX_USART2_UART_Init>
	/* USER CODE BEGIN 2 */
	printf("A Simple MQTT Client Publish Application using W5500!\r\n");
 80005e8:	4840      	ldr	r0, [pc, #256]	@ (80006ec <main+0x12c>)
 80005ea:	f006 f9e9 	bl	80069c0 <puts>
	W5500Init();
 80005ee:	f003 f839 	bl	8003664 <W5500Init>
	ctlnetwork(CN_SET_NETINFO, (void*) &gWIZNETINFO2);
 80005f2:	493f      	ldr	r1, [pc, #252]	@ (80006f0 <main+0x130>)
 80005f4:	2000      	movs	r0, #0
 80005f6:	f003 fa4f 	bl	8003a98 <ctlnetwork>

	wiz_PhyConf phyconf;

	phyconf.by = PHY_CONFBY_SW;
 80005fa:	2301      	movs	r3, #1
 80005fc:	713b      	strb	r3, [r7, #4]
	phyconf.duplex = PHY_DUPLEX_FULL;
 80005fe:	2301      	movs	r3, #1
 8000600:	71fb      	strb	r3, [r7, #7]
	phyconf.speed = PHY_SPEED_10;
 8000602:	2300      	movs	r3, #0
 8000604:	71bb      	strb	r3, [r7, #6]
	phyconf.mode = PHY_MODE_AUTONEGO;
 8000606:	2301      	movs	r3, #1
 8000608:	717b      	strb	r3, [r7, #5]

	ctlwizchip(CW_SET_PHYCONF, (void*) &phyconf);
 800060a:	1d3b      	adds	r3, r7, #4
 800060c:	4619      	mov	r1, r3
 800060e:	200a      	movs	r0, #10
 8000610:	f003 f962 	bl	80038d8 <ctlwizchip>

	PHYStatusCheck();
 8000614:	f000 f9e2 	bl	80009dc <PHYStatusCheck>
	PrintPHYConf();
 8000618:	f000 fa06 	bl	8000a28 <PrintPHYConf>

	connect_data.willFlag = 0;
 800061c:	4b35      	ldr	r3, [pc, #212]	@ (80006f4 <main+0x134>)
 800061e:	2200      	movs	r2, #0
 8000620:	76da      	strb	r2, [r3, #27]
	connect_data.MQTTVersion = 3;
 8000622:	4b34      	ldr	r3, [pc, #208]	@ (80006f4 <main+0x134>)
 8000624:	2203      	movs	r2, #3
 8000626:	721a      	strb	r2, [r3, #8]
	connect_data.clientID.cstring = "iotencew55";
 8000628:	4b32      	ldr	r3, [pc, #200]	@ (80006f4 <main+0x134>)
 800062a:	4a33      	ldr	r2, [pc, #204]	@ (80006f8 <main+0x138>)
 800062c:	60da      	str	r2, [r3, #12]

	//connect_data.username.cstring = opts.username;
	//connect_data.password.cstring = opts.password;

	connect_data.keepAliveInterval = 60;
 800062e:	4b31      	ldr	r3, [pc, #196]	@ (80006f4 <main+0x134>)
 8000630:	223c      	movs	r2, #60	@ 0x3c
 8000632:	831a      	strh	r2, [r3, #24]
	connect_data.cleansession = 1;
 8000634:	4b2f      	ldr	r3, [pc, #188]	@ (80006f4 <main+0x134>)
 8000636:	2201      	movs	r2, #1
 8000638:	769a      	strb	r2, [r3, #26]

	NewNetwork(&network, 1);//1 is the socket number to use
 800063a:	2101      	movs	r1, #1
 800063c:	482f      	ldr	r0, [pc, #188]	@ (80006fc <main+0x13c>)
 800063e:	f001 f9f5 	bl	8001a2c <NewNetwork>
	PrintBrokerIP();
 8000642:	f000 fa35 	bl	8000ab0 <PrintBrokerIP>
	printf("Connecting to MQTT Broker ...");
 8000646:	482e      	ldr	r0, [pc, #184]	@ (8000700 <main+0x140>)
 8000648:	f006 f952 	bl	80068f0 <iprintf>
	if(ConnectNetwork(&network, destination_ip, destination_port)!=SOCK_OK)
 800064c:	4b2d      	ldr	r3, [pc, #180]	@ (8000704 <main+0x144>)
 800064e:	881b      	ldrh	r3, [r3, #0]
 8000650:	461a      	mov	r2, r3
 8000652:	492d      	ldr	r1, [pc, #180]	@ (8000708 <main+0x148>)
 8000654:	4829      	ldr	r0, [pc, #164]	@ (80006fc <main+0x13c>)
 8000656:	f001 fa66 	bl	8001b26 <ConnectNetwork>
 800065a:	4603      	mov	r3, r0
 800065c:	2b01      	cmp	r3, #1
 800065e:	d004      	beq.n	800066a <main+0xaa>
	{
	  printf("ERROR: Cannot connect with broker!\r\n");
 8000660:	482a      	ldr	r0, [pc, #168]	@ (800070c <main+0x14c>)
 8000662:	f006 f9ad 	bl	80069c0 <puts>
	  //Broker (server) not reachable
	  while(1);
 8000666:	bf00      	nop
 8000668:	e7fd      	b.n	8000666 <main+0xa6>
	}

	printf("SUCCESS\r\n");
 800066a:	4829      	ldr	r0, [pc, #164]	@ (8000710 <main+0x150>)
 800066c:	f006 f9a8 	bl	80069c0 <puts>

	MQTTClientInit(&mqtt_client, &network, 1000, sendbuff, 256, receivebuff, 256);
 8000670:	f44f 7380 	mov.w	r3, #256	@ 0x100
 8000674:	9302      	str	r3, [sp, #8]
 8000676:	4b27      	ldr	r3, [pc, #156]	@ (8000714 <main+0x154>)
 8000678:	9301      	str	r3, [sp, #4]
 800067a:	f44f 7380 	mov.w	r3, #256	@ 0x100
 800067e:	9300      	str	r3, [sp, #0]
 8000680:	4b25      	ldr	r3, [pc, #148]	@ (8000718 <main+0x158>)
 8000682:	f44f 727a 	mov.w	r2, #1000	@ 0x3e8
 8000686:	491d      	ldr	r1, [pc, #116]	@ (80006fc <main+0x13c>)
 8000688:	4824      	ldr	r0, [pc, #144]	@ (800071c <main+0x15c>)
 800068a:	f000 fc6f 	bl	8000f6c <MQTTClientInit>

	printf("Sending connect packet ...");
 800068e:	4824      	ldr	r0, [pc, #144]	@ (8000720 <main+0x160>)
 8000690:	f006 f92e 	bl	80068f0 <iprintf>

	if(MQTTConnect(&mqtt_client, &connect_data)!=MQTT_SUCCESS)
 8000694:	4917      	ldr	r1, [pc, #92]	@ (80006f4 <main+0x134>)
 8000696:	4821      	ldr	r0, [pc, #132]	@ (800071c <main+0x15c>)
 8000698:	f001 f87c 	bl	8001794 <MQTTConnect>
 800069c:	4603      	mov	r3, r0
 800069e:	2b00      	cmp	r3, #0
 80006a0:	d004      	beq.n	80006ac <main+0xec>
	{
	  printf("ERROR!");
 80006a2:	4820      	ldr	r0, [pc, #128]	@ (8000724 <main+0x164>)
 80006a4:	f006 f924 	bl	80068f0 <iprintf>
	  while(1);
 80006a8:	bf00      	nop
 80006aa:	e7fd      	b.n	80006a8 <main+0xe8>
	}

	printf("SUCCESS\r\n");
 80006ac:	4818      	ldr	r0, [pc, #96]	@ (8000710 <main+0x150>)
 80006ae:	f006 f987 	bl	80069c0 <puts>

	while(1)
	{
		printf("Publishing to topic test/topic1 ...");
 80006b2:	481d      	ldr	r0, [pc, #116]	@ (8000728 <main+0x168>)
 80006b4:	f006 f91c 	bl	80068f0 <iprintf>
		mqtt_result = MQTTPublish(&mqtt_client, "test/topic1", &msg);
 80006b8:	4a1c      	ldr	r2, [pc, #112]	@ (800072c <main+0x16c>)
 80006ba:	491d      	ldr	r1, [pc, #116]	@ (8000730 <main+0x170>)
 80006bc:	4817      	ldr	r0, [pc, #92]	@ (800071c <main+0x15c>)
 80006be:	f001 f87a 	bl	80017b6 <MQTTPublish>
 80006c2:	4603      	mov	r3, r0
 80006c4:	4a1b      	ldr	r2, [pc, #108]	@ (8000734 <main+0x174>)
 80006c6:	6013      	str	r3, [r2, #0]

		if(mqtt_result != SUCCESS)
 80006c8:	4b1a      	ldr	r3, [pc, #104]	@ (8000734 <main+0x174>)
 80006ca:	681b      	ldr	r3, [r3, #0]
 80006cc:	2b00      	cmp	r3, #0
 80006ce:	d003      	beq.n	80006d8 <main+0x118>
		{
			printf("Error! \r\n");
 80006d0:	4819      	ldr	r0, [pc, #100]	@ (8000738 <main+0x178>)
 80006d2:	f006 f975 	bl	80069c0 <puts>
 80006d6:	e002      	b.n	80006de <main+0x11e>
		}
		else
		{
			printf("SUCCESS! \r\n");
 80006d8:	4818      	ldr	r0, [pc, #96]	@ (800073c <main+0x17c>)
 80006da:	f006 f971 	bl	80069c0 <puts>
		}

		HAL_Delay(1000);
 80006de:	f44f 707a 	mov.w	r0, #1000	@ 0x3e8
 80006e2:	f003 fe59 	bl	8004398 <HAL_Delay>
		printf("Publishing to topic test/topic1 ...");
 80006e6:	e7e4      	b.n	80006b2 <main+0xf2>
 80006e8:	200000d0 	.word	0x200000d0
 80006ec:	08007878 	.word	0x08007878
 80006f0:	20000000 	.word	0x20000000
 80006f4:	20000020 	.word	0x20000020
 80006f8:	080078b0 	.word	0x080078b0
 80006fc:	2000029c 	.word	0x2000029c
 8000700:	080078bc 	.word	0x080078bc
 8000704:	2000001c 	.word	0x2000001c
 8000708:	20000018 	.word	0x20000018
 800070c:	080078dc 	.word	0x080078dc
 8000710:	08007900 	.word	0x08007900
 8000714:	200003ac 	.word	0x200003ac
 8000718:	200002ac 	.word	0x200002ac
 800071c:	20000234 	.word	0x20000234
 8000720:	0800790c 	.word	0x0800790c
 8000724:	08007928 	.word	0x08007928
 8000728:	08007930 	.word	0x08007930
 800072c:	20000078 	.word	0x20000078
 8000730:	08007954 	.word	0x08007954
 8000734:	200004ac 	.word	0x200004ac
 8000738:	08007960 	.word	0x08007960
 800073c:	0800796c 	.word	0x0800796c

08000740 <SystemClock_Config>:
/**
  * @brief System Clock Configuration
  * @retval None
  */
void SystemClock_Config(void)
{
 8000740:	b580      	push	{r7, lr}
 8000742:	b094      	sub	sp, #80	@ 0x50
 8000744:	af00      	add	r7, sp, #0
  RCC_OscInitTypeDef RCC_OscInitStruct = {0};
 8000746:	f107 0318 	add.w	r3, r7, #24
 800074a:	2238      	movs	r2, #56	@ 0x38
 800074c:	2100      	movs	r1, #0
 800074e:	4618      	mov	r0, r3
 8000750:	f006 fad2 	bl	8006cf8 <memset>
  RCC_ClkInitTypeDef RCC_ClkInitStruct = {0};
 8000754:	1d3b      	adds	r3, r7, #4
 8000756:	2200      	movs	r2, #0
 8000758:	601a      	str	r2, [r3, #0]
 800075a:	605a      	str	r2, [r3, #4]
 800075c:	609a      	str	r2, [r3, #8]
 800075e:	60da      	str	r2, [r3, #12]
 8000760:	611a      	str	r2, [r3, #16]

  /** Configure the main internal regulator output voltage
  */
  HAL_PWREx_ControlVoltageScaling(PWR_REGULATOR_VOLTAGE_SCALE1);
 8000762:	f44f 7000 	mov.w	r0, #512	@ 0x200
 8000766:	f004 f8b7 	bl	80048d8 <HAL_PWREx_ControlVoltageScaling>

  /** Initializes the RCC Oscillators according to the specified parameters
  * in the RCC_OscInitTypeDef structure.
  */
  RCC_OscInitStruct.OscillatorType = RCC_OSCILLATORTYPE_HSE;
 800076a:	2301      	movs	r3, #1
 800076c:	61bb      	str	r3, [r7, #24]
  RCC_OscInitStruct.HSEState = RCC_HSE_ON;
 800076e:	f44f 3380 	mov.w	r3, #65536	@ 0x10000
 8000772:	61fb      	str	r3, [r7, #28]
  RCC_OscInitStruct.PLL.PLLState = RCC_PLL_ON;
 8000774:	2302      	movs	r3, #2
 8000776:	637b      	str	r3, [r7, #52]	@ 0x34
  RCC_OscInitStruct.PLL.PLLSource = RCC_PLLSOURCE_HSE;
 8000778:	2303      	movs	r3, #3
 800077a:	63bb      	str	r3, [r7, #56]	@ 0x38
  RCC_OscInitStruct.PLL.PLLM = RCC_PLLM_DIV2;
 800077c:	2302      	movs	r3, #2
 800077e:	63fb      	str	r3, [r7, #60]	@ 0x3c
  RCC_OscInitStruct.PLL.PLLN = 8;
 8000780:	2308      	movs	r3, #8
 8000782:	643b      	str	r3, [r7, #64]	@ 0x40
  RCC_OscInitStruct.PLL.PLLP = RCC_PLLP_DIV2;
 8000784:	2302      	movs	r3, #2
 8000786:	647b      	str	r3, [r7, #68]	@ 0x44
  RCC_OscInitStruct.PLL.PLLQ = RCC_PLLQ_DIV2;
 8000788:	2302      	movs	r3, #2
 800078a:	64bb      	str	r3, [r7, #72]	@ 0x48
  RCC_OscInitStruct.PLL.PLLR = RCC_PLLR_DIV2;
 800078c:	2302      	movs	r3, #2
 800078e:	64fb      	str	r3, [r7, #76]	@ 0x4c
  if (HAL_RCC_OscConfig(&RCC_OscInitStruct) != HAL_OK)
 8000790:	f107 0318 	add.w	r3, r7, #24
 8000794:	4618      	mov	r0, r3
 8000796:	f004 f953 	bl	8004a40 <HAL_RCC_OscConfig>
 800079a:	4603      	mov	r3, r0
 800079c:	2b00      	cmp	r3, #0
 800079e:	d001      	beq.n	80007a4 <SystemClock_Config+0x64>
  {
    Error_Handler();
 80007a0:	f000 f9a0 	bl	8000ae4 <Error_Handler>
  }

  /** Initializes the CPU, AHB and APB buses clocks
  */
  RCC_ClkInitStruct.ClockType = RCC_CLOCKTYPE_HCLK|RCC_CLOCKTYPE_SYSCLK
 80007a4:	230f      	movs	r3, #15
 80007a6:	607b      	str	r3, [r7, #4]
                              |RCC_CLOCKTYPE_PCLK1|RCC_CLOCKTYPE_PCLK2;
  RCC_ClkInitStruct.SYSCLKSource = RCC_SYSCLKSOURCE_PLLCLK;
 80007a8:	2303      	movs	r3, #3
 80007aa:	60bb      	str	r3, [r7, #8]
  RCC_ClkInitStruct.AHBCLKDivider = RCC_SYSCLK_DIV1;
 80007ac:	2300      	movs	r3, #0
 80007ae:	60fb      	str	r3, [r7, #12]
  RCC_ClkInitStruct.APB1CLKDivider = RCC_HCLK_DIV1;
 80007b0:	2300      	movs	r3, #0
 80007b2:	613b      	str	r3, [r7, #16]
  RCC_ClkInitStruct.APB2CLKDivider = RCC_HCLK_DIV1;
 80007b4:	2300      	movs	r3, #0
 80007b6:	617b      	str	r3, [r7, #20]

  if (HAL_RCC_ClockConfig(&RCC_ClkInitStruct, FLASH_LATENCY_1) != HAL_OK)
 80007b8:	1d3b      	adds	r3, r7, #4
 80007ba:	2101      	movs	r1, #1
 80007bc:	4618      	mov	r0, r3
 80007be:	f004 fc51 	bl	8005064 <HAL_RCC_ClockConfig>
 80007c2:	4603      	mov	r3, r0
 80007c4:	2b00      	cmp	r3, #0
 80007c6:	d001      	beq.n	80007cc <SystemClock_Config+0x8c>
  {
    Error_Handler();
 80007c8:	f000 f98c 	bl	8000ae4 <Error_Handler>
  }
}
 80007cc:	bf00      	nop
 80007ce:	3750      	adds	r7, #80	@ 0x50
 80007d0:	46bd      	mov	sp, r7
 80007d2:	bd80      	pop	{r7, pc}

080007d4 <MX_SPI1_Init>:
  * @brief SPI1 Initialization Function
  * @param None
  * @retval None
  */
static void MX_SPI1_Init(void)
{
 80007d4:	b580      	push	{r7, lr}
 80007d6:	af00      	add	r7, sp, #0

  /* USER CODE BEGIN SPI1_Init 1 */

  /* USER CODE END SPI1_Init 1 */
  /* SPI1 parameter configuration*/
  hspi1.Instance = SPI1;
 80007d8:	4b1f      	ldr	r3, [pc, #124]	@ (8000858 <MX_SPI1_Init+0x84>)
 80007da:	4a20      	ldr	r2, [pc, #128]	@ (800085c <MX_SPI1_Init+0x88>)
 80007dc:	601a      	str	r2, [r3, #0]
  hspi1.Init.Mode = SPI_MODE_MASTER;
 80007de:	4b1e      	ldr	r3, [pc, #120]	@ (8000858 <MX_SPI1_Init+0x84>)
 80007e0:	f44f 7282 	mov.w	r2, #260	@ 0x104
 80007e4:	605a      	str	r2, [r3, #4]
  hspi1.Init.Direction = SPI_DIRECTION_2LINES;
 80007e6:	4b1c      	ldr	r3, [pc, #112]	@ (8000858 <MX_SPI1_Init+0x84>)
 80007e8:	2200      	movs	r2, #0
 80007ea:	609a      	str	r2, [r3, #8]
  hspi1.Init.DataSize = SPI_DATASIZE_8BIT;
 80007ec:	4b1a      	ldr	r3, [pc, #104]	@ (8000858 <MX_SPI1_Init+0x84>)
 80007ee:	f44f 62e0 	mov.w	r2, #1792	@ 0x700
 80007f2:	60da      	str	r2, [r3, #12]
  hspi1.Init.CLKPolarity = SPI_POLARITY_LOW;
 80007f4:	4b18      	ldr	r3, [pc, #96]	@ (8000858 <MX_SPI1_Init+0x84>)
 80007f6:	2200      	movs	r2, #0
 80007f8:	611a      	str	r2, [r3, #16]
  hspi1.Init.CLKPhase = SPI_PHASE_1EDGE;
 80007fa:	4b17      	ldr	r3, [pc, #92]	@ (8000858 <MX_SPI1_Init+0x84>)
 80007fc:	2200      	movs	r2, #0
 80007fe:	615a      	str	r2, [r3, #20]
  hspi1.Init.NSS = SPI_NSS_SOFT;
 8000800:	4b15      	ldr	r3, [pc, #84]	@ (8000858 <MX_SPI1_Init+0x84>)
 8000802:	f44f 7200 	mov.w	r2, #512	@ 0x200
 8000806:	619a      	str	r2, [r3, #24]
  hspi1.Init.BaudRatePrescaler = SPI_BAUDRATEPRESCALER_4;
 8000808:	4b13      	ldr	r3, [pc, #76]	@ (8000858 <MX_SPI1_Init+0x84>)
 800080a:	2208      	movs	r2, #8
 800080c:	61da      	str	r2, [r3, #28]
  hspi1.Init.FirstBit = SPI_FIRSTBIT_MSB;
 800080e:	4b12      	ldr	r3, [pc, #72]	@ (8000858 <MX_SPI1_Init+0x84>)
 8000810:	2200      	movs	r2, #0
 8000812:	621a      	str	r2, [r3, #32]
  hspi1.Init.TIMode = SPI_TIMODE_DISABLE;
 8000814:	4b10      	ldr	r3, [pc, #64]	@ (8000858 <MX_SPI1_Init+0x84>)
 8000816:	2200      	movs	r2, #0
 8000818:	625a      	str	r2, [r3, #36]	@ 0x24
  hspi1.Init.CRCCalculation = SPI_CRCCALCULATION_DISABLE;
 800081a:	4b0f      	ldr	r3, [pc, #60]	@ (8000858 <MX_SPI1_Init+0x84>)
 800081c:	2200      	movs	r2, #0
 800081e:	629a      	str	r2, [r3, #40]	@ 0x28
  hspi1.Init.CRCPolynomial = 7;
 8000820:	4b0d      	ldr	r3, [pc, #52]	@ (8000858 <MX_SPI1_Init+0x84>)
 8000822:	2207      	movs	r2, #7
 8000824:	62da      	str	r2, [r3, #44]	@ 0x2c
  hspi1.Init.CRCLength = SPI_CRC_LENGTH_DATASIZE;
 8000826:	4b0c      	ldr	r3, [pc, #48]	@ (8000858 <MX_SPI1_Init+0x84>)
 8000828:	2200      	movs	r2, #0
 800082a:	631a      	str	r2, [r3, #48]	@ 0x30
  hspi1.Init.NSSPMode = SPI_NSS_PULSE_ENABLE;
 800082c:	4b0a      	ldr	r3, [pc, #40]	@ (8000858 <MX_SPI1_Init+0x84>)
 800082e:	2208      	movs	r2, #8
 8000830:	635a      	str	r2, [r3, #52]	@ 0x34
  if (HAL_SPI_Init(&hspi1) != HAL_OK)
 8000832:	4809      	ldr	r0, [pc, #36]	@ (8000858 <MX_SPI1_Init+0x84>)
 8000834:	f005 f880 	bl	8005938 <HAL_SPI_Init>
 8000838:	4603      	mov	r3, r0
 800083a:	2b00      	cmp	r3, #0
 800083c:	d001      	beq.n	8000842 <MX_SPI1_Init+0x6e>
  {
    Error_Handler();
 800083e:	f000 f951 	bl	8000ae4 <Error_Handler>
  }
  /* USER CODE BEGIN SPI1_Init 2 */
  __HAL_SPI_ENABLE(&hspi1);
 8000842:	4b05      	ldr	r3, [pc, #20]	@ (8000858 <MX_SPI1_Init+0x84>)
 8000844:	681b      	ldr	r3, [r3, #0]
 8000846:	681a      	ldr	r2, [r3, #0]
 8000848:	4b03      	ldr	r3, [pc, #12]	@ (8000858 <MX_SPI1_Init+0x84>)
 800084a:	681b      	ldr	r3, [r3, #0]
 800084c:	f042 0240 	orr.w	r2, r2, #64	@ 0x40
 8000850:	601a      	str	r2, [r3, #0]
  /* USER CODE END SPI1_Init 2 */

}
 8000852:	bf00      	nop
 8000854:	bd80      	pop	{r7, pc}
 8000856:	bf00      	nop
 8000858:	2000013c 	.word	0x2000013c
 800085c:	40013000 	.word	0x40013000

08000860 <MX_USART2_UART_Init>:
  * @brief USART2 Initialization Function
  * @param None
  * @retval None
  */
static void MX_USART2_UART_Init(void)
{
 8000860:	b580      	push	{r7, lr}
 8000862:	af00      	add	r7, sp, #0
  /* USER CODE END USART2_Init 0 */

  /* USER CODE BEGIN USART2_Init 1 */

  /* USER CODE END USART2_Init 1 */
  huart2.Instance = USART2;
 8000864:	4b22      	ldr	r3, [pc, #136]	@ (80008f0 <MX_USART2_UART_Init+0x90>)
 8000866:	4a23      	ldr	r2, [pc, #140]	@ (80008f4 <MX_USART2_UART_Init+0x94>)
 8000868:	601a      	str	r2, [r3, #0]
  huart2.Init.BaudRate = 9600;
 800086a:	4b21      	ldr	r3, [pc, #132]	@ (80008f0 <MX_USART2_UART_Init+0x90>)
 800086c:	f44f 5216 	mov.w	r2, #9600	@ 0x2580
 8000870:	605a      	str	r2, [r3, #4]
  huart2.Init.WordLength = UART_WORDLENGTH_8B;
 8000872:	4b1f      	ldr	r3, [pc, #124]	@ (80008f0 <MX_USART2_UART_Init+0x90>)
 8000874:	2200      	movs	r2, #0
 8000876:	609a      	str	r2, [r3, #8]
  huart2.Init.StopBits = UART_STOPBITS_1;
 8000878:	4b1d      	ldr	r3, [pc, #116]	@ (80008f0 <MX_USART2_UART_Init+0x90>)
 800087a:	2200      	movs	r2, #0
 800087c:	60da      	str	r2, [r3, #12]
  huart2.Init.Parity = UART_PARITY_NONE;
 800087e:	4b1c      	ldr	r3, [pc, #112]	@ (80008f0 <MX_USART2_UART_Init+0x90>)
 8000880:	2200      	movs	r2, #0
 8000882:	611a      	str	r2, [r3, #16]
  huart2.Init.Mode = UART_MODE_TX_RX;
 8000884:	4b1a      	ldr	r3, [pc, #104]	@ (80008f0 <MX_USART2_UART_Init+0x90>)
 8000886:	220c      	movs	r2, #12
 8000888:	615a      	str	r2, [r3, #20]
  huart2.Init.HwFlowCtl = UART_HWCONTROL_NONE;
 800088a:	4b19      	ldr	r3, [pc, #100]	@ (80008f0 <MX_USART2_UART_Init+0x90>)
 800088c:	2200      	movs	r2, #0
 800088e:	619a      	str	r2, [r3, #24]
  huart2.Init.OverSampling = UART_OVERSAMPLING_16;
 8000890:	4b17      	ldr	r3, [pc, #92]	@ (80008f0 <MX_USART2_UART_Init+0x90>)
 8000892:	2200      	movs	r2, #0
 8000894:	61da      	str	r2, [r3, #28]
  huart2.Init.OneBitSampling = UART_ONE_BIT_SAMPLE_DISABLE;
 8000896:	4b16      	ldr	r3, [pc, #88]	@ (80008f0 <MX_USART2_UART_Init+0x90>)
 8000898:	2200      	movs	r2, #0
 800089a:	621a      	str	r2, [r3, #32]
  huart2.Init.ClockPrescaler = UART_PRESCALER_DIV1;
 800089c:	4b14      	ldr	r3, [pc, #80]	@ (80008f0 <MX_USART2_UART_Init+0x90>)
 800089e:	2200      	movs	r2, #0
 80008a0:	625a      	str	r2, [r3, #36]	@ 0x24
  huart2.AdvancedInit.AdvFeatureInit = UART_ADVFEATURE_NO_INIT;
 80008a2:	4b13      	ldr	r3, [pc, #76]	@ (80008f0 <MX_USART2_UART_Init+0x90>)
 80008a4:	2200      	movs	r2, #0
 80008a6:	629a      	str	r2, [r3, #40]	@ 0x28
  if (HAL_UART_Init(&huart2) != HAL_OK)
 80008a8:	4811      	ldr	r0, [pc, #68]	@ (80008f0 <MX_USART2_UART_Init+0x90>)
 80008aa:	f005 f8f0 	bl	8005a8e <HAL_UART_Init>
 80008ae:	4603      	mov	r3, r0
 80008b0:	2b00      	cmp	r3, #0
 80008b2:	d001      	beq.n	80008b8 <MX_USART2_UART_Init+0x58>
  {
    Error_Handler();
 80008b4:	f000 f916 	bl	8000ae4 <Error_Handler>
  }
  if (HAL_UARTEx_SetTxFifoThreshold(&huart2, UART_TXFIFO_THRESHOLD_1_8) != HAL_OK)
 80008b8:	2100      	movs	r1, #0
 80008ba:	480d      	ldr	r0, [pc, #52]	@ (80008f0 <MX_USART2_UART_Init+0x90>)
 80008bc:	f005 fe8c 	bl	80065d8 <HAL_UARTEx_SetTxFifoThreshold>
 80008c0:	4603      	mov	r3, r0
 80008c2:	2b00      	cmp	r3, #0
 80008c4:	d001      	beq.n	80008ca <MX_USART2_UART_Init+0x6a>
  {
    Error_Handler();
 80008c6:	f000 f90d 	bl	8000ae4 <Error_Handler>
  }
  if (HAL_UARTEx_SetRxFifoThreshold(&huart2, UART_RXFIFO_THRESHOLD_1_8) != HAL_OK)
 80008ca:	2100      	movs	r1, #0
 80008cc:	4808      	ldr	r0, [pc, #32]	@ (80008f0 <MX_USART2_UART_Init+0x90>)
 80008ce:	f005 fec1 	bl	8006654 <HAL_UARTEx_SetRxFifoThreshold>
 80008d2:	4603      	mov	r3, r0
 80008d4:	2b00      	cmp	r3, #0
 80008d6:	d001      	beq.n	80008dc <MX_USART2_UART_Init+0x7c>
  {
    Error_Handler();
 80008d8:	f000 f904 	bl	8000ae4 <Error_Handler>
  }
  if (HAL_UARTEx_DisableFifoMode(&huart2) != HAL_OK)
 80008dc:	4804      	ldr	r0, [pc, #16]	@ (80008f0 <MX_USART2_UART_Init+0x90>)
 80008de:	f005 fe42 	bl	8006566 <HAL_UARTEx_DisableFifoMode>
 80008e2:	4603      	mov	r3, r0
 80008e4:	2b00      	cmp	r3, #0
 80008e6:	d001      	beq.n	80008ec <MX_USART2_UART_Init+0x8c>
  {
    Error_Handler();
 80008e8:	f000 f8fc 	bl	8000ae4 <Error_Handler>
  }
  /* USER CODE BEGIN USART2_Init 2 */

  /* USER CODE END USART2_Init 2 */

}
 80008ec:	bf00      	nop
 80008ee:	bd80      	pop	{r7, pc}
 80008f0:	200001a0 	.word	0x200001a0
 80008f4:	40004400 	.word	0x40004400

080008f8 <MX_GPIO_Init>:
  * @brief GPIO Initialization Function
  * @param None
  * @retval None
  */
static void MX_GPIO_Init(void)
{
 80008f8:	b580      	push	{r7, lr}
 80008fa:	b088      	sub	sp, #32
 80008fc:	af00      	add	r7, sp, #0
  GPIO_InitTypeDef GPIO_InitStruct = {0};
 80008fe:	f107 030c 	add.w	r3, r7, #12
 8000902:	2200      	movs	r2, #0
 8000904:	601a      	str	r2, [r3, #0]
 8000906:	605a      	str	r2, [r3, #4]
 8000908:	609a      	str	r2, [r3, #8]
 800090a:	60da      	str	r2, [r3, #12]
 800090c:	611a      	str	r2, [r3, #16]
/* USER CODE BEGIN MX_GPIO_Init_1 */
/* USER CODE END MX_GPIO_Init_1 */

  /* GPIO Ports Clock Enable */
  __HAL_RCC_GPIOF_CLK_ENABLE();
 800090e:	4b1e      	ldr	r3, [pc, #120]	@ (8000988 <MX_GPIO_Init+0x90>)
 8000910:	6cdb      	ldr	r3, [r3, #76]	@ 0x4c
 8000912:	4a1d      	ldr	r2, [pc, #116]	@ (8000988 <MX_GPIO_Init+0x90>)
 8000914:	f043 0320 	orr.w	r3, r3, #32
 8000918:	64d3      	str	r3, [r2, #76]	@ 0x4c
 800091a:	4b1b      	ldr	r3, [pc, #108]	@ (8000988 <MX_GPIO_Init+0x90>)
 800091c:	6cdb      	ldr	r3, [r3, #76]	@ 0x4c
 800091e:	f003 0320 	and.w	r3, r3, #32
 8000922:	60bb      	str	r3, [r7, #8]
 8000924:	68bb      	ldr	r3, [r7, #8]
  __HAL_RCC_GPIOA_CLK_ENABLE();
 8000926:	4b18      	ldr	r3, [pc, #96]	@ (8000988 <MX_GPIO_Init+0x90>)
 8000928:	6cdb      	ldr	r3, [r3, #76]	@ 0x4c
 800092a:	4a17      	ldr	r2, [pc, #92]	@ (8000988 <MX_GPIO_Init+0x90>)
 800092c:	f043 0301 	orr.w	r3, r3, #1
 8000930:	64d3      	str	r3, [r2, #76]	@ 0x4c
 8000932:	4b15      	ldr	r3, [pc, #84]	@ (8000988 <MX_GPIO_Init+0x90>)
 8000934:	6cdb      	ldr	r3, [r3, #76]	@ 0x4c
 8000936:	f003 0301 	and.w	r3, r3, #1
 800093a:	607b      	str	r3, [r7, #4]
 800093c:	687b      	ldr	r3, [r7, #4]
  __HAL_RCC_GPIOB_CLK_ENABLE();
 800093e:	4b12      	ldr	r3, [pc, #72]	@ (8000988 <MX_GPIO_Init+0x90>)
 8000940:	6cdb      	ldr	r3, [r3, #76]	@ 0x4c
 8000942:	4a11      	ldr	r2, [pc, #68]	@ (8000988 <MX_GPIO_Init+0x90>)
 8000944:	f043 0302 	orr.w	r3, r3, #2
 8000948:	64d3      	str	r3, [r2, #76]	@ 0x4c
 800094a:	4b0f      	ldr	r3, [pc, #60]	@ (8000988 <MX_GPIO_Init+0x90>)
 800094c:	6cdb      	ldr	r3, [r3, #76]	@ 0x4c
 800094e:	f003 0302 	and.w	r3, r3, #2
 8000952:	603b      	str	r3, [r7, #0]
 8000954:	683b      	ldr	r3, [r7, #0]

  /*Configure GPIO pin Output Level */
  HAL_GPIO_WritePin(GPIOA, GPIO_PIN_0|GPIO_PIN_1, GPIO_PIN_RESET);
 8000956:	2200      	movs	r2, #0
 8000958:	2103      	movs	r1, #3
 800095a:	f04f 4090 	mov.w	r0, #1207959552	@ 0x48000000
 800095e:	f003 ffa3 	bl	80048a8 <HAL_GPIO_WritePin>

  /*Configure GPIO pins : PA0 PA1 */
  GPIO_InitStruct.Pin = GPIO_PIN_0|GPIO_PIN_1;
 8000962:	2303      	movs	r3, #3
 8000964:	60fb      	str	r3, [r7, #12]
  GPIO_InitStruct.Mode = GPIO_MODE_OUTPUT_PP;
 8000966:	2301      	movs	r3, #1
 8000968:	613b      	str	r3, [r7, #16]
  GPIO_InitStruct.Pull = GPIO_NOPULL;
 800096a:	2300      	movs	r3, #0
 800096c:	617b      	str	r3, [r7, #20]
  GPIO_InitStruct.Speed = GPIO_SPEED_FREQ_LOW;
 800096e:	2300      	movs	r3, #0
 8000970:	61bb      	str	r3, [r7, #24]
  HAL_GPIO_Init(GPIOA, &GPIO_InitStruct);
 8000972:	f107 030c 	add.w	r3, r7, #12
 8000976:	4619      	mov	r1, r3
 8000978:	f04f 4090 	mov.w	r0, #1207959552	@ 0x48000000
 800097c:	f003 fe12 	bl	80045a4 <HAL_GPIO_Init>

/* USER CODE BEGIN MX_GPIO_Init_2 */
/* USER CODE END MX_GPIO_Init_2 */
}
 8000980:	bf00      	nop
 8000982:	3720      	adds	r7, #32
 8000984:	46bd      	mov	sp, r7
 8000986:	bd80      	pop	{r7, pc}
 8000988:	40021000 	.word	0x40021000

0800098c <UWriteData>:

/* USER CODE BEGIN 4 */
void UWriteData(const char data)
{
 800098c:	b480      	push	{r7}
 800098e:	b083      	sub	sp, #12
 8000990:	af00      	add	r7, sp, #0
 8000992:	4603      	mov	r3, r0
 8000994:	71fb      	strb	r3, [r7, #7]
	while(__HAL_UART_GET_FLAG(&huart2,UART_FLAG_TXE)==RESET);
 8000996:	bf00      	nop
 8000998:	4b08      	ldr	r3, [pc, #32]	@ (80009bc <UWriteData+0x30>)
 800099a:	681b      	ldr	r3, [r3, #0]
 800099c:	69db      	ldr	r3, [r3, #28]
 800099e:	f003 0380 	and.w	r3, r3, #128	@ 0x80
 80009a2:	2b80      	cmp	r3, #128	@ 0x80
 80009a4:	d1f8      	bne.n	8000998 <UWriteData+0xc>

	huart2.Instance->TDR=data;
 80009a6:	4b05      	ldr	r3, [pc, #20]	@ (80009bc <UWriteData+0x30>)
 80009a8:	681b      	ldr	r3, [r3, #0]
 80009aa:	79fa      	ldrb	r2, [r7, #7]
 80009ac:	629a      	str	r2, [r3, #40]	@ 0x28

}
 80009ae:	bf00      	nop
 80009b0:	370c      	adds	r7, #12
 80009b2:	46bd      	mov	sp, r7
 80009b4:	f85d 7b04 	ldr.w	r7, [sp], #4
 80009b8:	4770      	bx	lr
 80009ba:	bf00      	nop
 80009bc:	200001a0 	.word	0x200001a0

080009c0 <__io_putchar>:

int __io_putchar(int ch)
{
 80009c0:	b580      	push	{r7, lr}
 80009c2:	b082      	sub	sp, #8
 80009c4:	af00      	add	r7, sp, #0
 80009c6:	6078      	str	r0, [r7, #4]
	UWriteData(ch);
 80009c8:	687b      	ldr	r3, [r7, #4]
 80009ca:	b2db      	uxtb	r3, r3
 80009cc:	4618      	mov	r0, r3
 80009ce:	f7ff ffdd 	bl	800098c <UWriteData>
	return ch;
 80009d2:	687b      	ldr	r3, [r7, #4]
}
 80009d4:	4618      	mov	r0, r3
 80009d6:	3708      	adds	r7, #8
 80009d8:	46bd      	mov	sp, r7
 80009da:	bd80      	pop	{r7, pc}

080009dc <PHYStatusCheck>:

void PHYStatusCheck(void)
{
 80009dc:	b580      	push	{r7, lr}
 80009de:	b082      	sub	sp, #8
 80009e0:	af00      	add	r7, sp, #0
	uint8_t tmp;


	do
	{
		printf("\r\nChecking Ethernet Cable Presence ...");
 80009e2:	480e      	ldr	r0, [pc, #56]	@ (8000a1c <PHYStatusCheck+0x40>)
 80009e4:	f005 ff84 	bl	80068f0 <iprintf>
		ctlwizchip(CW_GET_PHYLINK, (void*) &tmp);
 80009e8:	1dfb      	adds	r3, r7, #7
 80009ea:	4619      	mov	r1, r3
 80009ec:	200f      	movs	r0, #15
 80009ee:	f002 ff73 	bl	80038d8 <ctlwizchip>

		if(tmp == PHY_LINK_OFF)
 80009f2:	79fb      	ldrb	r3, [r7, #7]
 80009f4:	2b00      	cmp	r3, #0
 80009f6:	d106      	bne.n	8000a06 <PHYStatusCheck+0x2a>
		{
			printf("NO Cable Connected!");
 80009f8:	4809      	ldr	r0, [pc, #36]	@ (8000a20 <PHYStatusCheck+0x44>)
 80009fa:	f005 ff79 	bl	80068f0 <iprintf>
			HAL_Delay(1500);
 80009fe:	f240 50dc 	movw	r0, #1500	@ 0x5dc
 8000a02:	f003 fcc9 	bl	8004398 <HAL_Delay>
		}
	}while(tmp == PHY_LINK_OFF);
 8000a06:	79fb      	ldrb	r3, [r7, #7]
 8000a08:	2b00      	cmp	r3, #0
 8000a0a:	d0ea      	beq.n	80009e2 <PHYStatusCheck+0x6>

	printf("Good! Cable got connected!");
 8000a0c:	4805      	ldr	r0, [pc, #20]	@ (8000a24 <PHYStatusCheck+0x48>)
 8000a0e:	f005 ff6f 	bl	80068f0 <iprintf>

}
 8000a12:	bf00      	nop
 8000a14:	3708      	adds	r7, #8
 8000a16:	46bd      	mov	sp, r7
 8000a18:	bd80      	pop	{r7, pc}
 8000a1a:	bf00      	nop
 8000a1c:	08007978 	.word	0x08007978
 8000a20:	080079a0 	.word	0x080079a0
 8000a24:	080079b4 	.word	0x080079b4

08000a28 <PrintPHYConf>:

void PrintPHYConf(void)
{
 8000a28:	b580      	push	{r7, lr}
 8000a2a:	b082      	sub	sp, #8
 8000a2c:	af00      	add	r7, sp, #0
	wiz_PhyConf phyconf;

	ctlwizchip(CW_GET_PHYCONF, (void*) &phyconf);
 8000a2e:	1d3b      	adds	r3, r7, #4
 8000a30:	4619      	mov	r1, r3
 8000a32:	200b      	movs	r0, #11
 8000a34:	f002 ff50 	bl	80038d8 <ctlwizchip>

	if(phyconf.by==PHY_CONFBY_HW)
 8000a38:	793b      	ldrb	r3, [r7, #4]
 8000a3a:	2b00      	cmp	r3, #0
 8000a3c:	d103      	bne.n	8000a46 <PrintPHYConf+0x1e>
	{
		printf("\n\rPHY Configured by Hardware Pins");
 8000a3e:	4814      	ldr	r0, [pc, #80]	@ (8000a90 <PrintPHYConf+0x68>)
 8000a40:	f005 ff56 	bl	80068f0 <iprintf>
 8000a44:	e002      	b.n	8000a4c <PrintPHYConf+0x24>
	}
	else
	{
		printf("\n\rPHY Configured by Registers");
 8000a46:	4813      	ldr	r0, [pc, #76]	@ (8000a94 <PrintPHYConf+0x6c>)
 8000a48:	f005 ff52 	bl	80068f0 <iprintf>
	}

	if(phyconf.mode==PHY_MODE_AUTONEGO)
 8000a4c:	797b      	ldrb	r3, [r7, #5]
 8000a4e:	2b01      	cmp	r3, #1
 8000a50:	d103      	bne.n	8000a5a <PrintPHYConf+0x32>
	{
		printf("\n\rAutonegotiation Enabled");
 8000a52:	4811      	ldr	r0, [pc, #68]	@ (8000a98 <PrintPHYConf+0x70>)
 8000a54:	f005 ff4c 	bl	80068f0 <iprintf>
 8000a58:	e002      	b.n	8000a60 <PrintPHYConf+0x38>
	}
	else
	{
		printf("\n\rAutonegotiation NOT Enabled");
 8000a5a:	4810      	ldr	r0, [pc, #64]	@ (8000a9c <PrintPHYConf+0x74>)
 8000a5c:	f005 ff48 	bl	80068f0 <iprintf>
	}

	if(phyconf.duplex==PHY_DUPLEX_FULL)
 8000a60:	79fb      	ldrb	r3, [r7, #7]
 8000a62:	2b01      	cmp	r3, #1
 8000a64:	d103      	bne.n	8000a6e <PrintPHYConf+0x46>
	{
		printf("\n\rDuplex Mode: Full");
 8000a66:	480e      	ldr	r0, [pc, #56]	@ (8000aa0 <PrintPHYConf+0x78>)
 8000a68:	f005 ff42 	bl	80068f0 <iprintf>
 8000a6c:	e002      	b.n	8000a74 <PrintPHYConf+0x4c>
	}
	else
	{
		printf("\n\rDuplex Mode: Half");
 8000a6e:	480d      	ldr	r0, [pc, #52]	@ (8000aa4 <PrintPHYConf+0x7c>)
 8000a70:	f005 ff3e 	bl	80068f0 <iprintf>
	}

	if(phyconf.speed==PHY_SPEED_10)
 8000a74:	79bb      	ldrb	r3, [r7, #6]
 8000a76:	2b00      	cmp	r3, #0
 8000a78:	d103      	bne.n	8000a82 <PrintPHYConf+0x5a>
	{
		printf("\n\rSpeed: 10Mbps");
 8000a7a:	480b      	ldr	r0, [pc, #44]	@ (8000aa8 <PrintPHYConf+0x80>)
 8000a7c:	f005 ff38 	bl	80068f0 <iprintf>
	}
	else
	{
		printf("\n\rSpeed: 100Mbps");
	}
}
 8000a80:	e002      	b.n	8000a88 <PrintPHYConf+0x60>
		printf("\n\rSpeed: 100Mbps");
 8000a82:	480a      	ldr	r0, [pc, #40]	@ (8000aac <PrintPHYConf+0x84>)
 8000a84:	f005 ff34 	bl	80068f0 <iprintf>
}
 8000a88:	bf00      	nop
 8000a8a:	3708      	adds	r7, #8
 8000a8c:	46bd      	mov	sp, r7
 8000a8e:	bd80      	pop	{r7, pc}
 8000a90:	080079d0 	.word	0x080079d0
 8000a94:	080079f4 	.word	0x080079f4
 8000a98:	08007a14 	.word	0x08007a14
 8000a9c:	08007a30 	.word	0x08007a30
 8000aa0:	08007a50 	.word	0x08007a50
 8000aa4:	08007a64 	.word	0x08007a64
 8000aa8:	08007a78 	.word	0x08007a78
 8000aac:	08007a88 	.word	0x08007a88

08000ab0 <PrintBrokerIP>:

static void PrintBrokerIP(void)
{
 8000ab0:	b580      	push	{r7, lr}
 8000ab2:	b082      	sub	sp, #8
 8000ab4:	af02      	add	r7, sp, #8
	printf("Broker IP: %d.%d.%d.%d\r\n",destination_ip[0],destination_ip[1],destination_ip[2],destination_ip[3]);
 8000ab6:	4b09      	ldr	r3, [pc, #36]	@ (8000adc <PrintBrokerIP+0x2c>)
 8000ab8:	781b      	ldrb	r3, [r3, #0]
 8000aba:	4619      	mov	r1, r3
 8000abc:	4b07      	ldr	r3, [pc, #28]	@ (8000adc <PrintBrokerIP+0x2c>)
 8000abe:	785b      	ldrb	r3, [r3, #1]
 8000ac0:	461a      	mov	r2, r3
 8000ac2:	4b06      	ldr	r3, [pc, #24]	@ (8000adc <PrintBrokerIP+0x2c>)
 8000ac4:	789b      	ldrb	r3, [r3, #2]
 8000ac6:	4618      	mov	r0, r3
 8000ac8:	4b04      	ldr	r3, [pc, #16]	@ (8000adc <PrintBrokerIP+0x2c>)
 8000aca:	78db      	ldrb	r3, [r3, #3]
 8000acc:	9300      	str	r3, [sp, #0]
 8000ace:	4603      	mov	r3, r0
 8000ad0:	4803      	ldr	r0, [pc, #12]	@ (8000ae0 <PrintBrokerIP+0x30>)
 8000ad2:	f005 ff0d 	bl	80068f0 <iprintf>
}
 8000ad6:	bf00      	nop
 8000ad8:	46bd      	mov	sp, r7
 8000ada:	bd80      	pop	{r7, pc}
 8000adc:	20000018 	.word	0x20000018
 8000ae0:	08007a9c 	.word	0x08007a9c

08000ae4 <Error_Handler>:
/**
  * @brief  This function is executed in case of error occurrence.
  * @retval None
  */
void Error_Handler(void)
{
 8000ae4:	b480      	push	{r7}
 8000ae6:	af00      	add	r7, sp, #0
  \details Disables IRQ interrupts by setting the I-bit in the CPSR.
           Can only be executed in Privileged modes.
 */
__STATIC_FORCEINLINE void __disable_irq(void)
{
  __ASM volatile ("cpsid i" : : : "memory");
 8000ae8:	b672      	cpsid	i
}
 8000aea:	bf00      	nop
  /* USER CODE BEGIN Error_Handler_Debug */
  /* User can add his own implementation to report the HAL error return state */
  __disable_irq();
  while (1)
 8000aec:	bf00      	nop
 8000aee:	e7fd      	b.n	8000aec <Error_Handler+0x8>

08000af0 <HAL_MspInit>:
 8000af0:	b580      	push	{r7, lr}
 8000af2:	b082      	sub	sp, #8
 8000af4:	af00      	add	r7, sp, #0
 8000af6:	4b0f      	ldr	r3, [pc, #60]	@ (8000b34 <HAL_MspInit+0x44>)
 8000af8:	6e1b      	ldr	r3, [r3, #96]	@ 0x60
 8000afa:	4a0e      	ldr	r2, [pc, #56]	@ (8000b34 <HAL_MspInit+0x44>)
 8000afc:	f043 0301 	orr.w	r3, r3, #1
 8000b00:	6613      	str	r3, [r2, #96]	@ 0x60
 8000b02:	4b0c      	ldr	r3, [pc, #48]	@ (8000b34 <HAL_MspInit+0x44>)
 8000b04:	6e1b      	ldr	r3, [r3, #96]	@ 0x60
 8000b06:	f003 0301 	and.w	r3, r3, #1
 8000b0a:	607b      	str	r3, [r7, #4]
 8000b0c:	687b      	ldr	r3, [r7, #4]
 8000b0e:	4b09      	ldr	r3, [pc, #36]	@ (8000b34 <HAL_MspInit+0x44>)
 8000b10:	6d9b      	ldr	r3, [r3, #88]	@ 0x58
 8000b12:	4a08      	ldr	r2, [pc, #32]	@ (8000b34 <HAL_MspInit+0x44>)
 8000b14:	f043 5380 	orr.w	r3, r3, #268435456	@ 0x10000000
 8000b18:	6593      	str	r3, [r2, #88]	@ 0x58
 8000b1a:	4b06      	ldr	r3, [pc, #24]	@ (8000b34 <HAL_MspInit+0x44>)
 8000b1c:	6d9b      	ldr	r3, [r3, #88]	@ 0x58
 8000b1e:	f003 5380 	and.w	r3, r3, #268435456	@ 0x10000000
 8000b22:	603b      	str	r3, [r7, #0]
 8000b24:	683b      	ldr	r3, [r7, #0]
 8000b26:	f003 ff7b 	bl	8004a20 <HAL_PWREx_DisableUCPDDeadBattery>
 8000b2a:	bf00      	nop
 8000b2c:	3708      	adds	r7, #8
 8000b2e:	46bd      	mov	sp, r7
 8000b30:	bd80      	pop	{r7, pc}
 8000b32:	bf00      	nop
 8000b34:	40021000 	.word	0x40021000

08000b38 <HAL_SPI_MspInit>:
 8000b38:	b580      	push	{r7, lr}
 8000b3a:	b08a      	sub	sp, #40	@ 0x28
 8000b3c:	af00      	add	r7, sp, #0
 8000b3e:	6078      	str	r0, [r7, #4]
 8000b40:	f107 0314 	add.w	r3, r7, #20
 8000b44:	2200      	movs	r2, #0
 8000b46:	601a      	str	r2, [r3, #0]
 8000b48:	605a      	str	r2, [r3, #4]
 8000b4a:	609a      	str	r2, [r3, #8]
 8000b4c:	60da      	str	r2, [r3, #12]
 8000b4e:	611a      	str	r2, [r3, #16]
 8000b50:	687b      	ldr	r3, [r7, #4]
 8000b52:	681b      	ldr	r3, [r3, #0]
 8000b54:	4a25      	ldr	r2, [pc, #148]	@ (8000bec <HAL_SPI_MspInit+0xb4>)
 8000b56:	4293      	cmp	r3, r2
 8000b58:	d144      	bne.n	8000be4 <HAL_SPI_MspInit+0xac>
 8000b5a:	4b25      	ldr	r3, [pc, #148]	@ (8000bf0 <HAL_SPI_MspInit+0xb8>)
 8000b5c:	6e1b      	ldr	r3, [r3, #96]	@ 0x60
 8000b5e:	4a24      	ldr	r2, [pc, #144]	@ (8000bf0 <HAL_SPI_MspInit+0xb8>)
 8000b60:	f443 5380 	orr.w	r3, r3, #4096	@ 0x1000
 8000b64:	6613      	str	r3, [r2, #96]	@ 0x60
 8000b66:	4b22      	ldr	r3, [pc, #136]	@ (8000bf0 <HAL_SPI_MspInit+0xb8>)
 8000b68:	6e1b      	ldr	r3, [r3, #96]	@ 0x60
 8000b6a:	f403 5380 	and.w	r3, r3, #4096	@ 0x1000
 8000b6e:	613b      	str	r3, [r7, #16]
 8000b70:	693b      	ldr	r3, [r7, #16]
 8000b72:	4b1f      	ldr	r3, [pc, #124]	@ (8000bf0 <HAL_SPI_MspInit+0xb8>)
 8000b74:	6cdb      	ldr	r3, [r3, #76]	@ 0x4c
 8000b76:	4a1e      	ldr	r2, [pc, #120]	@ (8000bf0 <HAL_SPI_MspInit+0xb8>)
 8000b78:	f043 0301 	orr.w	r3, r3, #1
 8000b7c:	64d3      	str	r3, [r2, #76]	@ 0x4c
 8000b7e:	4b1c      	ldr	r3, [pc, #112]	@ (8000bf0 <HAL_SPI_MspInit+0xb8>)
 8000b80:	6cdb      	ldr	r3, [r3, #76]	@ 0x4c
 8000b82:	f003 0301 	and.w	r3, r3, #1
 8000b86:	60fb      	str	r3, [r7, #12]
 8000b88:	68fb      	ldr	r3, [r7, #12]
 8000b8a:	4b19      	ldr	r3, [pc, #100]	@ (8000bf0 <HAL_SPI_MspInit+0xb8>)
 8000b8c:	6cdb      	ldr	r3, [r3, #76]	@ 0x4c
 8000b8e:	4a18      	ldr	r2, [pc, #96]	@ (8000bf0 <HAL_SPI_MspInit+0xb8>)
 8000b90:	f043 0302 	orr.w	r3, r3, #2
 8000b94:	64d3      	str	r3, [r2, #76]	@ 0x4c
 8000b96:	4b16      	ldr	r3, [pc, #88]	@ (8000bf0 <HAL_SPI_MspInit+0xb8>)
 8000b98:	6cdb      	ldr	r3, [r3, #76]	@ 0x4c
 8000b9a:	f003 0302 	and.w	r3, r3, #2
 8000b9e:	60bb      	str	r3, [r7, #8]
 8000ba0:	68bb      	ldr	r3, [r7, #8]
 8000ba2:	23c0      	movs	r3, #192	@ 0xc0
 8000ba4:	617b      	str	r3, [r7, #20]
 8000ba6:	2302      	movs	r3, #2
 8000ba8:	61bb      	str	r3, [r7, #24]
 8000baa:	2300      	movs	r3, #0
 8000bac:	61fb      	str	r3, [r7, #28]
 8000bae:	2300      	movs	r3, #0
 8000bb0:	623b      	str	r3, [r7, #32]
 8000bb2:	2305      	movs	r3, #5
 8000bb4:	627b      	str	r3, [r7, #36]	@ 0x24
 8000bb6:	f107 0314 	add.w	r3, r7, #20
 8000bba:	4619      	mov	r1, r3
 8000bbc:	f04f 4090 	mov.w	r0, #1207959552	@ 0x48000000
 8000bc0:	f003 fcf0 	bl	80045a4 <HAL_GPIO_Init>
 8000bc4:	2308      	movs	r3, #8
 8000bc6:	617b      	str	r3, [r7, #20]
 8000bc8:	2302      	movs	r3, #2
 8000bca:	61bb      	str	r3, [r7, #24]
 8000bcc:	2300      	movs	r3, #0
 8000bce:	61fb      	str	r3, [r7, #28]
 8000bd0:	2300      	movs	r3, #0
 8000bd2:	623b      	str	r3, [r7, #32]
 8000bd4:	2305      	movs	r3, #5
 8000bd6:	627b      	str	r3, [r7, #36]	@ 0x24
 8000bd8:	f107 0314 	add.w	r3, r7, #20
 8000bdc:	4619      	mov	r1, r3
 8000bde:	4805      	ldr	r0, [pc, #20]	@ (8000bf4 <HAL_SPI_MspInit+0xbc>)
 8000be0:	f003 fce0 	bl	80045a4 <HAL_GPIO_Init>
 8000be4:	bf00      	nop
 8000be6:	3728      	adds	r7, #40	@ 0x28
 8000be8:	46bd      	mov	sp, r7
 8000bea:	bd80      	pop	{r7, pc}
 8000bec:	40013000 	.word	0x40013000
 8000bf0:	40021000 	.word	0x40021000
 8000bf4:	48000400 	.word	0x48000400

08000bf8 <HAL_UART_MspInit>:
 8000bf8:	b580      	push	{r7, lr}
 8000bfa:	b09e      	sub	sp, #120	@ 0x78
 8000bfc:	af00      	add	r7, sp, #0
 8000bfe:	6078      	str	r0, [r7, #4]
 8000c00:	f107 0364 	add.w	r3, r7, #100	@ 0x64
 8000c04:	2200      	movs	r2, #0
 8000c06:	601a      	str	r2, [r3, #0]
 8000c08:	605a      	str	r2, [r3, #4]
 8000c0a:	609a      	str	r2, [r3, #8]
 8000c0c:	60da      	str	r2, [r3, #12]
 8000c0e:	611a      	str	r2, [r3, #16]
 8000c10:	f107 0310 	add.w	r3, r7, #16
 8000c14:	2254      	movs	r2, #84	@ 0x54
 8000c16:	2100      	movs	r1, #0
 8000c18:	4618      	mov	r0, r3
 8000c1a:	f006 f86d 	bl	8006cf8 <memset>
 8000c1e:	687b      	ldr	r3, [r7, #4]
 8000c20:	681b      	ldr	r3, [r3, #0]
 8000c22:	4a1f      	ldr	r2, [pc, #124]	@ (8000ca0 <HAL_UART_MspInit+0xa8>)
 8000c24:	4293      	cmp	r3, r2
 8000c26:	d136      	bne.n	8000c96 <HAL_UART_MspInit+0x9e>
 8000c28:	2302      	movs	r3, #2
 8000c2a:	613b      	str	r3, [r7, #16]
 8000c2c:	2300      	movs	r3, #0
 8000c2e:	61bb      	str	r3, [r7, #24]
 8000c30:	f107 0310 	add.w	r3, r7, #16
 8000c34:	4618      	mov	r0, r3
 8000c36:	f004 fc31 	bl	800549c <HAL_RCCEx_PeriphCLKConfig>
 8000c3a:	4603      	mov	r3, r0
 8000c3c:	2b00      	cmp	r3, #0
 8000c3e:	d001      	beq.n	8000c44 <HAL_UART_MspInit+0x4c>
 8000c40:	f7ff ff50 	bl	8000ae4 <Error_Handler>
 8000c44:	4b17      	ldr	r3, [pc, #92]	@ (8000ca4 <HAL_UART_MspInit+0xac>)
 8000c46:	6d9b      	ldr	r3, [r3, #88]	@ 0x58
 8000c48:	4a16      	ldr	r2, [pc, #88]	@ (8000ca4 <HAL_UART_MspInit+0xac>)
 8000c4a:	f443 3300 	orr.w	r3, r3, #131072	@ 0x20000
 8000c4e:	6593      	str	r3, [r2, #88]	@ 0x58
 8000c50:	4b14      	ldr	r3, [pc, #80]	@ (8000ca4 <HAL_UART_MspInit+0xac>)
 8000c52:	6d9b      	ldr	r3, [r3, #88]	@ 0x58
 8000c54:	f403 3300 	and.w	r3, r3, #131072	@ 0x20000
 8000c58:	60fb      	str	r3, [r7, #12]
 8000c5a:	68fb      	ldr	r3, [r7, #12]
 8000c5c:	4b11      	ldr	r3, [pc, #68]	@ (8000ca4 <HAL_UART_MspInit+0xac>)
 8000c5e:	6cdb      	ldr	r3, [r3, #76]	@ 0x4c
 8000c60:	4a10      	ldr	r2, [pc, #64]	@ (8000ca4 <HAL_UART_MspInit+0xac>)
 8000c62:	f043 0301 	orr.w	r3, r3, #1
 8000c66:	64d3      	str	r3, [r2, #76]	@ 0x4c
 8000c68:	4b0e      	ldr	r3, [pc, #56]	@ (8000ca4 <HAL_UART_MspInit+0xac>)
 8000c6a:	6cdb      	ldr	r3, [r3, #76]	@ 0x4c
 8000c6c:	f003 0301 	and.w	r3, r3, #1
 8000c70:	60bb      	str	r3, [r7, #8]
 8000c72:	68bb      	ldr	r3, [r7, #8]
 8000c74:	230c      	movs	r3, #12
 8000c76:	667b      	str	r3, [r7, #100]	@ 0x64
 8000c78:	2302      	movs	r3, #2
 8000c7a:	66bb      	str	r3, [r7, #104]	@ 0x68
 8000c7c:	2300      	movs	r3, #0
 8000c7e:	66fb      	str	r3, [r7, #108]	@ 0x6c
 8000c80:	2300      	movs	r3, #0
 8000c82:	673b      	str	r3, [r7, #112]	@ 0x70
 8000c84:	2307      	movs	r3, #7
 8000c86:	677b      	str	r3, [r7, #116]	@ 0x74
 8000c88:	f107 0364 	add.w	r3, r7, #100	@ 0x64
 8000c8c:	4619      	mov	r1, r3
 8000c8e:	f04f 4090 	mov.w	r0, #1207959552	@ 0x48000000
 8000c92:	f003 fc87 	bl	80045a4 <HAL_GPIO_Init>
 8000c96:	bf00      	nop
 8000c98:	3778      	adds	r7, #120	@ 0x78
 8000c9a:	46bd      	mov	sp, r7
 8000c9c:	bd80      	pop	{r7, pc}
 8000c9e:	bf00      	nop
 8000ca0:	40004400 	.word	0x40004400
 8000ca4:	40021000 	.word	0x40021000

08000ca8 <NMI_Handler>:
 8000ca8:	b480      	push	{r7}
 8000caa:	af00      	add	r7, sp, #0
 8000cac:	bf00      	nop
 8000cae:	e7fd      	b.n	8000cac <NMI_Handler+0x4>

08000cb0 <HardFault_Handler>:
 8000cb0:	b480      	push	{r7}
 8000cb2:	af00      	add	r7, sp, #0
 8000cb4:	bf00      	nop
 8000cb6:	e7fd      	b.n	8000cb4 <HardFault_Handler+0x4>

08000cb8 <MemManage_Handler>:
 8000cb8:	b480      	push	{r7}
 8000cba:	af00      	add	r7, sp, #0
 8000cbc:	bf00      	nop
 8000cbe:	e7fd      	b.n	8000cbc <MemManage_Handler+0x4>

08000cc0 <BusFault_Handler>:
 8000cc0:	b480      	push	{r7}
 8000cc2:	af00      	add	r7, sp, #0
 8000cc4:	bf00      	nop
 8000cc6:	e7fd      	b.n	8000cc4 <BusFault_Handler+0x4>

08000cc8 <UsageFault_Handler>:
 8000cc8:	b480      	push	{r7}
 8000cca:	af00      	add	r7, sp, #0
 8000ccc:	bf00      	nop
 8000cce:	e7fd      	b.n	8000ccc <UsageFault_Handler+0x4>

08000cd0 <SVC_Handler>:
 8000cd0:	b480      	push	{r7}
 8000cd2:	af00      	add	r7, sp, #0
 8000cd4:	bf00      	nop
 8000cd6:	46bd      	mov	sp, r7
 8000cd8:	f85d 7b04 	ldr.w	r7, [sp], #4
 8000cdc:	4770      	bx	lr

08000cde <DebugMon_Handler>:
 8000cde:	b480      	push	{r7}
 8000ce0:	af00      	add	r7, sp, #0
 8000ce2:	bf00      	nop
 8000ce4:	46bd      	mov	sp, r7
 8000ce6:	f85d 7b04 	ldr.w	r7, [sp], #4
 8000cea:	4770      	bx	lr

08000cec <PendSV_Handler>:
 8000cec:	b480      	push	{r7}
 8000cee:	af00      	add	r7, sp, #0
 8000cf0:	bf00      	nop
 8000cf2:	46bd      	mov	sp, r7
 8000cf4:	f85d 7b04 	ldr.w	r7, [sp], #4
 8000cf8:	4770      	bx	lr

08000cfa <SysTick_Handler>:
 8000cfa:	b580      	push	{r7, lr}
 8000cfc:	af00      	add	r7, sp, #0
 8000cfe:	f003 fb2d 	bl	800435c <HAL_IncTick>
 8000d02:	f000 fe1f 	bl	8001944 <MilliTimer_Handler>
 8000d06:	bf00      	nop
 8000d08:	bd80      	pop	{r7, pc}

08000d0a <EXTI15_10_IRQHandler>:
 8000d0a:	b480      	push	{r7}
 8000d0c:	af00      	add	r7, sp, #0
 8000d0e:	bf00      	nop
 8000d10:	46bd      	mov	sp, r7
 8000d12:	f85d 7b04 	ldr.w	r7, [sp], #4
 8000d16:	4770      	bx	lr

08000d18 <_read>:
 8000d18:	b580      	push	{r7, lr}
 8000d1a:	b086      	sub	sp, #24
 8000d1c:	af00      	add	r7, sp, #0
 8000d1e:	60f8      	str	r0, [r7, #12]
 8000d20:	60b9      	str	r1, [r7, #8]
 8000d22:	607a      	str	r2, [r7, #4]
 8000d24:	2300      	movs	r3, #0
 8000d26:	617b      	str	r3, [r7, #20]
 8000d28:	e00a      	b.n	8000d40 <_read+0x28>
 8000d2a:	f3af 8000 	nop.w
 8000d2e:	4601      	mov	r1, r0
 8000d30:	68bb      	ldr	r3, [r7, #8]
 8000d32:	1c5a      	adds	r2, r3, #1
 8000d34:	60ba      	str	r2, [r7, #8]
 8000d36:	b2ca      	uxtb	r2, r1
 8000d38:	701a      	strb	r2, [r3, #0]
 8000d3a:	697b      	ldr	r3, [r7, #20]
 8000d3c:	3301      	adds	r3, #1
 8000d3e:	617b      	str	r3, [r7, #20]
 8000d40:	697a      	ldr	r2, [r7, #20]
 8000d42:	687b      	ldr	r3, [r7, #4]
 8000d44:	429a      	cmp	r2, r3
 8000d46:	dbf0      	blt.n	8000d2a <_read+0x12>
 8000d48:	687b      	ldr	r3, [r7, #4]
 8000d4a:	4618      	mov	r0, r3
 8000d4c:	3718      	adds	r7, #24
 8000d4e:	46bd      	mov	sp, r7
 8000d50:	bd80      	pop	{r7, pc}

08000d52 <_write>:
 8000d52:	b580      	push	{r7, lr}
 8000d54:	b086      	sub	sp, #24
 8000d56:	af00      	add	r7, sp, #0
 8000d58:	60f8      	str	r0, [r7, #12]
 8000d5a:	60b9      	str	r1, [r7, #8]
 8000d5c:	607a      	str	r2, [r7, #4]
 8000d5e:	2300      	movs	r3, #0
 8000d60:	617b      	str	r3, [r7, #20]
 8000d62:	e009      	b.n	8000d78 <_write+0x26>
 8000d64:	68bb      	ldr	r3, [r7, #8]
 8000d66:	1c5a      	adds	r2, r3, #1
 8000d68:	60ba      	str	r2, [r7, #8]
 8000d6a:	781b      	ldrb	r3, [r3, #0]
 8000d6c:	4618      	mov	r0, r3
 8000d6e:	f7ff fe27 	bl	80009c0 <__io_putchar>
 8000d72:	697b      	ldr	r3, [r7, #20]
 8000d74:	3301      	adds	r3, #1
 8000d76:	617b      	str	r3, [r7, #20]
 8000d78:	697a      	ldr	r2, [r7, #20]
 8000d7a:	687b      	ldr	r3, [r7, #4]
 8000d7c:	429a      	cmp	r2, r3
 8000d7e:	dbf1      	blt.n	8000d64 <_write+0x12>
 8000d80:	687b      	ldr	r3, [r7, #4]
 8000d82:	4618      	mov	r0, r3
 8000d84:	3718      	adds	r7, #24
 8000d86:	46bd      	mov	sp, r7
 8000d88:	bd80      	pop	{r7, pc}

08000d8a <_close>:
 8000d8a:	b480      	push	{r7}
 8000d8c:	b083      	sub	sp, #12
 8000d8e:	af00      	add	r7, sp, #0
 8000d90:	6078      	str	r0, [r7, #4]
 8000d92:	f04f 33ff 	mov.w	r3, #4294967295
 8000d96:	4618      	mov	r0, r3
 8000d98:	370c      	adds	r7, #12
 8000d9a:	46bd      	mov	sp, r7
 8000d9c:	f85d 7b04 	ldr.w	r7, [sp], #4
 8000da0:	4770      	bx	lr

08000da2 <_fstat>:
 8000da2:	b480      	push	{r7}
 8000da4:	b083      	sub	sp, #12
 8000da6:	af00      	add	r7, sp, #0
 8000da8:	6078      	str	r0, [r7, #4]
 8000daa:	6039      	str	r1, [r7, #0]
 8000dac:	683b      	ldr	r3, [r7, #0]
 8000dae:	f44f 5200 	mov.w	r2, #8192	@ 0x2000
 8000db2:	605a      	str	r2, [r3, #4]
 8000db4:	2300      	movs	r3, #0
 8000db6:	4618      	mov	r0, r3
 8000db8:	370c      	adds	r7, #12
 8000dba:	46bd      	mov	sp, r7
 8000dbc:	f85d 7b04 	ldr.w	r7, [sp], #4
 8000dc0:	4770      	bx	lr

08000dc2 <_isatty>:
 8000dc2:	b480      	push	{r7}
 8000dc4:	b083      	sub	sp, #12
 8000dc6:	af00      	add	r7, sp, #0
 8000dc8:	6078      	str	r0, [r7, #4]
 8000dca:	2301      	movs	r3, #1
 8000dcc:	4618      	mov	r0, r3
 8000dce:	370c      	adds	r7, #12
 8000dd0:	46bd      	mov	sp, r7
 8000dd2:	f85d 7b04 	ldr.w	r7, [sp], #4
 8000dd6:	4770      	bx	lr

08000dd8 <_lseek>:
 8000dd8:	b480      	push	{r7}
 8000dda:	b085      	sub	sp, #20
 8000ddc:	af00      	add	r7, sp, #0
 8000dde:	60f8      	str	r0, [r7, #12]
 8000de0:	60b9      	str	r1, [r7, #8]
 8000de2:	607a      	str	r2, [r7, #4]
 8000de4:	2300      	movs	r3, #0
 8000de6:	4618      	mov	r0, r3
 8000de8:	3714      	adds	r7, #20
 8000dea:	46bd      	mov	sp, r7
 8000dec:	f85d 7b04 	ldr.w	r7, [sp], #4
 8000df0:	4770      	bx	lr
	...

08000df4 <_sbrk>:
 8000df4:	b580      	push	{r7, lr}
 8000df6:	b086      	sub	sp, #24
 8000df8:	af00      	add	r7, sp, #0
 8000dfa:	6078      	str	r0, [r7, #4]
 8000dfc:	4a14      	ldr	r2, [pc, #80]	@ (8000e50 <_sbrk+0x5c>)
 8000dfe:	4b15      	ldr	r3, [pc, #84]	@ (8000e54 <_sbrk+0x60>)
 8000e00:	1ad3      	subs	r3, r2, r3
 8000e02:	617b      	str	r3, [r7, #20]
 8000e04:	697b      	ldr	r3, [r7, #20]
 8000e06:	613b      	str	r3, [r7, #16]
 8000e08:	4b13      	ldr	r3, [pc, #76]	@ (8000e58 <_sbrk+0x64>)
 8000e0a:	681b      	ldr	r3, [r3, #0]
 8000e0c:	2b00      	cmp	r3, #0
 8000e0e:	d102      	bne.n	8000e16 <_sbrk+0x22>
 8000e10:	4b11      	ldr	r3, [pc, #68]	@ (8000e58 <_sbrk+0x64>)
 8000e12:	4a12      	ldr	r2, [pc, #72]	@ (8000e5c <_sbrk+0x68>)
 8000e14:	601a      	str	r2, [r3, #0]
 8000e16:	4b10      	ldr	r3, [pc, #64]	@ (8000e58 <_sbrk+0x64>)
 8000e18:	681a      	ldr	r2, [r3, #0]
 8000e1a:	687b      	ldr	r3, [r7, #4]
 8000e1c:	4413      	add	r3, r2
 8000e1e:	693a      	ldr	r2, [r7, #16]
 8000e20:	429a      	cmp	r2, r3
 8000e22:	d207      	bcs.n	8000e34 <_sbrk+0x40>
 8000e24:	f005 ffc8 	bl	8006db8 <__errno>
 8000e28:	4603      	mov	r3, r0
 8000e2a:	220c      	movs	r2, #12
 8000e2c:	601a      	str	r2, [r3, #0]
 8000e2e:	f04f 33ff 	mov.w	r3, #4294967295
 8000e32:	e009      	b.n	8000e48 <_sbrk+0x54>
 8000e34:	4b08      	ldr	r3, [pc, #32]	@ (8000e58 <_sbrk+0x64>)
 8000e36:	681b      	ldr	r3, [r3, #0]
 8000e38:	60fb      	str	r3, [r7, #12]
 8000e3a:	4b07      	ldr	r3, [pc, #28]	@ (8000e58 <_sbrk+0x64>)
 8000e3c:	681a      	ldr	r2, [r3, #0]
 8000e3e:	687b      	ldr	r3, [r7, #4]
 8000e40:	4413      	add	r3, r2
 8000e42:	4a05      	ldr	r2, [pc, #20]	@ (8000e58 <_sbrk+0x64>)
 8000e44:	6013      	str	r3, [r2, #0]
 8000e46:	68fb      	ldr	r3, [r7, #12]
 8000e48:	4618      	mov	r0, r3
 8000e4a:	3718      	adds	r7, #24
 8000e4c:	46bd      	mov	sp, r7
 8000e4e:	bd80      	pop	{r7, pc}
 8000e50:	20020000 	.word	0x20020000
 8000e54:	00000400 	.word	0x00000400
 8000e58:	200004b0 	.word	0x200004b0
 8000e5c:	20000630 	.word	0x20000630

08000e60 <SystemInit>:
 8000e60:	b480      	push	{r7}
 8000e62:	af00      	add	r7, sp, #0
 8000e64:	4b06      	ldr	r3, [pc, #24]	@ (8000e80 <SystemInit+0x20>)
 8000e66:	f8d3 3088 	ldr.w	r3, [r3, #136]	@ 0x88
 8000e6a:	4a05      	ldr	r2, [pc, #20]	@ (8000e80 <SystemInit+0x20>)
 8000e6c:	f443 0370 	orr.w	r3, r3, #15728640	@ 0xf00000
 8000e70:	f8c2 3088 	str.w	r3, [r2, #136]	@ 0x88
 8000e74:	bf00      	nop
 8000e76:	46bd      	mov	sp, r7
 8000e78:	f85d 7b04 	ldr.w	r7, [sp], #4
 8000e7c:	4770      	bx	lr
 8000e7e:	bf00      	nop
 8000e80:	e000ed00 	.word	0xe000ed00

08000e84 <NewMessageData>:
 8000e84:	b480      	push	{r7}
 8000e86:	b085      	sub	sp, #20
 8000e88:	af00      	add	r7, sp, #0
 8000e8a:	60f8      	str	r0, [r7, #12]
 8000e8c:	60b9      	str	r1, [r7, #8]
 8000e8e:	607a      	str	r2, [r7, #4]
 8000e90:	68fb      	ldr	r3, [r7, #12]
 8000e92:	68ba      	ldr	r2, [r7, #8]
 8000e94:	605a      	str	r2, [r3, #4]
 8000e96:	68fb      	ldr	r3, [r7, #12]
 8000e98:	687a      	ldr	r2, [r7, #4]
 8000e9a:	601a      	str	r2, [r3, #0]
 8000e9c:	bf00      	nop
 8000e9e:	3714      	adds	r7, #20
 8000ea0:	46bd      	mov	sp, r7
 8000ea2:	f85d 7b04 	ldr.w	r7, [sp], #4
 8000ea6:	4770      	bx	lr

08000ea8 <getNextPacketId>:
 8000ea8:	b480      	push	{r7}
 8000eaa:	b083      	sub	sp, #12
 8000eac:	af00      	add	r7, sp, #0
 8000eae:	6078      	str	r0, [r7, #4]
 8000eb0:	687b      	ldr	r3, [r7, #4]
 8000eb2:	681b      	ldr	r3, [r3, #0]
 8000eb4:	f64f 72ff 	movw	r2, #65535	@ 0xffff
 8000eb8:	4293      	cmp	r3, r2
 8000eba:	d003      	beq.n	8000ec4 <getNextPacketId+0x1c>
 8000ebc:	687b      	ldr	r3, [r7, #4]
 8000ebe:	681b      	ldr	r3, [r3, #0]
 8000ec0:	3301      	adds	r3, #1
 8000ec2:	e000      	b.n	8000ec6 <getNextPacketId+0x1e>
 8000ec4:	2301      	movs	r3, #1
 8000ec6:	687a      	ldr	r2, [r7, #4]
 8000ec8:	6013      	str	r3, [r2, #0]
 8000eca:	687b      	ldr	r3, [r7, #4]
 8000ecc:	681b      	ldr	r3, [r3, #0]
 8000ece:	4618      	mov	r0, r3
 8000ed0:	370c      	adds	r7, #12
 8000ed2:	46bd      	mov	sp, r7
 8000ed4:	f85d 7b04 	ldr.w	r7, [sp], #4
 8000ed8:	4770      	bx	lr

08000eda <sendPacket>:
 8000eda:	b5f0      	push	{r4, r5, r6, r7, lr}
 8000edc:	b087      	sub	sp, #28
 8000ede:	af00      	add	r7, sp, #0
 8000ee0:	60f8      	str	r0, [r7, #12]
 8000ee2:	60b9      	str	r1, [r7, #8]
 8000ee4:	607a      	str	r2, [r7, #4]
 8000ee6:	f04f 33ff 	mov.w	r3, #4294967295
 8000eea:	617b      	str	r3, [r7, #20]
 8000eec:	2300      	movs	r3, #0
 8000eee:	613b      	str	r3, [r7, #16]
 8000ef0:	e018      	b.n	8000f24 <sendPacket+0x4a>
 8000ef2:	68fb      	ldr	r3, [r7, #12]
 8000ef4:	6d5b      	ldr	r3, [r3, #84]	@ 0x54
 8000ef6:	689c      	ldr	r4, [r3, #8]
 8000ef8:	68fb      	ldr	r3, [r7, #12]
 8000efa:	6d5d      	ldr	r5, [r3, #84]	@ 0x54
 8000efc:	68fb      	ldr	r3, [r7, #12]
 8000efe:	691a      	ldr	r2, [r3, #16]
 8000f00:	693b      	ldr	r3, [r7, #16]
 8000f02:	18d6      	adds	r6, r2, r3
 8000f04:	6878      	ldr	r0, [r7, #4]
 8000f06:	f000 fd7b 	bl	8001a00 <TimerLeftMS>
 8000f0a:	4603      	mov	r3, r0
 8000f0c:	68ba      	ldr	r2, [r7, #8]
 8000f0e:	4631      	mov	r1, r6
 8000f10:	4628      	mov	r0, r5
 8000f12:	47a0      	blx	r4
 8000f14:	6178      	str	r0, [r7, #20]
 8000f16:	697b      	ldr	r3, [r7, #20]
 8000f18:	2b00      	cmp	r3, #0
 8000f1a:	db0e      	blt.n	8000f3a <sendPacket+0x60>
 8000f1c:	693a      	ldr	r2, [r7, #16]
 8000f1e:	697b      	ldr	r3, [r7, #20]
 8000f20:	4413      	add	r3, r2
 8000f22:	613b      	str	r3, [r7, #16]
 8000f24:	693a      	ldr	r2, [r7, #16]
 8000f26:	68bb      	ldr	r3, [r7, #8]
 8000f28:	429a      	cmp	r2, r3
 8000f2a:	da07      	bge.n	8000f3c <sendPacket+0x62>
 8000f2c:	6878      	ldr	r0, [r7, #4]
 8000f2e:	f000 fd25 	bl	800197c <TimerIsExpired>
 8000f32:	4603      	mov	r3, r0
 8000f34:	2b00      	cmp	r3, #0
 8000f36:	d0dc      	beq.n	8000ef2 <sendPacket+0x18>
 8000f38:	e000      	b.n	8000f3c <sendPacket+0x62>
 8000f3a:	bf00      	nop
 8000f3c:	693a      	ldr	r2, [r7, #16]
 8000f3e:	68bb      	ldr	r3, [r7, #8]
 8000f40:	429a      	cmp	r2, r3
 8000f42:	d10b      	bne.n	8000f5c <sendPacket+0x82>
 8000f44:	68fb      	ldr	r3, [r7, #12]
 8000f46:	f103 0258 	add.w	r2, r3, #88	@ 0x58
 8000f4a:	68fb      	ldr	r3, [r7, #12]
 8000f4c:	699b      	ldr	r3, [r3, #24]
 8000f4e:	4619      	mov	r1, r3
 8000f50:	4610      	mov	r0, r2
 8000f52:	f000 fd3d 	bl	80019d0 <TimerCountdown>
 8000f56:	2300      	movs	r3, #0
 8000f58:	617b      	str	r3, [r7, #20]
 8000f5a:	e002      	b.n	8000f62 <sendPacket+0x88>
 8000f5c:	f04f 33ff 	mov.w	r3, #4294967295
 8000f60:	617b      	str	r3, [r7, #20]
 8000f62:	697b      	ldr	r3, [r7, #20]
 8000f64:	4618      	mov	r0, r3
 8000f66:	371c      	adds	r7, #28
 8000f68:	46bd      	mov	sp, r7
 8000f6a:	bdf0      	pop	{r4, r5, r6, r7, pc}

08000f6c <MQTTClientInit>:
 8000f6c:	b580      	push	{r7, lr}
 8000f6e:	b086      	sub	sp, #24
 8000f70:	af00      	add	r7, sp, #0
 8000f72:	60f8      	str	r0, [r7, #12]
 8000f74:	60b9      	str	r1, [r7, #8]
 8000f76:	607a      	str	r2, [r7, #4]
 8000f78:	603b      	str	r3, [r7, #0]
 8000f7a:	68fb      	ldr	r3, [r7, #12]
 8000f7c:	68ba      	ldr	r2, [r7, #8]
 8000f7e:	655a      	str	r2, [r3, #84]	@ 0x54
 8000f80:	2300      	movs	r3, #0
 8000f82:	617b      	str	r3, [r7, #20]
 8000f84:	e008      	b.n	8000f98 <MQTTClientInit+0x2c>
 8000f86:	68fb      	ldr	r3, [r7, #12]
 8000f88:	697a      	ldr	r2, [r7, #20]
 8000f8a:	3205      	adds	r2, #5
 8000f8c:	2100      	movs	r1, #0
 8000f8e:	f843 1032 	str.w	r1, [r3, r2, lsl #3]
 8000f92:	697b      	ldr	r3, [r7, #20]
 8000f94:	3301      	adds	r3, #1
 8000f96:	617b      	str	r3, [r7, #20]
 8000f98:	697b      	ldr	r3, [r7, #20]
 8000f9a:	2b04      	cmp	r3, #4
 8000f9c:	ddf3      	ble.n	8000f86 <MQTTClientInit+0x1a>
 8000f9e:	68fb      	ldr	r3, [r7, #12]
 8000fa0:	687a      	ldr	r2, [r7, #4]
 8000fa2:	605a      	str	r2, [r3, #4]
 8000fa4:	68fb      	ldr	r3, [r7, #12]
 8000fa6:	683a      	ldr	r2, [r7, #0]
 8000fa8:	611a      	str	r2, [r3, #16]
 8000faa:	68fb      	ldr	r3, [r7, #12]
 8000fac:	6a3a      	ldr	r2, [r7, #32]
 8000fae:	609a      	str	r2, [r3, #8]
 8000fb0:	68fb      	ldr	r3, [r7, #12]
 8000fb2:	6a7a      	ldr	r2, [r7, #36]	@ 0x24
 8000fb4:	615a      	str	r2, [r3, #20]
 8000fb6:	68fb      	ldr	r3, [r7, #12]
 8000fb8:	6aba      	ldr	r2, [r7, #40]	@ 0x28
 8000fba:	60da      	str	r2, [r3, #12]
 8000fbc:	68fb      	ldr	r3, [r7, #12]
 8000fbe:	2200      	movs	r2, #0
 8000fc0:	621a      	str	r2, [r3, #32]
 8000fc2:	68fb      	ldr	r3, [r7, #12]
 8000fc4:	2200      	movs	r2, #0
 8000fc6:	625a      	str	r2, [r3, #36]	@ 0x24
 8000fc8:	68fb      	ldr	r3, [r7, #12]
 8000fca:	2200      	movs	r2, #0
 8000fcc:	771a      	strb	r2, [r3, #28]
 8000fce:	68fb      	ldr	r3, [r7, #12]
 8000fd0:	2200      	movs	r2, #0
 8000fd2:	651a      	str	r2, [r3, #80]	@ 0x50
 8000fd4:	68fb      	ldr	r3, [r7, #12]
 8000fd6:	2201      	movs	r2, #1
 8000fd8:	601a      	str	r2, [r3, #0]
 8000fda:	68fb      	ldr	r3, [r7, #12]
 8000fdc:	3358      	adds	r3, #88	@ 0x58
 8000fde:	4618      	mov	r0, r3
 8000fe0:	f000 fcbe 	bl	8001960 <TimerInit>
 8000fe4:	68fb      	ldr	r3, [r7, #12]
 8000fe6:	3360      	adds	r3, #96	@ 0x60
 8000fe8:	4618      	mov	r0, r3
 8000fea:	f000 fcb9 	bl	8001960 <TimerInit>
 8000fee:	bf00      	nop
 8000ff0:	3718      	adds	r7, #24
 8000ff2:	46bd      	mov	sp, r7
 8000ff4:	bd80      	pop	{r7, pc}

08000ff6 <decodePacket>:
 8000ff6:	b590      	push	{r4, r7, lr}
 8000ff8:	b08b      	sub	sp, #44	@ 0x2c
 8000ffa:	af00      	add	r7, sp, #0
 8000ffc:	60f8      	str	r0, [r7, #12]
 8000ffe:	60b9      	str	r1, [r7, #8]
 8001000:	607a      	str	r2, [r7, #4]
 8001002:	2301      	movs	r3, #1
 8001004:	627b      	str	r3, [r7, #36]	@ 0x24
 8001006:	2300      	movs	r3, #0
 8001008:	623b      	str	r3, [r7, #32]
 800100a:	2304      	movs	r3, #4
 800100c:	61fb      	str	r3, [r7, #28]
 800100e:	68bb      	ldr	r3, [r7, #8]
 8001010:	2200      	movs	r2, #0
 8001012:	601a      	str	r2, [r3, #0]
 8001014:	f04f 33ff 	mov.w	r3, #4294967295
 8001018:	61bb      	str	r3, [r7, #24]
 800101a:	6a3b      	ldr	r3, [r7, #32]
 800101c:	3301      	adds	r3, #1
 800101e:	623b      	str	r3, [r7, #32]
 8001020:	6a3a      	ldr	r2, [r7, #32]
 8001022:	69fb      	ldr	r3, [r7, #28]
 8001024:	429a      	cmp	r2, r3
 8001026:	dd03      	ble.n	8001030 <decodePacket+0x3a>
 8001028:	f04f 33ff 	mov.w	r3, #4294967295
 800102c:	61bb      	str	r3, [r7, #24]
 800102e:	e021      	b.n	8001074 <decodePacket+0x7e>
 8001030:	68fb      	ldr	r3, [r7, #12]
 8001032:	6d5b      	ldr	r3, [r3, #84]	@ 0x54
 8001034:	685c      	ldr	r4, [r3, #4]
 8001036:	68fb      	ldr	r3, [r7, #12]
 8001038:	6d58      	ldr	r0, [r3, #84]	@ 0x54
 800103a:	f107 0117 	add.w	r1, r7, #23
 800103e:	687b      	ldr	r3, [r7, #4]
 8001040:	2201      	movs	r2, #1
 8001042:	47a0      	blx	r4
 8001044:	61b8      	str	r0, [r7, #24]
 8001046:	69bb      	ldr	r3, [r7, #24]
 8001048:	2b01      	cmp	r3, #1
 800104a:	d112      	bne.n	8001072 <decodePacket+0x7c>
 800104c:	68bb      	ldr	r3, [r7, #8]
 800104e:	681a      	ldr	r2, [r3, #0]
 8001050:	7dfb      	ldrb	r3, [r7, #23]
 8001052:	f003 037f 	and.w	r3, r3, #127	@ 0x7f
 8001056:	6a79      	ldr	r1, [r7, #36]	@ 0x24
 8001058:	fb01 f303 	mul.w	r3, r1, r3
 800105c:	441a      	add	r2, r3
 800105e:	68bb      	ldr	r3, [r7, #8]
 8001060:	601a      	str	r2, [r3, #0]
 8001062:	6a7b      	ldr	r3, [r7, #36]	@ 0x24
 8001064:	01db      	lsls	r3, r3, #7
 8001066:	627b      	str	r3, [r7, #36]	@ 0x24
 8001068:	7dfb      	ldrb	r3, [r7, #23]
 800106a:	b25b      	sxtb	r3, r3
 800106c:	2b00      	cmp	r3, #0
 800106e:	dbd1      	blt.n	8001014 <decodePacket+0x1e>
 8001070:	e000      	b.n	8001074 <decodePacket+0x7e>
 8001072:	bf00      	nop
 8001074:	6a3b      	ldr	r3, [r7, #32]
 8001076:	4618      	mov	r0, r3
 8001078:	372c      	adds	r7, #44	@ 0x2c
 800107a:	46bd      	mov	sp, r7
 800107c:	bd90      	pop	{r4, r7, pc}

0800107e <readPacket>:
 800107e:	b5f0      	push	{r4, r5, r6, r7, lr}
 8001080:	b089      	sub	sp, #36	@ 0x24
 8001082:	af00      	add	r7, sp, #0
 8001084:	60f8      	str	r0, [r7, #12]
 8001086:	60b9      	str	r1, [r7, #8]
 8001088:	2300      	movs	r3, #0
 800108a:	617b      	str	r3, [r7, #20]
 800108c:	2300      	movs	r3, #0
 800108e:	61bb      	str	r3, [r7, #24]
 8001090:	2300      	movs	r3, #0
 8001092:	613b      	str	r3, [r7, #16]
 8001094:	68fb      	ldr	r3, [r7, #12]
 8001096:	6d5b      	ldr	r3, [r3, #84]	@ 0x54
 8001098:	685c      	ldr	r4, [r3, #4]
 800109a:	68fb      	ldr	r3, [r7, #12]
 800109c:	6d5d      	ldr	r5, [r3, #84]	@ 0x54
 800109e:	68fb      	ldr	r3, [r7, #12]
 80010a0:	695e      	ldr	r6, [r3, #20]
 80010a2:	68b8      	ldr	r0, [r7, #8]
 80010a4:	f000 fcac 	bl	8001a00 <TimerLeftMS>
 80010a8:	4603      	mov	r3, r0
 80010aa:	2201      	movs	r2, #1
 80010ac:	4631      	mov	r1, r6
 80010ae:	4628      	mov	r0, r5
 80010b0:	47a0      	blx	r4
 80010b2:	61f8      	str	r0, [r7, #28]
 80010b4:	69fb      	ldr	r3, [r7, #28]
 80010b6:	2b01      	cmp	r3, #1
 80010b8:	d15d      	bne.n	8001176 <readPacket+0xf8>
 80010ba:	2301      	movs	r3, #1
 80010bc:	61bb      	str	r3, [r7, #24]
 80010be:	68b8      	ldr	r0, [r7, #8]
 80010c0:	f000 fc9e 	bl	8001a00 <TimerLeftMS>
 80010c4:	4602      	mov	r2, r0
 80010c6:	f107 0310 	add.w	r3, r7, #16
 80010ca:	4619      	mov	r1, r3
 80010cc:	68f8      	ldr	r0, [r7, #12]
 80010ce:	f7ff ff92 	bl	8000ff6 <decodePacket>
 80010d2:	68fb      	ldr	r3, [r7, #12]
 80010d4:	695b      	ldr	r3, [r3, #20]
 80010d6:	3301      	adds	r3, #1
 80010d8:	693a      	ldr	r2, [r7, #16]
 80010da:	4611      	mov	r1, r2
 80010dc:	4618      	mov	r0, r3
 80010de:	f000 fff4 	bl	80020ca <MQTTPacket_encode>
 80010e2:	4602      	mov	r2, r0
 80010e4:	69bb      	ldr	r3, [r7, #24]
 80010e6:	4413      	add	r3, r2
 80010e8:	61bb      	str	r3, [r7, #24]
 80010ea:	68fb      	ldr	r3, [r7, #12]
 80010ec:	68da      	ldr	r2, [r3, #12]
 80010ee:	69bb      	ldr	r3, [r7, #24]
 80010f0:	1ad3      	subs	r3, r2, r3
 80010f2:	693a      	ldr	r2, [r7, #16]
 80010f4:	4293      	cmp	r3, r2
 80010f6:	d203      	bcs.n	8001100 <readPacket+0x82>
 80010f8:	f06f 0301 	mvn.w	r3, #1
 80010fc:	61fb      	str	r3, [r7, #28]
 80010fe:	e03d      	b.n	800117c <readPacket+0xfe>
 8001100:	693b      	ldr	r3, [r7, #16]
 8001102:	2b00      	cmp	r3, #0
 8001104:	dd20      	ble.n	8001148 <readPacket+0xca>
 8001106:	68fb      	ldr	r3, [r7, #12]
 8001108:	6d5b      	ldr	r3, [r3, #84]	@ 0x54
 800110a:	685c      	ldr	r4, [r3, #4]
 800110c:	68fb      	ldr	r3, [r7, #12]
 800110e:	6d5d      	ldr	r5, [r3, #84]	@ 0x54
 8001110:	68fb      	ldr	r3, [r7, #12]
 8001112:	695a      	ldr	r2, [r3, #20]
 8001114:	69bb      	ldr	r3, [r7, #24]
 8001116:	18d6      	adds	r6, r2, r3
 8001118:	693b      	ldr	r3, [r7, #16]
 800111a:	607b      	str	r3, [r7, #4]
 800111c:	68b8      	ldr	r0, [r7, #8]
 800111e:	f000 fc6f 	bl	8001a00 <TimerLeftMS>
 8001122:	4603      	mov	r3, r0
 8001124:	687a      	ldr	r2, [r7, #4]
 8001126:	4631      	mov	r1, r6
 8001128:	4628      	mov	r0, r5
 800112a:	47a0      	blx	r4
 800112c:	4602      	mov	r2, r0
 800112e:	693b      	ldr	r3, [r7, #16]
 8001130:	429a      	cmp	r2, r3
 8001132:	bf14      	ite	ne
 8001134:	2301      	movne	r3, #1
 8001136:	2300      	moveq	r3, #0
 8001138:	b2db      	uxtb	r3, r3
 800113a:	61fb      	str	r3, [r7, #28]
 800113c:	69fb      	ldr	r3, [r7, #28]
 800113e:	2b00      	cmp	r3, #0
 8001140:	d002      	beq.n	8001148 <readPacket+0xca>
 8001142:	2300      	movs	r3, #0
 8001144:	61fb      	str	r3, [r7, #28]
 8001146:	e019      	b.n	800117c <readPacket+0xfe>
 8001148:	68fb      	ldr	r3, [r7, #12]
 800114a:	695b      	ldr	r3, [r3, #20]
 800114c:	781b      	ldrb	r3, [r3, #0]
 800114e:	753b      	strb	r3, [r7, #20]
 8001150:	7d3b      	ldrb	r3, [r7, #20]
 8001152:	f3c3 1303 	ubfx	r3, r3, #4, #4
 8001156:	b2db      	uxtb	r3, r3
 8001158:	61fb      	str	r3, [r7, #28]
 800115a:	68fb      	ldr	r3, [r7, #12]
 800115c:	699b      	ldr	r3, [r3, #24]
 800115e:	2b00      	cmp	r3, #0
 8001160:	d00b      	beq.n	800117a <readPacket+0xfc>
 8001162:	68fb      	ldr	r3, [r7, #12]
 8001164:	f103 0260 	add.w	r2, r3, #96	@ 0x60
 8001168:	68fb      	ldr	r3, [r7, #12]
 800116a:	699b      	ldr	r3, [r3, #24]
 800116c:	4619      	mov	r1, r3
 800116e:	4610      	mov	r0, r2
 8001170:	f000 fc2e 	bl	80019d0 <TimerCountdown>
 8001174:	e002      	b.n	800117c <readPacket+0xfe>
 8001176:	bf00      	nop
 8001178:	e000      	b.n	800117c <readPacket+0xfe>
 800117a:	bf00      	nop
 800117c:	69fb      	ldr	r3, [r7, #28]
 800117e:	4618      	mov	r0, r3
 8001180:	3724      	adds	r7, #36	@ 0x24
 8001182:	46bd      	mov	sp, r7
 8001184:	bdf0      	pop	{r4, r5, r6, r7, pc}

08001186 <isTopicMatched>:
 8001186:	b480      	push	{r7}
 8001188:	b087      	sub	sp, #28
 800118a:	af00      	add	r7, sp, #0
 800118c:	6078      	str	r0, [r7, #4]
 800118e:	6039      	str	r1, [r7, #0]
 8001190:	687b      	ldr	r3, [r7, #4]
 8001192:	617b      	str	r3, [r7, #20]
 8001194:	683b      	ldr	r3, [r7, #0]
 8001196:	689b      	ldr	r3, [r3, #8]
 8001198:	613b      	str	r3, [r7, #16]
 800119a:	683b      	ldr	r3, [r7, #0]
 800119c:	685b      	ldr	r3, [r3, #4]
 800119e:	461a      	mov	r2, r3
 80011a0:	693b      	ldr	r3, [r7, #16]
 80011a2:	4413      	add	r3, r2
 80011a4:	60bb      	str	r3, [r7, #8]
 80011a6:	e039      	b.n	800121c <isTopicMatched+0x96>
 80011a8:	693b      	ldr	r3, [r7, #16]
 80011aa:	781b      	ldrb	r3, [r3, #0]
 80011ac:	2b2f      	cmp	r3, #47	@ 0x2f
 80011ae:	d103      	bne.n	80011b8 <isTopicMatched+0x32>
 80011b0:	697b      	ldr	r3, [r7, #20]
 80011b2:	781b      	ldrb	r3, [r3, #0]
 80011b4:	2b2f      	cmp	r3, #47	@ 0x2f
 80011b6:	d13a      	bne.n	800122e <isTopicMatched+0xa8>
 80011b8:	697b      	ldr	r3, [r7, #20]
 80011ba:	781b      	ldrb	r3, [r3, #0]
 80011bc:	2b2b      	cmp	r3, #43	@ 0x2b
 80011be:	d009      	beq.n	80011d4 <isTopicMatched+0x4e>
 80011c0:	697b      	ldr	r3, [r7, #20]
 80011c2:	781b      	ldrb	r3, [r3, #0]
 80011c4:	2b23      	cmp	r3, #35	@ 0x23
 80011c6:	d005      	beq.n	80011d4 <isTopicMatched+0x4e>
 80011c8:	697b      	ldr	r3, [r7, #20]
 80011ca:	781a      	ldrb	r2, [r3, #0]
 80011cc:	693b      	ldr	r3, [r7, #16]
 80011ce:	781b      	ldrb	r3, [r3, #0]
 80011d0:	429a      	cmp	r2, r3
 80011d2:	d12e      	bne.n	8001232 <isTopicMatched+0xac>
 80011d4:	697b      	ldr	r3, [r7, #20]
 80011d6:	781b      	ldrb	r3, [r3, #0]
 80011d8:	2b2b      	cmp	r3, #43	@ 0x2b
 80011da:	d112      	bne.n	8001202 <isTopicMatched+0x7c>
 80011dc:	693b      	ldr	r3, [r7, #16]
 80011de:	3301      	adds	r3, #1
 80011e0:	60fb      	str	r3, [r7, #12]
 80011e2:	e005      	b.n	80011f0 <isTopicMatched+0x6a>
 80011e4:	693b      	ldr	r3, [r7, #16]
 80011e6:	3301      	adds	r3, #1
 80011e8:	613b      	str	r3, [r7, #16]
 80011ea:	693b      	ldr	r3, [r7, #16]
 80011ec:	3301      	adds	r3, #1
 80011ee:	60fb      	str	r3, [r7, #12]
 80011f0:	68fa      	ldr	r2, [r7, #12]
 80011f2:	68bb      	ldr	r3, [r7, #8]
 80011f4:	429a      	cmp	r2, r3
 80011f6:	d20b      	bcs.n	8001210 <isTopicMatched+0x8a>
 80011f8:	68fb      	ldr	r3, [r7, #12]
 80011fa:	781b      	ldrb	r3, [r3, #0]
 80011fc:	2b2f      	cmp	r3, #47	@ 0x2f
 80011fe:	d1f1      	bne.n	80011e4 <isTopicMatched+0x5e>
 8001200:	e006      	b.n	8001210 <isTopicMatched+0x8a>
 8001202:	697b      	ldr	r3, [r7, #20]
 8001204:	781b      	ldrb	r3, [r3, #0]
 8001206:	2b23      	cmp	r3, #35	@ 0x23
 8001208:	d102      	bne.n	8001210 <isTopicMatched+0x8a>
 800120a:	68bb      	ldr	r3, [r7, #8]
 800120c:	3b01      	subs	r3, #1
 800120e:	613b      	str	r3, [r7, #16]
 8001210:	697b      	ldr	r3, [r7, #20]
 8001212:	3301      	adds	r3, #1
 8001214:	617b      	str	r3, [r7, #20]
 8001216:	693b      	ldr	r3, [r7, #16]
 8001218:	3301      	adds	r3, #1
 800121a:	613b      	str	r3, [r7, #16]
 800121c:	697b      	ldr	r3, [r7, #20]
 800121e:	781b      	ldrb	r3, [r3, #0]
 8001220:	2b00      	cmp	r3, #0
 8001222:	d007      	beq.n	8001234 <isTopicMatched+0xae>
 8001224:	693a      	ldr	r2, [r7, #16]
 8001226:	68bb      	ldr	r3, [r7, #8]
 8001228:	429a      	cmp	r2, r3
 800122a:	d3bd      	bcc.n	80011a8 <isTopicMatched+0x22>
 800122c:	e002      	b.n	8001234 <isTopicMatched+0xae>
 800122e:	bf00      	nop
 8001230:	e000      	b.n	8001234 <isTopicMatched+0xae>
 8001232:	bf00      	nop
 8001234:	693a      	ldr	r2, [r7, #16]
 8001236:	68bb      	ldr	r3, [r7, #8]
 8001238:	429a      	cmp	r2, r3
 800123a:	d105      	bne.n	8001248 <isTopicMatched+0xc2>
 800123c:	697b      	ldr	r3, [r7, #20]
 800123e:	781b      	ldrb	r3, [r3, #0]
 8001240:	2b00      	cmp	r3, #0
 8001242:	d101      	bne.n	8001248 <isTopicMatched+0xc2>
 8001244:	2301      	movs	r3, #1
 8001246:	e000      	b.n	800124a <isTopicMatched+0xc4>
 8001248:	2300      	movs	r3, #0
 800124a:	b2db      	uxtb	r3, r3
 800124c:	4618      	mov	r0, r3
 800124e:	371c      	adds	r7, #28
 8001250:	46bd      	mov	sp, r7
 8001252:	f85d 7b04 	ldr.w	r7, [sp], #4
 8001256:	4770      	bx	lr

08001258 <deliverMessage>:
 8001258:	b580      	push	{r7, lr}
 800125a:	b08a      	sub	sp, #40	@ 0x28
 800125c:	af00      	add	r7, sp, #0
 800125e:	60f8      	str	r0, [r7, #12]
 8001260:	60b9      	str	r1, [r7, #8]
 8001262:	607a      	str	r2, [r7, #4]
 8001264:	f04f 33ff 	mov.w	r3, #4294967295
 8001268:	623b      	str	r3, [r7, #32]
 800126a:	2300      	movs	r3, #0
 800126c:	627b      	str	r3, [r7, #36]	@ 0x24
 800126e:	e03c      	b.n	80012ea <deliverMessage+0x92>
 8001270:	68fb      	ldr	r3, [r7, #12]
 8001272:	6a7a      	ldr	r2, [r7, #36]	@ 0x24
 8001274:	3205      	adds	r2, #5
 8001276:	f853 3032 	ldr.w	r3, [r3, r2, lsl #3]
 800127a:	2b00      	cmp	r3, #0
 800127c:	d032      	beq.n	80012e4 <deliverMessage+0x8c>
 800127e:	68fb      	ldr	r3, [r7, #12]
 8001280:	6a7a      	ldr	r2, [r7, #36]	@ 0x24
 8001282:	3205      	adds	r2, #5
 8001284:	f853 3032 	ldr.w	r3, [r3, r2, lsl #3]
 8001288:	4619      	mov	r1, r3
 800128a:	68b8      	ldr	r0, [r7, #8]
 800128c:	f001 f8ec 	bl	8002468 <MQTTPacket_equals>
 8001290:	4603      	mov	r3, r0
 8001292:	2b00      	cmp	r3, #0
 8001294:	d10b      	bne.n	80012ae <deliverMessage+0x56>
 8001296:	68fb      	ldr	r3, [r7, #12]
 8001298:	6a7a      	ldr	r2, [r7, #36]	@ 0x24
 800129a:	3205      	adds	r2, #5
 800129c:	f853 3032 	ldr.w	r3, [r3, r2, lsl #3]
 80012a0:	68b9      	ldr	r1, [r7, #8]
 80012a2:	4618      	mov	r0, r3
 80012a4:	f7ff ff6f 	bl	8001186 <isTopicMatched>
 80012a8:	4603      	mov	r3, r0
 80012aa:	2b00      	cmp	r3, #0
 80012ac:	d01a      	beq.n	80012e4 <deliverMessage+0x8c>
 80012ae:	68fa      	ldr	r2, [r7, #12]
 80012b0:	6a7b      	ldr	r3, [r7, #36]	@ 0x24
 80012b2:	3305      	adds	r3, #5
 80012b4:	00db      	lsls	r3, r3, #3
 80012b6:	4413      	add	r3, r2
 80012b8:	685b      	ldr	r3, [r3, #4]
 80012ba:	2b00      	cmp	r3, #0
 80012bc:	d012      	beq.n	80012e4 <deliverMessage+0x8c>
 80012be:	f107 0318 	add.w	r3, r7, #24
 80012c2:	687a      	ldr	r2, [r7, #4]
 80012c4:	68b9      	ldr	r1, [r7, #8]
 80012c6:	4618      	mov	r0, r3
 80012c8:	f7ff fddc 	bl	8000e84 <NewMessageData>
 80012cc:	68fa      	ldr	r2, [r7, #12]
 80012ce:	6a7b      	ldr	r3, [r7, #36]	@ 0x24
 80012d0:	3305      	adds	r3, #5
 80012d2:	00db      	lsls	r3, r3, #3
 80012d4:	4413      	add	r3, r2
 80012d6:	685b      	ldr	r3, [r3, #4]
 80012d8:	f107 0218 	add.w	r2, r7, #24
 80012dc:	4610      	mov	r0, r2
 80012de:	4798      	blx	r3
 80012e0:	2300      	movs	r3, #0
 80012e2:	623b      	str	r3, [r7, #32]
 80012e4:	6a7b      	ldr	r3, [r7, #36]	@ 0x24
 80012e6:	3301      	adds	r3, #1
 80012e8:	627b      	str	r3, [r7, #36]	@ 0x24
 80012ea:	6a7b      	ldr	r3, [r7, #36]	@ 0x24
 80012ec:	2b04      	cmp	r3, #4
 80012ee:	ddbf      	ble.n	8001270 <deliverMessage+0x18>
 80012f0:	6a3b      	ldr	r3, [r7, #32]
 80012f2:	f1b3 3fff 	cmp.w	r3, #4294967295
 80012f6:	d112      	bne.n	800131e <deliverMessage+0xc6>
 80012f8:	68fb      	ldr	r3, [r7, #12]
 80012fa:	6d1b      	ldr	r3, [r3, #80]	@ 0x50
 80012fc:	2b00      	cmp	r3, #0
 80012fe:	d00e      	beq.n	800131e <deliverMessage+0xc6>
 8001300:	f107 0310 	add.w	r3, r7, #16
 8001304:	687a      	ldr	r2, [r7, #4]
 8001306:	68b9      	ldr	r1, [r7, #8]
 8001308:	4618      	mov	r0, r3
 800130a:	f7ff fdbb 	bl	8000e84 <NewMessageData>
 800130e:	68fb      	ldr	r3, [r7, #12]
 8001310:	6d1b      	ldr	r3, [r3, #80]	@ 0x50
 8001312:	f107 0210 	add.w	r2, r7, #16
 8001316:	4610      	mov	r0, r2
 8001318:	4798      	blx	r3
 800131a:	2300      	movs	r3, #0
 800131c:	623b      	str	r3, [r7, #32]
 800131e:	6a3b      	ldr	r3, [r7, #32]
 8001320:	4618      	mov	r0, r3
 8001322:	3728      	adds	r7, #40	@ 0x28
 8001324:	46bd      	mov	sp, r7
 8001326:	bd80      	pop	{r7, pc}

08001328 <keepalive>:
 8001328:	b580      	push	{r7, lr}
 800132a:	b086      	sub	sp, #24
 800132c:	af00      	add	r7, sp, #0
 800132e:	6078      	str	r0, [r7, #4]
 8001330:	2300      	movs	r3, #0
 8001332:	617b      	str	r3, [r7, #20]
 8001334:	687b      	ldr	r3, [r7, #4]
 8001336:	699b      	ldr	r3, [r3, #24]
 8001338:	2b00      	cmp	r3, #0
 800133a:	d03e      	beq.n	80013ba <keepalive+0x92>
 800133c:	687b      	ldr	r3, [r7, #4]
 800133e:	3358      	adds	r3, #88	@ 0x58
 8001340:	4618      	mov	r0, r3
 8001342:	f000 fb1b 	bl	800197c <TimerIsExpired>
 8001346:	4603      	mov	r3, r0
 8001348:	2b00      	cmp	r3, #0
 800134a:	d107      	bne.n	800135c <keepalive+0x34>
 800134c:	687b      	ldr	r3, [r7, #4]
 800134e:	3360      	adds	r3, #96	@ 0x60
 8001350:	4618      	mov	r0, r3
 8001352:	f000 fb13 	bl	800197c <TimerIsExpired>
 8001356:	4603      	mov	r3, r0
 8001358:	2b00      	cmp	r3, #0
 800135a:	d030      	beq.n	80013be <keepalive+0x96>
 800135c:	687b      	ldr	r3, [r7, #4]
 800135e:	7f1b      	ldrb	r3, [r3, #28]
 8001360:	2b00      	cmp	r3, #0
 8001362:	d003      	beq.n	800136c <keepalive+0x44>
 8001364:	f04f 33ff 	mov.w	r3, #4294967295
 8001368:	617b      	str	r3, [r7, #20]
 800136a:	e029      	b.n	80013c0 <keepalive+0x98>
 800136c:	f107 0308 	add.w	r3, r7, #8
 8001370:	4618      	mov	r0, r3
 8001372:	f000 faf5 	bl	8001960 <TimerInit>
 8001376:	f107 0308 	add.w	r3, r7, #8
 800137a:	f44f 717a 	mov.w	r1, #1000	@ 0x3e8
 800137e:	4618      	mov	r0, r3
 8001380:	f000 fb12 	bl	80019a8 <TimerCountdownMS>
 8001384:	687b      	ldr	r3, [r7, #4]
 8001386:	691a      	ldr	r2, [r3, #16]
 8001388:	687b      	ldr	r3, [r7, #4]
 800138a:	689b      	ldr	r3, [r3, #8]
 800138c:	4619      	mov	r1, r3
 800138e:	4610      	mov	r0, r2
 8001390:	f000 fdcf 	bl	8001f32 <MQTTSerialize_pingreq>
 8001394:	6138      	str	r0, [r7, #16]
 8001396:	693b      	ldr	r3, [r7, #16]
 8001398:	2b00      	cmp	r3, #0
 800139a:	dd11      	ble.n	80013c0 <keepalive+0x98>
 800139c:	f107 0308 	add.w	r3, r7, #8
 80013a0:	461a      	mov	r2, r3
 80013a2:	6939      	ldr	r1, [r7, #16]
 80013a4:	6878      	ldr	r0, [r7, #4]
 80013a6:	f7ff fd98 	bl	8000eda <sendPacket>
 80013aa:	6178      	str	r0, [r7, #20]
 80013ac:	697b      	ldr	r3, [r7, #20]
 80013ae:	2b00      	cmp	r3, #0
 80013b0:	d106      	bne.n	80013c0 <keepalive+0x98>
 80013b2:	687b      	ldr	r3, [r7, #4]
 80013b4:	2201      	movs	r2, #1
 80013b6:	771a      	strb	r2, [r3, #28]
 80013b8:	e002      	b.n	80013c0 <keepalive+0x98>
 80013ba:	bf00      	nop
 80013bc:	e000      	b.n	80013c0 <keepalive+0x98>
 80013be:	bf00      	nop
 80013c0:	697b      	ldr	r3, [r7, #20]
 80013c2:	4618      	mov	r0, r3
 80013c4:	3718      	adds	r7, #24
 80013c6:	46bd      	mov	sp, r7
 80013c8:	bd80      	pop	{r7, pc}

080013ca <MQTTCleanSession>:
 80013ca:	b480      	push	{r7}
 80013cc:	b085      	sub	sp, #20
 80013ce:	af00      	add	r7, sp, #0
 80013d0:	6078      	str	r0, [r7, #4]
 80013d2:	2300      	movs	r3, #0
 80013d4:	60fb      	str	r3, [r7, #12]
 80013d6:	2300      	movs	r3, #0
 80013d8:	60fb      	str	r3, [r7, #12]
 80013da:	e008      	b.n	80013ee <MQTTCleanSession+0x24>
 80013dc:	687b      	ldr	r3, [r7, #4]
 80013de:	68fa      	ldr	r2, [r7, #12]
 80013e0:	3205      	adds	r2, #5
 80013e2:	2100      	movs	r1, #0
 80013e4:	f843 1032 	str.w	r1, [r3, r2, lsl #3]
 80013e8:	68fb      	ldr	r3, [r7, #12]
 80013ea:	3301      	adds	r3, #1
 80013ec:	60fb      	str	r3, [r7, #12]
 80013ee:	68fb      	ldr	r3, [r7, #12]
 80013f0:	2b04      	cmp	r3, #4
 80013f2:	ddf3      	ble.n	80013dc <MQTTCleanSession+0x12>
 80013f4:	bf00      	nop
 80013f6:	bf00      	nop
 80013f8:	3714      	adds	r7, #20
 80013fa:	46bd      	mov	sp, r7
 80013fc:	f85d 7b04 	ldr.w	r7, [sp], #4
 8001400:	4770      	bx	lr

08001402 <MQTTCloseSession>:
 8001402:	b580      	push	{r7, lr}
 8001404:	b082      	sub	sp, #8
 8001406:	af00      	add	r7, sp, #0
 8001408:	6078      	str	r0, [r7, #4]
 800140a:	687b      	ldr	r3, [r7, #4]
 800140c:	2200      	movs	r2, #0
 800140e:	771a      	strb	r2, [r3, #28]
 8001410:	687b      	ldr	r3, [r7, #4]
 8001412:	2200      	movs	r2, #0
 8001414:	621a      	str	r2, [r3, #32]
 8001416:	687b      	ldr	r3, [r7, #4]
 8001418:	6a5b      	ldr	r3, [r3, #36]	@ 0x24
 800141a:	2b00      	cmp	r3, #0
 800141c:	d002      	beq.n	8001424 <MQTTCloseSession+0x22>
 800141e:	6878      	ldr	r0, [r7, #4]
 8001420:	f7ff ffd3 	bl	80013ca <MQTTCleanSession>
 8001424:	bf00      	nop
 8001426:	3708      	adds	r7, #8
 8001428:	46bd      	mov	sp, r7
 800142a:	bd80      	pop	{r7, pc}

0800142c <cycle>:
 800142c:	b5f0      	push	{r4, r5, r6, r7, lr}
 800142e:	b095      	sub	sp, #84	@ 0x54
 8001430:	af06      	add	r7, sp, #24
 8001432:	6078      	str	r0, [r7, #4]
 8001434:	6039      	str	r1, [r7, #0]
 8001436:	2300      	movs	r3, #0
 8001438:	637b      	str	r3, [r7, #52]	@ 0x34
 800143a:	2300      	movs	r3, #0
 800143c:	633b      	str	r3, [r7, #48]	@ 0x30
 800143e:	6839      	ldr	r1, [r7, #0]
 8001440:	6878      	ldr	r0, [r7, #4]
 8001442:	f7ff fe1c 	bl	800107e <readPacket>
 8001446:	62f8      	str	r0, [r7, #44]	@ 0x2c
 8001448:	6afb      	ldr	r3, [r7, #44]	@ 0x2c
 800144a:	2b0d      	cmp	r3, #13
 800144c:	d81e      	bhi.n	800148c <cycle+0x60>
 800144e:	a201      	add	r2, pc, #4	@ (adr r2, 8001454 <cycle+0x28>)
 8001450:	f852 f023 	ldr.w	pc, [r2, r3, lsl #2]
 8001454:	080015e3 	.word	0x080015e3
 8001458:	0800148d 	.word	0x0800148d
 800145c:	080015e3 	.word	0x080015e3
 8001460:	08001493 	.word	0x08001493
 8001464:	080015e3 	.word	0x080015e3
 8001468:	0800155f 	.word	0x0800155f
 800146c:	0800155f 	.word	0x0800155f
 8001470:	080015e3 	.word	0x080015e3
 8001474:	0800148d 	.word	0x0800148d
 8001478:	080015e3 	.word	0x080015e3
 800147c:	0800148d 	.word	0x0800148d
 8001480:	080015e3 	.word	0x080015e3
 8001484:	0800148d 	.word	0x0800148d
 8001488:	080015db 	.word	0x080015db
 800148c:	6afb      	ldr	r3, [r7, #44]	@ 0x2c
 800148e:	633b      	str	r3, [r7, #48]	@ 0x30
 8001490:	e0b9      	b.n	8001606 <cycle+0x1da>
 8001492:	2300      	movs	r3, #0
 8001494:	61fb      	str	r3, [r7, #28]
 8001496:	687b      	ldr	r3, [r7, #4]
 8001498:	695b      	ldr	r3, [r3, #20]
 800149a:	687a      	ldr	r2, [r7, #4]
 800149c:	68d2      	ldr	r2, [r2, #12]
 800149e:	4616      	mov	r6, r2
 80014a0:	f107 0210 	add.w	r2, r7, #16
 80014a4:	1d15      	adds	r5, r2, #4
 80014a6:	f107 0210 	add.w	r2, r7, #16
 80014aa:	1c54      	adds	r4, r2, #1
 80014ac:	f107 010c 	add.w	r1, r7, #12
 80014b0:	f107 0210 	add.w	r2, r7, #16
 80014b4:	1c90      	adds	r0, r2, #2
 80014b6:	9604      	str	r6, [sp, #16]
 80014b8:	9303      	str	r3, [sp, #12]
 80014ba:	f107 0310 	add.w	r3, r7, #16
 80014be:	330c      	adds	r3, #12
 80014c0:	9302      	str	r3, [sp, #8]
 80014c2:	f107 0310 	add.w	r3, r7, #16
 80014c6:	3308      	adds	r3, #8
 80014c8:	9301      	str	r3, [sp, #4]
 80014ca:	f107 0320 	add.w	r3, r7, #32
 80014ce:	9300      	str	r3, [sp, #0]
 80014d0:	462b      	mov	r3, r5
 80014d2:	4622      	mov	r2, r4
 80014d4:	f000 fd3c 	bl	8001f50 <MQTTDeserialize_publish>
 80014d8:	4603      	mov	r3, r0
 80014da:	2b01      	cmp	r3, #1
 80014dc:	f040 8090 	bne.w	8001600 <cycle+0x1d4>
 80014e0:	68fb      	ldr	r3, [r7, #12]
 80014e2:	b2db      	uxtb	r3, r3
 80014e4:	743b      	strb	r3, [r7, #16]
 80014e6:	f107 0210 	add.w	r2, r7, #16
 80014ea:	f107 0320 	add.w	r3, r7, #32
 80014ee:	4619      	mov	r1, r3
 80014f0:	6878      	ldr	r0, [r7, #4]
 80014f2:	f7ff feb1 	bl	8001258 <deliverMessage>
 80014f6:	7c3b      	ldrb	r3, [r7, #16]
 80014f8:	2b00      	cmp	r3, #0
 80014fa:	d074      	beq.n	80015e6 <cycle+0x1ba>
 80014fc:	7c3b      	ldrb	r3, [r7, #16]
 80014fe:	2b01      	cmp	r3, #1
 8001500:	d10c      	bne.n	800151c <cycle+0xf0>
 8001502:	687b      	ldr	r3, [r7, #4]
 8001504:	6918      	ldr	r0, [r3, #16]
 8001506:	687b      	ldr	r3, [r7, #4]
 8001508:	689b      	ldr	r3, [r3, #8]
 800150a:	4619      	mov	r1, r3
 800150c:	8abb      	ldrh	r3, [r7, #20]
 800150e:	9300      	str	r3, [sp, #0]
 8001510:	2300      	movs	r3, #0
 8001512:	2204      	movs	r2, #4
 8001514:	f001 f875 	bl	8002602 <MQTTSerialize_ack>
 8001518:	6378      	str	r0, [r7, #52]	@ 0x34
 800151a:	e00e      	b.n	800153a <cycle+0x10e>
 800151c:	7c3b      	ldrb	r3, [r7, #16]
 800151e:	2b02      	cmp	r3, #2
 8001520:	d10b      	bne.n	800153a <cycle+0x10e>
 8001522:	687b      	ldr	r3, [r7, #4]
 8001524:	6918      	ldr	r0, [r3, #16]
 8001526:	687b      	ldr	r3, [r7, #4]
 8001528:	689b      	ldr	r3, [r3, #8]
 800152a:	4619      	mov	r1, r3
 800152c:	8abb      	ldrh	r3, [r7, #20]
 800152e:	9300      	str	r3, [sp, #0]
 8001530:	2300      	movs	r3, #0
 8001532:	2205      	movs	r2, #5
 8001534:	f001 f865 	bl	8002602 <MQTTSerialize_ack>
 8001538:	6378      	str	r0, [r7, #52]	@ 0x34
 800153a:	6b7b      	ldr	r3, [r7, #52]	@ 0x34
 800153c:	2b00      	cmp	r3, #0
 800153e:	dc03      	bgt.n	8001548 <cycle+0x11c>
 8001540:	f04f 33ff 	mov.w	r3, #4294967295
 8001544:	633b      	str	r3, [r7, #48]	@ 0x30
 8001546:	e005      	b.n	8001554 <cycle+0x128>
 8001548:	683a      	ldr	r2, [r7, #0]
 800154a:	6b79      	ldr	r1, [r7, #52]	@ 0x34
 800154c:	6878      	ldr	r0, [r7, #4]
 800154e:	f7ff fcc4 	bl	8000eda <sendPacket>
 8001552:	6338      	str	r0, [r7, #48]	@ 0x30
 8001554:	6b3b      	ldr	r3, [r7, #48]	@ 0x30
 8001556:	f1b3 3fff 	cmp.w	r3, #4294967295
 800155a:	d144      	bne.n	80015e6 <cycle+0x1ba>
 800155c:	e053      	b.n	8001606 <cycle+0x1da>
 800155e:	687b      	ldr	r3, [r7, #4]
 8001560:	695c      	ldr	r4, [r3, #20]
 8001562:	687b      	ldr	r3, [r7, #4]
 8001564:	68db      	ldr	r3, [r3, #12]
 8001566:	f107 020a 	add.w	r2, r7, #10
 800156a:	f107 0109 	add.w	r1, r7, #9
 800156e:	f107 0008 	add.w	r0, r7, #8
 8001572:	9300      	str	r3, [sp, #0]
 8001574:	4623      	mov	r3, r4
 8001576:	f000 fd5d 	bl	8002034 <MQTTDeserialize_ack>
 800157a:	4603      	mov	r3, r0
 800157c:	2b01      	cmp	r3, #1
 800157e:	d003      	beq.n	8001588 <cycle+0x15c>
 8001580:	f04f 33ff 	mov.w	r3, #4294967295
 8001584:	633b      	str	r3, [r7, #48]	@ 0x30
 8001586:	e023      	b.n	80015d0 <cycle+0x1a4>
 8001588:	687b      	ldr	r3, [r7, #4]
 800158a:	6918      	ldr	r0, [r3, #16]
 800158c:	687b      	ldr	r3, [r7, #4]
 800158e:	689b      	ldr	r3, [r3, #8]
 8001590:	4619      	mov	r1, r3
 8001592:	6afb      	ldr	r3, [r7, #44]	@ 0x2c
 8001594:	2b05      	cmp	r3, #5
 8001596:	d101      	bne.n	800159c <cycle+0x170>
 8001598:	2206      	movs	r2, #6
 800159a:	e000      	b.n	800159e <cycle+0x172>
 800159c:	2207      	movs	r2, #7
 800159e:	897b      	ldrh	r3, [r7, #10]
 80015a0:	9300      	str	r3, [sp, #0]
 80015a2:	2300      	movs	r3, #0
 80015a4:	f001 f82d 	bl	8002602 <MQTTSerialize_ack>
 80015a8:	6378      	str	r0, [r7, #52]	@ 0x34
 80015aa:	6b7b      	ldr	r3, [r7, #52]	@ 0x34
 80015ac:	2b00      	cmp	r3, #0
 80015ae:	dc03      	bgt.n	80015b8 <cycle+0x18c>
 80015b0:	f04f 33ff 	mov.w	r3, #4294967295
 80015b4:	633b      	str	r3, [r7, #48]	@ 0x30
 80015b6:	e00b      	b.n	80015d0 <cycle+0x1a4>
 80015b8:	683a      	ldr	r2, [r7, #0]
 80015ba:	6b79      	ldr	r1, [r7, #52]	@ 0x34
 80015bc:	6878      	ldr	r0, [r7, #4]
 80015be:	f7ff fc8c 	bl	8000eda <sendPacket>
 80015c2:	6338      	str	r0, [r7, #48]	@ 0x30
 80015c4:	6b3b      	ldr	r3, [r7, #48]	@ 0x30
 80015c6:	2b00      	cmp	r3, #0
 80015c8:	d002      	beq.n	80015d0 <cycle+0x1a4>
 80015ca:	f04f 33ff 	mov.w	r3, #4294967295
 80015ce:	633b      	str	r3, [r7, #48]	@ 0x30
 80015d0:	6b3b      	ldr	r3, [r7, #48]	@ 0x30
 80015d2:	f1b3 3fff 	cmp.w	r3, #4294967295
 80015d6:	d108      	bne.n	80015ea <cycle+0x1be>
 80015d8:	e015      	b.n	8001606 <cycle+0x1da>
 80015da:	687b      	ldr	r3, [r7, #4]
 80015dc:	2200      	movs	r2, #0
 80015de:	771a      	strb	r2, [r3, #28]
 80015e0:	e004      	b.n	80015ec <cycle+0x1c0>
 80015e2:	bf00      	nop
 80015e4:	e002      	b.n	80015ec <cycle+0x1c0>
 80015e6:	bf00      	nop
 80015e8:	e000      	b.n	80015ec <cycle+0x1c0>
 80015ea:	bf00      	nop
 80015ec:	6878      	ldr	r0, [r7, #4]
 80015ee:	f7ff fe9b 	bl	8001328 <keepalive>
 80015f2:	4603      	mov	r3, r0
 80015f4:	2b00      	cmp	r3, #0
 80015f6:	d005      	beq.n	8001604 <cycle+0x1d8>
 80015f8:	f04f 33ff 	mov.w	r3, #4294967295
 80015fc:	633b      	str	r3, [r7, #48]	@ 0x30
 80015fe:	e002      	b.n	8001606 <cycle+0x1da>
 8001600:	bf00      	nop
 8001602:	e000      	b.n	8001606 <cycle+0x1da>
 8001604:	bf00      	nop
 8001606:	6b3b      	ldr	r3, [r7, #48]	@ 0x30
 8001608:	2b00      	cmp	r3, #0
 800160a:	d102      	bne.n	8001612 <cycle+0x1e6>
 800160c:	6afb      	ldr	r3, [r7, #44]	@ 0x2c
 800160e:	633b      	str	r3, [r7, #48]	@ 0x30
 8001610:	e006      	b.n	8001620 <cycle+0x1f4>
 8001612:	687b      	ldr	r3, [r7, #4]
 8001614:	6a1b      	ldr	r3, [r3, #32]
 8001616:	2b00      	cmp	r3, #0
 8001618:	d002      	beq.n	8001620 <cycle+0x1f4>
 800161a:	6878      	ldr	r0, [r7, #4]
 800161c:	f7ff fef1 	bl	8001402 <MQTTCloseSession>
 8001620:	6b3b      	ldr	r3, [r7, #48]	@ 0x30
 8001622:	4618      	mov	r0, r3
 8001624:	373c      	adds	r7, #60	@ 0x3c
 8001626:	46bd      	mov	sp, r7
 8001628:	bdf0      	pop	{r4, r5, r6, r7, pc}
 800162a:	bf00      	nop

0800162c <waitfor>:
 800162c:	b580      	push	{r7, lr}
 800162e:	b086      	sub	sp, #24
 8001630:	af00      	add	r7, sp, #0
 8001632:	60f8      	str	r0, [r7, #12]
 8001634:	60b9      	str	r1, [r7, #8]
 8001636:	607a      	str	r2, [r7, #4]
 8001638:	f04f 33ff 	mov.w	r3, #4294967295
 800163c:	617b      	str	r3, [r7, #20]
 800163e:	6878      	ldr	r0, [r7, #4]
 8001640:	f000 f99c 	bl	800197c <TimerIsExpired>
 8001644:	4603      	mov	r3, r0
 8001646:	2b00      	cmp	r3, #0
 8001648:	d10c      	bne.n	8001664 <waitfor+0x38>
 800164a:	6879      	ldr	r1, [r7, #4]
 800164c:	68f8      	ldr	r0, [r7, #12]
 800164e:	f7ff feed 	bl	800142c <cycle>
 8001652:	6178      	str	r0, [r7, #20]
 8001654:	697a      	ldr	r2, [r7, #20]
 8001656:	68bb      	ldr	r3, [r7, #8]
 8001658:	429a      	cmp	r2, r3
 800165a:	d004      	beq.n	8001666 <waitfor+0x3a>
 800165c:	697b      	ldr	r3, [r7, #20]
 800165e:	2b00      	cmp	r3, #0
 8001660:	daed      	bge.n	800163e <waitfor+0x12>
 8001662:	e000      	b.n	8001666 <waitfor+0x3a>
 8001664:	bf00      	nop
 8001666:	697b      	ldr	r3, [r7, #20]
 8001668:	4618      	mov	r0, r3
 800166a:	3718      	adds	r7, #24
 800166c:	46bd      	mov	sp, r7
 800166e:	bd80      	pop	{r7, pc}

08001670 <MQTTConnectWithResults>:
 8001670:	b580      	push	{r7, lr}
 8001672:	b09e      	sub	sp, #120	@ 0x78
 8001674:	af00      	add	r7, sp, #0
 8001676:	60f8      	str	r0, [r7, #12]
 8001678:	60b9      	str	r1, [r7, #8]
 800167a:	607a      	str	r2, [r7, #4]
 800167c:	f04f 33ff 	mov.w	r3, #4294967295
 8001680:	677b      	str	r3, [r7, #116]	@ 0x74
 8001682:	4a43      	ldr	r2, [pc, #268]	@ (8001790 <MQTTConnectWithResults+0x120>)
 8001684:	f107 0310 	add.w	r3, r7, #16
 8001688:	4611      	mov	r1, r2
 800168a:	2258      	movs	r2, #88	@ 0x58
 800168c:	4618      	mov	r0, r3
 800168e:	f005 fbc0 	bl	8006e12 <memcpy>
 8001692:	2300      	movs	r3, #0
 8001694:	673b      	str	r3, [r7, #112]	@ 0x70
 8001696:	68fb      	ldr	r3, [r7, #12]
 8001698:	6a1b      	ldr	r3, [r3, #32]
 800169a:	2b00      	cmp	r3, #0
 800169c:	d164      	bne.n	8001768 <MQTTConnectWithResults+0xf8>
 800169e:	f107 0368 	add.w	r3, r7, #104	@ 0x68
 80016a2:	4618      	mov	r0, r3
 80016a4:	f000 f95c 	bl	8001960 <TimerInit>
 80016a8:	68fb      	ldr	r3, [r7, #12]
 80016aa:	685a      	ldr	r2, [r3, #4]
 80016ac:	f107 0368 	add.w	r3, r7, #104	@ 0x68
 80016b0:	4611      	mov	r1, r2
 80016b2:	4618      	mov	r0, r3
 80016b4:	f000 f978 	bl	80019a8 <TimerCountdownMS>
 80016b8:	68bb      	ldr	r3, [r7, #8]
 80016ba:	2b00      	cmp	r3, #0
 80016bc:	d102      	bne.n	80016c4 <MQTTConnectWithResults+0x54>
 80016be:	f107 0310 	add.w	r3, r7, #16
 80016c2:	60bb      	str	r3, [r7, #8]
 80016c4:	68bb      	ldr	r3, [r7, #8]
 80016c6:	8b1b      	ldrh	r3, [r3, #24]
 80016c8:	461a      	mov	r2, r3
 80016ca:	68fb      	ldr	r3, [r7, #12]
 80016cc:	619a      	str	r2, [r3, #24]
 80016ce:	68bb      	ldr	r3, [r7, #8]
 80016d0:	7e9b      	ldrb	r3, [r3, #26]
 80016d2:	461a      	mov	r2, r3
 80016d4:	68fb      	ldr	r3, [r7, #12]
 80016d6:	625a      	str	r2, [r3, #36]	@ 0x24
 80016d8:	68fb      	ldr	r3, [r7, #12]
 80016da:	f103 0260 	add.w	r2, r3, #96	@ 0x60
 80016de:	68fb      	ldr	r3, [r7, #12]
 80016e0:	699b      	ldr	r3, [r3, #24]
 80016e2:	4619      	mov	r1, r3
 80016e4:	4610      	mov	r0, r2
 80016e6:	f000 f973 	bl	80019d0 <TimerCountdown>
 80016ea:	68fb      	ldr	r3, [r7, #12]
 80016ec:	6918      	ldr	r0, [r3, #16]
 80016ee:	68fb      	ldr	r3, [r7, #12]
 80016f0:	689b      	ldr	r3, [r3, #8]
 80016f2:	68ba      	ldr	r2, [r7, #8]
 80016f4:	4619      	mov	r1, r3
 80016f6:	f000 faa3 	bl	8001c40 <MQTTSerialize_connect>
 80016fa:	6738      	str	r0, [r7, #112]	@ 0x70
 80016fc:	6f3b      	ldr	r3, [r7, #112]	@ 0x70
 80016fe:	2b00      	cmp	r3, #0
 8001700:	dd34      	ble.n	800176c <MQTTConnectWithResults+0xfc>
 8001702:	f107 0368 	add.w	r3, r7, #104	@ 0x68
 8001706:	461a      	mov	r2, r3
 8001708:	6f39      	ldr	r1, [r7, #112]	@ 0x70
 800170a:	68f8      	ldr	r0, [r7, #12]
 800170c:	f7ff fbe5 	bl	8000eda <sendPacket>
 8001710:	6778      	str	r0, [r7, #116]	@ 0x74
 8001712:	6f7b      	ldr	r3, [r7, #116]	@ 0x74
 8001714:	2b00      	cmp	r3, #0
 8001716:	d12b      	bne.n	8001770 <MQTTConnectWithResults+0x100>
 8001718:	f107 0368 	add.w	r3, r7, #104	@ 0x68
 800171c:	461a      	mov	r2, r3
 800171e:	2102      	movs	r1, #2
 8001720:	68f8      	ldr	r0, [r7, #12]
 8001722:	f7ff ff83 	bl	800162c <waitfor>
 8001726:	4603      	mov	r3, r0
 8001728:	2b02      	cmp	r3, #2
 800172a:	d119      	bne.n	8001760 <MQTTConnectWithResults+0xf0>
 800172c:	687b      	ldr	r3, [r7, #4]
 800172e:	2200      	movs	r2, #0
 8001730:	701a      	strb	r2, [r3, #0]
 8001732:	687b      	ldr	r3, [r7, #4]
 8001734:	2200      	movs	r2, #0
 8001736:	705a      	strb	r2, [r3, #1]
 8001738:	687b      	ldr	r3, [r7, #4]
 800173a:	1c58      	adds	r0, r3, #1
 800173c:	6879      	ldr	r1, [r7, #4]
 800173e:	68fb      	ldr	r3, [r7, #12]
 8001740:	695a      	ldr	r2, [r3, #20]
 8001742:	68fb      	ldr	r3, [r7, #12]
 8001744:	68db      	ldr	r3, [r3, #12]
 8001746:	f000 fb67 	bl	8001e18 <MQTTDeserialize_connack>
 800174a:	4603      	mov	r3, r0
 800174c:	2b01      	cmp	r3, #1
 800174e:	d103      	bne.n	8001758 <MQTTConnectWithResults+0xe8>
 8001750:	687b      	ldr	r3, [r7, #4]
 8001752:	781b      	ldrb	r3, [r3, #0]
 8001754:	677b      	str	r3, [r7, #116]	@ 0x74
 8001756:	e00c      	b.n	8001772 <MQTTConnectWithResults+0x102>
 8001758:	f04f 33ff 	mov.w	r3, #4294967295
 800175c:	677b      	str	r3, [r7, #116]	@ 0x74
 800175e:	e008      	b.n	8001772 <MQTTConnectWithResults+0x102>
 8001760:	f04f 33ff 	mov.w	r3, #4294967295
 8001764:	677b      	str	r3, [r7, #116]	@ 0x74
 8001766:	e004      	b.n	8001772 <MQTTConnectWithResults+0x102>
 8001768:	bf00      	nop
 800176a:	e002      	b.n	8001772 <MQTTConnectWithResults+0x102>
 800176c:	bf00      	nop
 800176e:	e000      	b.n	8001772 <MQTTConnectWithResults+0x102>
 8001770:	bf00      	nop
 8001772:	6f7b      	ldr	r3, [r7, #116]	@ 0x74
 8001774:	2b00      	cmp	r3, #0
 8001776:	d105      	bne.n	8001784 <MQTTConnectWithResults+0x114>
 8001778:	68fb      	ldr	r3, [r7, #12]
 800177a:	2201      	movs	r2, #1
 800177c:	621a      	str	r2, [r3, #32]
 800177e:	68fb      	ldr	r3, [r7, #12]
 8001780:	2200      	movs	r2, #0
 8001782:	771a      	strb	r2, [r3, #28]
 8001784:	6f7b      	ldr	r3, [r7, #116]	@ 0x74
 8001786:	4618      	mov	r0, r3
 8001788:	3778      	adds	r7, #120	@ 0x78
 800178a:	46bd      	mov	sp, r7
 800178c:	bd80      	pop	{r7, pc}
 800178e:	bf00      	nop
 8001790:	08007ab8 	.word	0x08007ab8

08001794 <MQTTConnect>:
 8001794:	b580      	push	{r7, lr}
 8001796:	b084      	sub	sp, #16
 8001798:	af00      	add	r7, sp, #0
 800179a:	6078      	str	r0, [r7, #4]
 800179c:	6039      	str	r1, [r7, #0]
 800179e:	f107 030c 	add.w	r3, r7, #12
 80017a2:	461a      	mov	r2, r3
 80017a4:	6839      	ldr	r1, [r7, #0]
 80017a6:	6878      	ldr	r0, [r7, #4]
 80017a8:	f7ff ff62 	bl	8001670 <MQTTConnectWithResults>
 80017ac:	4603      	mov	r3, r0
 80017ae:	4618      	mov	r0, r3
 80017b0:	3710      	adds	r7, #16
 80017b2:	46bd      	mov	sp, r7
 80017b4:	bd80      	pop	{r7, pc}

080017b6 <MQTTPublish>:
 80017b6:	b5f0      	push	{r4, r5, r6, r7, lr}
 80017b8:	b097      	sub	sp, #92	@ 0x5c
 80017ba:	af08      	add	r7, sp, #32
 80017bc:	60f8      	str	r0, [r7, #12]
 80017be:	60b9      	str	r1, [r7, #8]
 80017c0:	607a      	str	r2, [r7, #4]
 80017c2:	f04f 33ff 	mov.w	r3, #4294967295
 80017c6:	637b      	str	r3, [r7, #52]	@ 0x34
 80017c8:	2300      	movs	r3, #0
 80017ca:	61fb      	str	r3, [r7, #28]
 80017cc:	2300      	movs	r3, #0
 80017ce:	623b      	str	r3, [r7, #32]
 80017d0:	2300      	movs	r3, #0
 80017d2:	627b      	str	r3, [r7, #36]	@ 0x24
 80017d4:	68bb      	ldr	r3, [r7, #8]
 80017d6:	61fb      	str	r3, [r7, #28]
 80017d8:	2300      	movs	r3, #0
 80017da:	633b      	str	r3, [r7, #48]	@ 0x30
 80017dc:	68fb      	ldr	r3, [r7, #12]
 80017de:	6a1b      	ldr	r3, [r3, #32]
 80017e0:	2b00      	cmp	r3, #0
 80017e2:	f000 809b 	beq.w	800191c <MQTTPublish+0x166>
 80017e6:	f107 0328 	add.w	r3, r7, #40	@ 0x28
 80017ea:	4618      	mov	r0, r3
 80017ec:	f000 f8b8 	bl	8001960 <TimerInit>
 80017f0:	68fb      	ldr	r3, [r7, #12]
 80017f2:	685a      	ldr	r2, [r3, #4]
 80017f4:	f107 0328 	add.w	r3, r7, #40	@ 0x28
 80017f8:	4611      	mov	r1, r2
 80017fa:	4618      	mov	r0, r3
 80017fc:	f000 f8d4 	bl	80019a8 <TimerCountdownMS>
 8001800:	687b      	ldr	r3, [r7, #4]
 8001802:	781b      	ldrb	r3, [r3, #0]
 8001804:	2b01      	cmp	r3, #1
 8001806:	d003      	beq.n	8001810 <MQTTPublish+0x5a>
 8001808:	687b      	ldr	r3, [r7, #4]
 800180a:	781b      	ldrb	r3, [r3, #0]
 800180c:	2b02      	cmp	r3, #2
 800180e:	d106      	bne.n	800181e <MQTTPublish+0x68>
 8001810:	68f8      	ldr	r0, [r7, #12]
 8001812:	f7ff fb49 	bl	8000ea8 <getNextPacketId>
 8001816:	4603      	mov	r3, r0
 8001818:	b29a      	uxth	r2, r3
 800181a:	687b      	ldr	r3, [r7, #4]
 800181c:	809a      	strh	r2, [r3, #4]
 800181e:	68fb      	ldr	r3, [r7, #12]
 8001820:	691b      	ldr	r3, [r3, #16]
 8001822:	603b      	str	r3, [r7, #0]
 8001824:	68fb      	ldr	r3, [r7, #12]
 8001826:	689b      	ldr	r3, [r3, #8]
 8001828:	469c      	mov	ip, r3
 800182a:	687b      	ldr	r3, [r7, #4]
 800182c:	781b      	ldrb	r3, [r3, #0]
 800182e:	469e      	mov	lr, r3
 8001830:	687b      	ldr	r3, [r7, #4]
 8001832:	785d      	ldrb	r5, [r3, #1]
 8001834:	687b      	ldr	r3, [r7, #4]
 8001836:	889e      	ldrh	r6, [r3, #4]
 8001838:	687b      	ldr	r3, [r7, #4]
 800183a:	689b      	ldr	r3, [r3, #8]
 800183c:	687a      	ldr	r2, [r7, #4]
 800183e:	68d2      	ldr	r2, [r2, #12]
 8001840:	9206      	str	r2, [sp, #24]
 8001842:	9305      	str	r3, [sp, #20]
 8001844:	ac02      	add	r4, sp, #8
 8001846:	f107 031c 	add.w	r3, r7, #28
 800184a:	e893 0007 	ldmia.w	r3, {r0, r1, r2}
 800184e:	e884 0007 	stmia.w	r4, {r0, r1, r2}
 8001852:	9601      	str	r6, [sp, #4]
 8001854:	9500      	str	r5, [sp, #0]
 8001856:	4673      	mov	r3, lr
 8001858:	2200      	movs	r2, #0
 800185a:	4661      	mov	r1, ip
 800185c:	6838      	ldr	r0, [r7, #0]
 800185e:	f000 fe5a 	bl	8002516 <MQTTSerialize_publish>
 8001862:	6338      	str	r0, [r7, #48]	@ 0x30
 8001864:	6b3b      	ldr	r3, [r7, #48]	@ 0x30
 8001866:	2b00      	cmp	r3, #0
 8001868:	dd5a      	ble.n	8001920 <MQTTPublish+0x16a>
 800186a:	f107 0328 	add.w	r3, r7, #40	@ 0x28
 800186e:	461a      	mov	r2, r3
 8001870:	6b39      	ldr	r1, [r7, #48]	@ 0x30
 8001872:	68f8      	ldr	r0, [r7, #12]
 8001874:	f7ff fb31 	bl	8000eda <sendPacket>
 8001878:	6378      	str	r0, [r7, #52]	@ 0x34
 800187a:	6b7b      	ldr	r3, [r7, #52]	@ 0x34
 800187c:	2b00      	cmp	r3, #0
 800187e:	d151      	bne.n	8001924 <MQTTPublish+0x16e>
 8001880:	687b      	ldr	r3, [r7, #4]
 8001882:	781b      	ldrb	r3, [r3, #0]
 8001884:	2b01      	cmp	r3, #1
 8001886:	d122      	bne.n	80018ce <MQTTPublish+0x118>
 8001888:	f107 0328 	add.w	r3, r7, #40	@ 0x28
 800188c:	461a      	mov	r2, r3
 800188e:	2104      	movs	r1, #4
 8001890:	68f8      	ldr	r0, [r7, #12]
 8001892:	f7ff fecb 	bl	800162c <waitfor>
 8001896:	4603      	mov	r3, r0
 8001898:	2b04      	cmp	r3, #4
 800189a:	d114      	bne.n	80018c6 <MQTTPublish+0x110>
 800189c:	68fb      	ldr	r3, [r7, #12]
 800189e:	695c      	ldr	r4, [r3, #20]
 80018a0:	68fb      	ldr	r3, [r7, #12]
 80018a2:	68db      	ldr	r3, [r3, #12]
 80018a4:	f107 021a 	add.w	r2, r7, #26
 80018a8:	f107 0119 	add.w	r1, r7, #25
 80018ac:	f107 0018 	add.w	r0, r7, #24
 80018b0:	9300      	str	r3, [sp, #0]
 80018b2:	4623      	mov	r3, r4
 80018b4:	f000 fbbe 	bl	8002034 <MQTTDeserialize_ack>
 80018b8:	4603      	mov	r3, r0
 80018ba:	2b01      	cmp	r3, #1
 80018bc:	d035      	beq.n	800192a <MQTTPublish+0x174>
 80018be:	f04f 33ff 	mov.w	r3, #4294967295
 80018c2:	637b      	str	r3, [r7, #52]	@ 0x34
 80018c4:	e031      	b.n	800192a <MQTTPublish+0x174>
 80018c6:	f04f 33ff 	mov.w	r3, #4294967295
 80018ca:	637b      	str	r3, [r7, #52]	@ 0x34
 80018cc:	e02d      	b.n	800192a <MQTTPublish+0x174>
 80018ce:	687b      	ldr	r3, [r7, #4]
 80018d0:	781b      	ldrb	r3, [r3, #0]
 80018d2:	2b02      	cmp	r3, #2
 80018d4:	d128      	bne.n	8001928 <MQTTPublish+0x172>
 80018d6:	f107 0328 	add.w	r3, r7, #40	@ 0x28
 80018da:	461a      	mov	r2, r3
 80018dc:	2107      	movs	r1, #7
 80018de:	68f8      	ldr	r0, [r7, #12]
 80018e0:	f7ff fea4 	bl	800162c <waitfor>
 80018e4:	4603      	mov	r3, r0
 80018e6:	2b07      	cmp	r3, #7
 80018e8:	d114      	bne.n	8001914 <MQTTPublish+0x15e>
 80018ea:	68fb      	ldr	r3, [r7, #12]
 80018ec:	695c      	ldr	r4, [r3, #20]
 80018ee:	68fb      	ldr	r3, [r7, #12]
 80018f0:	68db      	ldr	r3, [r3, #12]
 80018f2:	f107 0216 	add.w	r2, r7, #22
 80018f6:	f107 0115 	add.w	r1, r7, #21
 80018fa:	f107 0014 	add.w	r0, r7, #20
 80018fe:	9300      	str	r3, [sp, #0]
 8001900:	4623      	mov	r3, r4
 8001902:	f000 fb97 	bl	8002034 <MQTTDeserialize_ack>
 8001906:	4603      	mov	r3, r0
 8001908:	2b01      	cmp	r3, #1
 800190a:	d00e      	beq.n	800192a <MQTTPublish+0x174>
 800190c:	f04f 33ff 	mov.w	r3, #4294967295
 8001910:	637b      	str	r3, [r7, #52]	@ 0x34
 8001912:	e00a      	b.n	800192a <MQTTPublish+0x174>
 8001914:	f04f 33ff 	mov.w	r3, #4294967295
 8001918:	637b      	str	r3, [r7, #52]	@ 0x34
 800191a:	e006      	b.n	800192a <MQTTPublish+0x174>
 800191c:	bf00      	nop
 800191e:	e004      	b.n	800192a <MQTTPublish+0x174>
 8001920:	bf00      	nop
 8001922:	e002      	b.n	800192a <MQTTPublish+0x174>
 8001924:	bf00      	nop
 8001926:	e000      	b.n	800192a <MQTTPublish+0x174>
 8001928:	bf00      	nop
 800192a:	6b7b      	ldr	r3, [r7, #52]	@ 0x34
 800192c:	f1b3 3fff 	cmp.w	r3, #4294967295
 8001930:	d102      	bne.n	8001938 <MQTTPublish+0x182>
 8001932:	68f8      	ldr	r0, [r7, #12]
 8001934:	f7ff fd65 	bl	8001402 <MQTTCloseSession>
 8001938:	6b7b      	ldr	r3, [r7, #52]	@ 0x34
 800193a:	4618      	mov	r0, r3
 800193c:	373c      	adds	r7, #60	@ 0x3c
 800193e:	46bd      	mov	sp, r7
 8001940:	bdf0      	pop	{r4, r5, r6, r7, pc}
	...

08001944 <MilliTimer_Handler>:
 8001944:	b480      	push	{r7}
 8001946:	af00      	add	r7, sp, #0
 8001948:	4b04      	ldr	r3, [pc, #16]	@ (800195c <MilliTimer_Handler+0x18>)
 800194a:	681b      	ldr	r3, [r3, #0]
 800194c:	3301      	adds	r3, #1
 800194e:	4a03      	ldr	r2, [pc, #12]	@ (800195c <MilliTimer_Handler+0x18>)
 8001950:	6013      	str	r3, [r2, #0]
 8001952:	bf00      	nop
 8001954:	46bd      	mov	sp, r7
 8001956:	f85d 7b04 	ldr.w	r7, [sp], #4
 800195a:	4770      	bx	lr
 800195c:	200004b4 	.word	0x200004b4

08001960 <TimerInit>:
 8001960:	b480      	push	{r7}
 8001962:	b083      	sub	sp, #12
 8001964:	af00      	add	r7, sp, #0
 8001966:	6078      	str	r0, [r7, #4]
 8001968:	687b      	ldr	r3, [r7, #4]
 800196a:	2200      	movs	r2, #0
 800196c:	605a      	str	r2, [r3, #4]
 800196e:	bf00      	nop
 8001970:	370c      	adds	r7, #12
 8001972:	46bd      	mov	sp, r7
 8001974:	f85d 7b04 	ldr.w	r7, [sp], #4
 8001978:	4770      	bx	lr
	...

0800197c <TimerIsExpired>:
 800197c:	b480      	push	{r7}
 800197e:	b085      	sub	sp, #20
 8001980:	af00      	add	r7, sp, #0
 8001982:	6078      	str	r0, [r7, #4]
 8001984:	687b      	ldr	r3, [r7, #4]
 8001986:	685a      	ldr	r2, [r3, #4]
 8001988:	4b06      	ldr	r3, [pc, #24]	@ (80019a4 <TimerIsExpired+0x28>)
 800198a:	681b      	ldr	r3, [r3, #0]
 800198c:	1ad3      	subs	r3, r2, r3
 800198e:	60fb      	str	r3, [r7, #12]
 8001990:	68fb      	ldr	r3, [r7, #12]
 8001992:	0fdb      	lsrs	r3, r3, #31
 8001994:	b2db      	uxtb	r3, r3
 8001996:	4618      	mov	r0, r3
 8001998:	3714      	adds	r7, #20
 800199a:	46bd      	mov	sp, r7
 800199c:	f85d 7b04 	ldr.w	r7, [sp], #4
 80019a0:	4770      	bx	lr
 80019a2:	bf00      	nop
 80019a4:	200004b4 	.word	0x200004b4

080019a8 <TimerCountdownMS>:
 80019a8:	b480      	push	{r7}
 80019aa:	b083      	sub	sp, #12
 80019ac:	af00      	add	r7, sp, #0
 80019ae:	6078      	str	r0, [r7, #4]
 80019b0:	6039      	str	r1, [r7, #0]
 80019b2:	4b06      	ldr	r3, [pc, #24]	@ (80019cc <TimerCountdownMS+0x24>)
 80019b4:	681a      	ldr	r2, [r3, #0]
 80019b6:	683b      	ldr	r3, [r7, #0]
 80019b8:	441a      	add	r2, r3
 80019ba:	687b      	ldr	r3, [r7, #4]
 80019bc:	605a      	str	r2, [r3, #4]
 80019be:	bf00      	nop
 80019c0:	370c      	adds	r7, #12
 80019c2:	46bd      	mov	sp, r7
 80019c4:	f85d 7b04 	ldr.w	r7, [sp], #4
 80019c8:	4770      	bx	lr
 80019ca:	bf00      	nop
 80019cc:	200004b4 	.word	0x200004b4

080019d0 <TimerCountdown>:
 80019d0:	b480      	push	{r7}
 80019d2:	b083      	sub	sp, #12
 80019d4:	af00      	add	r7, sp, #0
 80019d6:	6078      	str	r0, [r7, #4]
 80019d8:	6039      	str	r1, [r7, #0]
 80019da:	683b      	ldr	r3, [r7, #0]
 80019dc:	f44f 727a 	mov.w	r2, #1000	@ 0x3e8
 80019e0:	fb03 f202 	mul.w	r2, r3, r2
 80019e4:	4b05      	ldr	r3, [pc, #20]	@ (80019fc <TimerCountdown+0x2c>)
 80019e6:	681b      	ldr	r3, [r3, #0]
 80019e8:	441a      	add	r2, r3
 80019ea:	687b      	ldr	r3, [r7, #4]
 80019ec:	605a      	str	r2, [r3, #4]
 80019ee:	bf00      	nop
 80019f0:	370c      	adds	r7, #12
 80019f2:	46bd      	mov	sp, r7
 80019f4:	f85d 7b04 	ldr.w	r7, [sp], #4
 80019f8:	4770      	bx	lr
 80019fa:	bf00      	nop
 80019fc:	200004b4 	.word	0x200004b4

08001a00 <TimerLeftMS>:
 8001a00:	b480      	push	{r7}
 8001a02:	b085      	sub	sp, #20
 8001a04:	af00      	add	r7, sp, #0
 8001a06:	6078      	str	r0, [r7, #4]
 8001a08:	687b      	ldr	r3, [r7, #4]
 8001a0a:	685a      	ldr	r2, [r3, #4]
 8001a0c:	4b06      	ldr	r3, [pc, #24]	@ (8001a28 <TimerLeftMS+0x28>)
 8001a0e:	681b      	ldr	r3, [r3, #0]
 8001a10:	1ad3      	subs	r3, r2, r3
 8001a12:	60fb      	str	r3, [r7, #12]
 8001a14:	68fb      	ldr	r3, [r7, #12]
 8001a16:	ea23 73e3 	bic.w	r3, r3, r3, asr #31
 8001a1a:	4618      	mov	r0, r3
 8001a1c:	3714      	adds	r7, #20
 8001a1e:	46bd      	mov	sp, r7
 8001a20:	f85d 7b04 	ldr.w	r7, [sp], #4
 8001a24:	4770      	bx	lr
 8001a26:	bf00      	nop
 8001a28:	200004b4 	.word	0x200004b4

08001a2c <NewNetwork>:
 8001a2c:	b480      	push	{r7}
 8001a2e:	b083      	sub	sp, #12
 8001a30:	af00      	add	r7, sp, #0
 8001a32:	6078      	str	r0, [r7, #4]
 8001a34:	6039      	str	r1, [r7, #0]
 8001a36:	687b      	ldr	r3, [r7, #4]
 8001a38:	683a      	ldr	r2, [r7, #0]
 8001a3a:	601a      	str	r2, [r3, #0]
 8001a3c:	687b      	ldr	r3, [r7, #4]
 8001a3e:	4a07      	ldr	r2, [pc, #28]	@ (8001a5c <NewNetwork+0x30>)
 8001a40:	605a      	str	r2, [r3, #4]
 8001a42:	687b      	ldr	r3, [r7, #4]
 8001a44:	4a06      	ldr	r2, [pc, #24]	@ (8001a60 <NewNetwork+0x34>)
 8001a46:	609a      	str	r2, [r3, #8]
 8001a48:	687b      	ldr	r3, [r7, #4]
 8001a4a:	4a06      	ldr	r2, [pc, #24]	@ (8001a64 <NewNetwork+0x38>)
 8001a4c:	60da      	str	r2, [r3, #12]
 8001a4e:	bf00      	nop
 8001a50:	370c      	adds	r7, #12
 8001a52:	46bd      	mov	sp, r7
 8001a54:	f85d 7b04 	ldr.w	r7, [sp], #4
 8001a58:	4770      	bx	lr
 8001a5a:	bf00      	nop
 8001a5c:	08001a69 	.word	0x08001a69
 8001a60:	08001ac3 	.word	0x08001ac3
 8001a64:	08001b0b 	.word	0x08001b0b

08001a68 <w5x00_read>:
 8001a68:	b580      	push	{r7, lr}
 8001a6a:	b084      	sub	sp, #16
 8001a6c:	af00      	add	r7, sp, #0
 8001a6e:	60f8      	str	r0, [r7, #12]
 8001a70:	60b9      	str	r1, [r7, #8]
 8001a72:	607a      	str	r2, [r7, #4]
 8001a74:	603b      	str	r3, [r7, #0]
 8001a76:	68fb      	ldr	r3, [r7, #12]
 8001a78:	681b      	ldr	r3, [r3, #0]
 8001a7a:	009b      	lsls	r3, r3, #2
 8001a7c:	3301      	adds	r3, #1
 8001a7e:	00db      	lsls	r3, r3, #3
 8001a80:	f503 7340 	add.w	r3, r3, #768	@ 0x300
 8001a84:	4618      	mov	r0, r3
 8001a86:	f000 fe11 	bl	80026ac <WIZCHIP_READ>
 8001a8a:	4603      	mov	r3, r0
 8001a8c:	2b17      	cmp	r3, #23
 8001a8e:	d113      	bne.n	8001ab8 <w5x00_read+0x50>
 8001a90:	68fb      	ldr	r3, [r7, #12]
 8001a92:	681b      	ldr	r3, [r3, #0]
 8001a94:	b2db      	uxtb	r3, r3
 8001a96:	4618      	mov	r0, r3
 8001a98:	f000 ffab 	bl	80029f2 <getSn_RX_RSR>
 8001a9c:	4603      	mov	r3, r0
 8001a9e:	2b00      	cmp	r3, #0
 8001aa0:	d00a      	beq.n	8001ab8 <w5x00_read+0x50>
 8001aa2:	68fb      	ldr	r3, [r7, #12]
 8001aa4:	681b      	ldr	r3, [r3, #0]
 8001aa6:	b2db      	uxtb	r3, r3
 8001aa8:	687a      	ldr	r2, [r7, #4]
 8001aaa:	b292      	uxth	r2, r2
 8001aac:	68b9      	ldr	r1, [r7, #8]
 8001aae:	4618      	mov	r0, r3
 8001ab0:	f001 fc68 	bl	8003384 <recv>
 8001ab4:	4603      	mov	r3, r0
 8001ab6:	e000      	b.n	8001aba <w5x00_read+0x52>
 8001ab8:	2300      	movs	r3, #0
 8001aba:	4618      	mov	r0, r3
 8001abc:	3710      	adds	r7, #16
 8001abe:	46bd      	mov	sp, r7
 8001ac0:	bd80      	pop	{r7, pc}

08001ac2 <w5x00_write>:
 8001ac2:	b580      	push	{r7, lr}
 8001ac4:	b084      	sub	sp, #16
 8001ac6:	af00      	add	r7, sp, #0
 8001ac8:	60f8      	str	r0, [r7, #12]
 8001aca:	60b9      	str	r1, [r7, #8]
 8001acc:	607a      	str	r2, [r7, #4]
 8001ace:	603b      	str	r3, [r7, #0]
 8001ad0:	68fb      	ldr	r3, [r7, #12]
 8001ad2:	681b      	ldr	r3, [r3, #0]
 8001ad4:	009b      	lsls	r3, r3, #2
 8001ad6:	3301      	adds	r3, #1
 8001ad8:	00db      	lsls	r3, r3, #3
 8001ada:	f503 7340 	add.w	r3, r3, #768	@ 0x300
 8001ade:	4618      	mov	r0, r3
 8001ae0:	f000 fde4 	bl	80026ac <WIZCHIP_READ>
 8001ae4:	4603      	mov	r3, r0
 8001ae6:	2b17      	cmp	r3, #23
 8001ae8:	d10a      	bne.n	8001b00 <w5x00_write+0x3e>
 8001aea:	68fb      	ldr	r3, [r7, #12]
 8001aec:	681b      	ldr	r3, [r3, #0]
 8001aee:	b2db      	uxtb	r3, r3
 8001af0:	687a      	ldr	r2, [r7, #4]
 8001af2:	b292      	uxth	r2, r2
 8001af4:	68b9      	ldr	r1, [r7, #8]
 8001af6:	4618      	mov	r0, r3
 8001af8:	f001 fb4c 	bl	8003194 <send>
 8001afc:	4603      	mov	r3, r0
 8001afe:	e000      	b.n	8001b02 <w5x00_write+0x40>
 8001b00:	2300      	movs	r3, #0
 8001b02:	4618      	mov	r0, r3
 8001b04:	3710      	adds	r7, #16
 8001b06:	46bd      	mov	sp, r7
 8001b08:	bd80      	pop	{r7, pc}

08001b0a <w5x00_disconnect>:
 8001b0a:	b580      	push	{r7, lr}
 8001b0c:	b082      	sub	sp, #8
 8001b0e:	af00      	add	r7, sp, #0
 8001b10:	6078      	str	r0, [r7, #4]
 8001b12:	687b      	ldr	r3, [r7, #4]
 8001b14:	681b      	ldr	r3, [r3, #0]
 8001b16:	b2db      	uxtb	r3, r3
 8001b18:	4618      	mov	r0, r3
 8001b1a:	f001 fac5 	bl	80030a8 <disconnect>
 8001b1e:	bf00      	nop
 8001b20:	3708      	adds	r7, #8
 8001b22:	46bd      	mov	sp, r7
 8001b24:	bd80      	pop	{r7, pc}

08001b26 <ConnectNetwork>:
 8001b26:	b580      	push	{r7, lr}
 8001b28:	b086      	sub	sp, #24
 8001b2a:	af00      	add	r7, sp, #0
 8001b2c:	60f8      	str	r0, [r7, #12]
 8001b2e:	60b9      	str	r1, [r7, #8]
 8001b30:	4613      	mov	r3, r2
 8001b32:	80fb      	strh	r3, [r7, #6]
 8001b34:	f243 0339 	movw	r3, #12345	@ 0x3039
 8001b38:	82fb      	strh	r3, [r7, #22]
 8001b3a:	68fb      	ldr	r3, [r7, #12]
 8001b3c:	681b      	ldr	r3, [r3, #0]
 8001b3e:	b2d8      	uxtb	r0, r3
 8001b40:	8afa      	ldrh	r2, [r7, #22]
 8001b42:	2300      	movs	r3, #0
 8001b44:	2101      	movs	r1, #1
 8001b46:	f001 f851 	bl	8002bec <socket>
 8001b4a:	4603      	mov	r3, r0
 8001b4c:	461a      	mov	r2, r3
 8001b4e:	68fb      	ldr	r3, [r7, #12]
 8001b50:	681b      	ldr	r3, [r3, #0]
 8001b52:	429a      	cmp	r2, r3
 8001b54:	d001      	beq.n	8001b5a <ConnectNetwork+0x34>
 8001b56:	2300      	movs	r3, #0
 8001b58:	e00d      	b.n	8001b76 <ConnectNetwork+0x50>
 8001b5a:	68fb      	ldr	r3, [r7, #12]
 8001b5c:	681b      	ldr	r3, [r3, #0]
 8001b5e:	b2db      	uxtb	r3, r3
 8001b60:	88fa      	ldrh	r2, [r7, #6]
 8001b62:	68b9      	ldr	r1, [r7, #8]
 8001b64:	4618      	mov	r0, r3
 8001b66:	f001 f9c3 	bl	8002ef0 <connect>
 8001b6a:	4603      	mov	r3, r0
 8001b6c:	2b01      	cmp	r3, #1
 8001b6e:	d001      	beq.n	8001b74 <ConnectNetwork+0x4e>
 8001b70:	2300      	movs	r3, #0
 8001b72:	e000      	b.n	8001b76 <ConnectNetwork+0x50>
 8001b74:	2301      	movs	r3, #1
 8001b76:	4618      	mov	r0, r3
 8001b78:	3718      	adds	r7, #24
 8001b7a:	46bd      	mov	sp, r7
 8001b7c:	bd80      	pop	{r7, pc}

08001b7e <MQTTSerialize_connectLength>:
 8001b7e:	b590      	push	{r4, r7, lr}
 8001b80:	b085      	sub	sp, #20
 8001b82:	af00      	add	r7, sp, #0
 8001b84:	6078      	str	r0, [r7, #4]
 8001b86:	2300      	movs	r3, #0
 8001b88:	60fb      	str	r3, [r7, #12]
 8001b8a:	687b      	ldr	r3, [r7, #4]
 8001b8c:	7a1b      	ldrb	r3, [r3, #8]
 8001b8e:	2b03      	cmp	r3, #3
 8001b90:	d102      	bne.n	8001b98 <MQTTSerialize_connectLength+0x1a>
 8001b92:	230c      	movs	r3, #12
 8001b94:	60fb      	str	r3, [r7, #12]
 8001b96:	e005      	b.n	8001ba4 <MQTTSerialize_connectLength+0x26>
 8001b98:	687b      	ldr	r3, [r7, #4]
 8001b9a:	7a1b      	ldrb	r3, [r3, #8]
 8001b9c:	2b04      	cmp	r3, #4
 8001b9e:	d101      	bne.n	8001ba4 <MQTTSerialize_connectLength+0x26>
 8001ba0:	230a      	movs	r3, #10
 8001ba2:	60fb      	str	r3, [r7, #12]
 8001ba4:	687b      	ldr	r3, [r7, #4]
 8001ba6:	330c      	adds	r3, #12
 8001ba8:	e893 0007 	ldmia.w	r3, {r0, r1, r2}
 8001bac:	f000 fc43 	bl	8002436 <MQTTstrlen>
 8001bb0:	4603      	mov	r3, r0
 8001bb2:	3302      	adds	r3, #2
 8001bb4:	68fa      	ldr	r2, [r7, #12]
 8001bb6:	4413      	add	r3, r2
 8001bb8:	60fb      	str	r3, [r7, #12]
 8001bba:	687b      	ldr	r3, [r7, #4]
 8001bbc:	7edb      	ldrb	r3, [r3, #27]
 8001bbe:	2b00      	cmp	r3, #0
 8001bc0:	d013      	beq.n	8001bea <MQTTSerialize_connectLength+0x6c>
 8001bc2:	687b      	ldr	r3, [r7, #4]
 8001bc4:	3324      	adds	r3, #36	@ 0x24
 8001bc6:	e893 0007 	ldmia.w	r3, {r0, r1, r2}
 8001bca:	f000 fc34 	bl	8002436 <MQTTstrlen>
 8001bce:	4603      	mov	r3, r0
 8001bd0:	1c9c      	adds	r4, r3, #2
 8001bd2:	687b      	ldr	r3, [r7, #4]
 8001bd4:	3330      	adds	r3, #48	@ 0x30
 8001bd6:	e893 0007 	ldmia.w	r3, {r0, r1, r2}
 8001bda:	f000 fc2c 	bl	8002436 <MQTTstrlen>
 8001bde:	4603      	mov	r3, r0
 8001be0:	4423      	add	r3, r4
 8001be2:	3302      	adds	r3, #2
 8001be4:	68fa      	ldr	r2, [r7, #12]
 8001be6:	4413      	add	r3, r2
 8001be8:	60fb      	str	r3, [r7, #12]
 8001bea:	687b      	ldr	r3, [r7, #4]
 8001bec:	6c1b      	ldr	r3, [r3, #64]	@ 0x40
 8001bee:	2b00      	cmp	r3, #0
 8001bf0:	d103      	bne.n	8001bfa <MQTTSerialize_connectLength+0x7c>
 8001bf2:	687b      	ldr	r3, [r7, #4]
 8001bf4:	6c9b      	ldr	r3, [r3, #72]	@ 0x48
 8001bf6:	2b00      	cmp	r3, #0
 8001bf8:	d00a      	beq.n	8001c10 <MQTTSerialize_connectLength+0x92>
 8001bfa:	687b      	ldr	r3, [r7, #4]
 8001bfc:	3340      	adds	r3, #64	@ 0x40
 8001bfe:	e893 0007 	ldmia.w	r3, {r0, r1, r2}
 8001c02:	f000 fc18 	bl	8002436 <MQTTstrlen>
 8001c06:	4603      	mov	r3, r0
 8001c08:	3302      	adds	r3, #2
 8001c0a:	68fa      	ldr	r2, [r7, #12]
 8001c0c:	4413      	add	r3, r2
 8001c0e:	60fb      	str	r3, [r7, #12]
 8001c10:	687b      	ldr	r3, [r7, #4]
 8001c12:	6cdb      	ldr	r3, [r3, #76]	@ 0x4c
 8001c14:	2b00      	cmp	r3, #0
 8001c16:	d103      	bne.n	8001c20 <MQTTSerialize_connectLength+0xa2>
 8001c18:	687b      	ldr	r3, [r7, #4]
 8001c1a:	6d5b      	ldr	r3, [r3, #84]	@ 0x54
 8001c1c:	2b00      	cmp	r3, #0
 8001c1e:	d00a      	beq.n	8001c36 <MQTTSerialize_connectLength+0xb8>
 8001c20:	687b      	ldr	r3, [r7, #4]
 8001c22:	334c      	adds	r3, #76	@ 0x4c
 8001c24:	e893 0007 	ldmia.w	r3, {r0, r1, r2}
 8001c28:	f000 fc05 	bl	8002436 <MQTTstrlen>
 8001c2c:	4603      	mov	r3, r0
 8001c2e:	3302      	adds	r3, #2
 8001c30:	68fa      	ldr	r2, [r7, #12]
 8001c32:	4413      	add	r3, r2
 8001c34:	60fb      	str	r3, [r7, #12]
 8001c36:	68fb      	ldr	r3, [r7, #12]
 8001c38:	4618      	mov	r0, r3
 8001c3a:	3714      	adds	r7, #20
 8001c3c:	46bd      	mov	sp, r7
 8001c3e:	bd90      	pop	{r4, r7, pc}

08001c40 <MQTTSerialize_connect>:
 8001c40:	b580      	push	{r7, lr}
 8001c42:	b08a      	sub	sp, #40	@ 0x28
 8001c44:	af00      	add	r7, sp, #0
 8001c46:	60f8      	str	r0, [r7, #12]
 8001c48:	60b9      	str	r1, [r7, #8]
 8001c4a:	607a      	str	r2, [r7, #4]
 8001c4c:	68fb      	ldr	r3, [r7, #12]
 8001c4e:	61fb      	str	r3, [r7, #28]
 8001c50:	2300      	movs	r3, #0
 8001c52:	61bb      	str	r3, [r7, #24]
 8001c54:	2300      	movs	r3, #0
 8001c56:	617b      	str	r3, [r7, #20]
 8001c58:	2300      	movs	r3, #0
 8001c5a:	623b      	str	r3, [r7, #32]
 8001c5c:	f04f 33ff 	mov.w	r3, #4294967295
 8001c60:	627b      	str	r3, [r7, #36]	@ 0x24
 8001c62:	6878      	ldr	r0, [r7, #4]
 8001c64:	f7ff ff8b 	bl	8001b7e <MQTTSerialize_connectLength>
 8001c68:	6238      	str	r0, [r7, #32]
 8001c6a:	6a38      	ldr	r0, [r7, #32]
 8001c6c:	f000 fa98 	bl	80021a0 <MQTTPacket_len>
 8001c70:	4602      	mov	r2, r0
 8001c72:	68bb      	ldr	r3, [r7, #8]
 8001c74:	4293      	cmp	r3, r2
 8001c76:	da03      	bge.n	8001c80 <MQTTSerialize_connect+0x40>
 8001c78:	f06f 0301 	mvn.w	r3, #1
 8001c7c:	627b      	str	r3, [r7, #36]	@ 0x24
 8001c7e:	e0c2      	b.n	8001e06 <MQTTSerialize_connect+0x1c6>
 8001c80:	2300      	movs	r3, #0
 8001c82:	763b      	strb	r3, [r7, #24]
 8001c84:	7e3b      	ldrb	r3, [r7, #24]
 8001c86:	2201      	movs	r2, #1
 8001c88:	f362 1307 	bfi	r3, r2, #4, #4
 8001c8c:	763b      	strb	r3, [r7, #24]
 8001c8e:	7e3a      	ldrb	r2, [r7, #24]
 8001c90:	f107 031c 	add.w	r3, r7, #28
 8001c94:	4611      	mov	r1, r2
 8001c96:	4618      	mov	r0, r3
 8001c98:	f000 fb11 	bl	80022be <writeChar>
 8001c9c:	69fb      	ldr	r3, [r7, #28]
 8001c9e:	6a39      	ldr	r1, [r7, #32]
 8001ca0:	4618      	mov	r0, r3
 8001ca2:	f000 fa12 	bl	80020ca <MQTTPacket_encode>
 8001ca6:	4602      	mov	r2, r0
 8001ca8:	69fb      	ldr	r3, [r7, #28]
 8001caa:	4413      	add	r3, r2
 8001cac:	61fb      	str	r3, [r7, #28]
 8001cae:	687b      	ldr	r3, [r7, #4]
 8001cb0:	7a1b      	ldrb	r3, [r3, #8]
 8001cb2:	2b04      	cmp	r3, #4
 8001cb4:	d10c      	bne.n	8001cd0 <MQTTSerialize_connect+0x90>
 8001cb6:	f107 031c 	add.w	r3, r7, #28
 8001cba:	4955      	ldr	r1, [pc, #340]	@ (8001e10 <MQTTSerialize_connect+0x1d0>)
 8001cbc:	4618      	mov	r0, r3
 8001cbe:	f000 fb3c 	bl	800233a <writeCString>
 8001cc2:	f107 031c 	add.w	r3, r7, #28
 8001cc6:	2104      	movs	r1, #4
 8001cc8:	4618      	mov	r0, r3
 8001cca:	f000 faf8 	bl	80022be <writeChar>
 8001cce:	e00b      	b.n	8001ce8 <MQTTSerialize_connect+0xa8>
 8001cd0:	f107 031c 	add.w	r3, r7, #28
 8001cd4:	494f      	ldr	r1, [pc, #316]	@ (8001e14 <MQTTSerialize_connect+0x1d4>)
 8001cd6:	4618      	mov	r0, r3
 8001cd8:	f000 fb2f 	bl	800233a <writeCString>
 8001cdc:	f107 031c 	add.w	r3, r7, #28
 8001ce0:	2103      	movs	r1, #3
 8001ce2:	4618      	mov	r0, r3
 8001ce4:	f000 faeb 	bl	80022be <writeChar>
 8001ce8:	2300      	movs	r3, #0
 8001cea:	753b      	strb	r3, [r7, #20]
 8001cec:	687b      	ldr	r3, [r7, #4]
 8001cee:	7e9b      	ldrb	r3, [r3, #26]
 8001cf0:	f003 0301 	and.w	r3, r3, #1
 8001cf4:	b2da      	uxtb	r2, r3
 8001cf6:	7d3b      	ldrb	r3, [r7, #20]
 8001cf8:	f362 0341 	bfi	r3, r2, #1, #1
 8001cfc:	753b      	strb	r3, [r7, #20]
 8001cfe:	687b      	ldr	r3, [r7, #4]
 8001d00:	7edb      	ldrb	r3, [r3, #27]
 8001d02:	2b00      	cmp	r3, #0
 8001d04:	bf14      	ite	ne
 8001d06:	2301      	movne	r3, #1
 8001d08:	2300      	moveq	r3, #0
 8001d0a:	b2da      	uxtb	r2, r3
 8001d0c:	7d3b      	ldrb	r3, [r7, #20]
 8001d0e:	f362 0382 	bfi	r3, r2, #2, #1
 8001d12:	753b      	strb	r3, [r7, #20]
 8001d14:	7d3b      	ldrb	r3, [r7, #20]
 8001d16:	f003 0304 	and.w	r3, r3, #4
 8001d1a:	b2db      	uxtb	r3, r3
 8001d1c:	2b00      	cmp	r3, #0
 8001d1e:	d013      	beq.n	8001d48 <MQTTSerialize_connect+0x108>
 8001d20:	687b      	ldr	r3, [r7, #4]
 8001d22:	f893 303d 	ldrb.w	r3, [r3, #61]	@ 0x3d
 8001d26:	f003 0303 	and.w	r3, r3, #3
 8001d2a:	b2da      	uxtb	r2, r3
 8001d2c:	7d3b      	ldrb	r3, [r7, #20]
 8001d2e:	f362 03c4 	bfi	r3, r2, #3, #2
 8001d32:	753b      	strb	r3, [r7, #20]
 8001d34:	687b      	ldr	r3, [r7, #4]
 8001d36:	f893 303c 	ldrb.w	r3, [r3, #60]	@ 0x3c
 8001d3a:	f003 0301 	and.w	r3, r3, #1
 8001d3e:	b2da      	uxtb	r2, r3
 8001d40:	7d3b      	ldrb	r3, [r7, #20]
 8001d42:	f362 1345 	bfi	r3, r2, #5, #1
 8001d46:	753b      	strb	r3, [r7, #20]
 8001d48:	687b      	ldr	r3, [r7, #4]
 8001d4a:	6c1b      	ldr	r3, [r3, #64]	@ 0x40
 8001d4c:	2b00      	cmp	r3, #0
 8001d4e:	d103      	bne.n	8001d58 <MQTTSerialize_connect+0x118>
 8001d50:	687b      	ldr	r3, [r7, #4]
 8001d52:	6c9b      	ldr	r3, [r3, #72]	@ 0x48
 8001d54:	2b00      	cmp	r3, #0
 8001d56:	d003      	beq.n	8001d60 <MQTTSerialize_connect+0x120>
 8001d58:	7d3b      	ldrb	r3, [r7, #20]
 8001d5a:	f043 0380 	orr.w	r3, r3, #128	@ 0x80
 8001d5e:	753b      	strb	r3, [r7, #20]
 8001d60:	687b      	ldr	r3, [r7, #4]
 8001d62:	6cdb      	ldr	r3, [r3, #76]	@ 0x4c
 8001d64:	2b00      	cmp	r3, #0
 8001d66:	d103      	bne.n	8001d70 <MQTTSerialize_connect+0x130>
 8001d68:	687b      	ldr	r3, [r7, #4]
 8001d6a:	6d5b      	ldr	r3, [r3, #84]	@ 0x54
 8001d6c:	2b00      	cmp	r3, #0
 8001d6e:	d003      	beq.n	8001d78 <MQTTSerialize_connect+0x138>
 8001d70:	7d3b      	ldrb	r3, [r7, #20]
 8001d72:	f043 0340 	orr.w	r3, r3, #64	@ 0x40
 8001d76:	753b      	strb	r3, [r7, #20]
 8001d78:	7d3a      	ldrb	r2, [r7, #20]
 8001d7a:	f107 031c 	add.w	r3, r7, #28
 8001d7e:	4611      	mov	r1, r2
 8001d80:	4618      	mov	r0, r3
 8001d82:	f000 fa9c 	bl	80022be <writeChar>
 8001d86:	687b      	ldr	r3, [r7, #4]
 8001d88:	8b1b      	ldrh	r3, [r3, #24]
 8001d8a:	461a      	mov	r2, r3
 8001d8c:	f107 031c 	add.w	r3, r7, #28
 8001d90:	4611      	mov	r1, r2
 8001d92:	4618      	mov	r0, r3
 8001d94:	f000 faa8 	bl	80022e8 <writeInt>
 8001d98:	687b      	ldr	r3, [r7, #4]
 8001d9a:	f107 001c 	add.w	r0, r7, #28
 8001d9e:	330c      	adds	r3, #12
 8001da0:	cb0e      	ldmia	r3, {r1, r2, r3}
 8001da2:	f000 fae9 	bl	8002378 <writeMQTTString>
 8001da6:	687b      	ldr	r3, [r7, #4]
 8001da8:	7edb      	ldrb	r3, [r3, #27]
 8001daa:	2b00      	cmp	r3, #0
 8001dac:	d00d      	beq.n	8001dca <MQTTSerialize_connect+0x18a>
 8001dae:	687b      	ldr	r3, [r7, #4]
 8001db0:	f107 001c 	add.w	r0, r7, #28
 8001db4:	3324      	adds	r3, #36	@ 0x24
 8001db6:	cb0e      	ldmia	r3, {r1, r2, r3}
 8001db8:	f000 fade 	bl	8002378 <writeMQTTString>
 8001dbc:	687b      	ldr	r3, [r7, #4]
 8001dbe:	f107 001c 	add.w	r0, r7, #28
 8001dc2:	3330      	adds	r3, #48	@ 0x30
 8001dc4:	cb0e      	ldmia	r3, {r1, r2, r3}
 8001dc6:	f000 fad7 	bl	8002378 <writeMQTTString>
 8001dca:	7d3b      	ldrb	r3, [r7, #20]
 8001dcc:	f023 037f 	bic.w	r3, r3, #127	@ 0x7f
 8001dd0:	b2db      	uxtb	r3, r3
 8001dd2:	2b00      	cmp	r3, #0
 8001dd4:	d006      	beq.n	8001de4 <MQTTSerialize_connect+0x1a4>
 8001dd6:	687b      	ldr	r3, [r7, #4]
 8001dd8:	f107 001c 	add.w	r0, r7, #28
 8001ddc:	3340      	adds	r3, #64	@ 0x40
 8001dde:	cb0e      	ldmia	r3, {r1, r2, r3}
 8001de0:	f000 faca 	bl	8002378 <writeMQTTString>
 8001de4:	7d3b      	ldrb	r3, [r7, #20]
 8001de6:	f003 0340 	and.w	r3, r3, #64	@ 0x40
 8001dea:	b2db      	uxtb	r3, r3
 8001dec:	2b00      	cmp	r3, #0
 8001dee:	d006      	beq.n	8001dfe <MQTTSerialize_connect+0x1be>
 8001df0:	687b      	ldr	r3, [r7, #4]
 8001df2:	f107 001c 	add.w	r0, r7, #28
 8001df6:	334c      	adds	r3, #76	@ 0x4c
 8001df8:	cb0e      	ldmia	r3, {r1, r2, r3}
 8001dfa:	f000 fabd 	bl	8002378 <writeMQTTString>
 8001dfe:	69fa      	ldr	r2, [r7, #28]
 8001e00:	68fb      	ldr	r3, [r7, #12]
 8001e02:	1ad3      	subs	r3, r2, r3
 8001e04:	627b      	str	r3, [r7, #36]	@ 0x24
 8001e06:	6a7b      	ldr	r3, [r7, #36]	@ 0x24
 8001e08:	4618      	mov	r0, r3
 8001e0a:	3728      	adds	r7, #40	@ 0x28
 8001e0c:	46bd      	mov	sp, r7
 8001e0e:	bd80      	pop	{r7, pc}
 8001e10:	08007b10 	.word	0x08007b10
 8001e14:	08007b18 	.word	0x08007b18

08001e18 <MQTTDeserialize_connack>:
 8001e18:	b580      	push	{r7, lr}
 8001e1a:	b08a      	sub	sp, #40	@ 0x28
 8001e1c:	af00      	add	r7, sp, #0
 8001e1e:	60f8      	str	r0, [r7, #12]
 8001e20:	60b9      	str	r1, [r7, #8]
 8001e22:	607a      	str	r2, [r7, #4]
 8001e24:	603b      	str	r3, [r7, #0]
 8001e26:	2300      	movs	r3, #0
 8001e28:	61fb      	str	r3, [r7, #28]
 8001e2a:	687b      	ldr	r3, [r7, #4]
 8001e2c:	61bb      	str	r3, [r7, #24]
 8001e2e:	2300      	movs	r3, #0
 8001e30:	623b      	str	r3, [r7, #32]
 8001e32:	2300      	movs	r3, #0
 8001e34:	627b      	str	r3, [r7, #36]	@ 0x24
 8001e36:	2300      	movs	r3, #0
 8001e38:	613b      	str	r3, [r7, #16]
 8001e3a:	f107 0318 	add.w	r3, r7, #24
 8001e3e:	4618      	mov	r0, r3
 8001e40:	f000 fa29 	bl	8002296 <readChar>
 8001e44:	4603      	mov	r3, r0
 8001e46:	773b      	strb	r3, [r7, #28]
 8001e48:	7f3b      	ldrb	r3, [r7, #28]
 8001e4a:	f023 030f 	bic.w	r3, r3, #15
 8001e4e:	b2db      	uxtb	r3, r3
 8001e50:	2b20      	cmp	r3, #32
 8001e52:	d12e      	bne.n	8001eb2 <MQTTDeserialize_connack+0x9a>
 8001e54:	69bb      	ldr	r3, [r7, #24]
 8001e56:	f107 0214 	add.w	r2, r7, #20
 8001e5a:	4611      	mov	r1, r2
 8001e5c:	4618      	mov	r0, r3
 8001e5e:	f000 f9e9 	bl	8002234 <MQTTPacket_decodeBuf>
 8001e62:	6278      	str	r0, [r7, #36]	@ 0x24
 8001e64:	6a7a      	ldr	r2, [r7, #36]	@ 0x24
 8001e66:	69bb      	ldr	r3, [r7, #24]
 8001e68:	4413      	add	r3, r2
 8001e6a:	61bb      	str	r3, [r7, #24]
 8001e6c:	69bb      	ldr	r3, [r7, #24]
 8001e6e:	697a      	ldr	r2, [r7, #20]
 8001e70:	4413      	add	r3, r2
 8001e72:	623b      	str	r3, [r7, #32]
 8001e74:	69bb      	ldr	r3, [r7, #24]
 8001e76:	6a3a      	ldr	r2, [r7, #32]
 8001e78:	1ad3      	subs	r3, r2, r3
 8001e7a:	2b01      	cmp	r3, #1
 8001e7c:	dd1b      	ble.n	8001eb6 <MQTTDeserialize_connack+0x9e>
 8001e7e:	f107 0318 	add.w	r3, r7, #24
 8001e82:	4618      	mov	r0, r3
 8001e84:	f000 fa07 	bl	8002296 <readChar>
 8001e88:	4603      	mov	r3, r0
 8001e8a:	743b      	strb	r3, [r7, #16]
 8001e8c:	7c3b      	ldrb	r3, [r7, #16]
 8001e8e:	f3c3 0300 	ubfx	r3, r3, #0, #1
 8001e92:	b2db      	uxtb	r3, r3
 8001e94:	461a      	mov	r2, r3
 8001e96:	68fb      	ldr	r3, [r7, #12]
 8001e98:	701a      	strb	r2, [r3, #0]
 8001e9a:	f107 0318 	add.w	r3, r7, #24
 8001e9e:	4618      	mov	r0, r3
 8001ea0:	f000 f9f9 	bl	8002296 <readChar>
 8001ea4:	4603      	mov	r3, r0
 8001ea6:	461a      	mov	r2, r3
 8001ea8:	68bb      	ldr	r3, [r7, #8]
 8001eaa:	701a      	strb	r2, [r3, #0]
 8001eac:	2301      	movs	r3, #1
 8001eae:	627b      	str	r3, [r7, #36]	@ 0x24
 8001eb0:	e002      	b.n	8001eb8 <MQTTDeserialize_connack+0xa0>
 8001eb2:	bf00      	nop
 8001eb4:	e000      	b.n	8001eb8 <MQTTDeserialize_connack+0xa0>
 8001eb6:	bf00      	nop
 8001eb8:	6a7b      	ldr	r3, [r7, #36]	@ 0x24
 8001eba:	4618      	mov	r0, r3
 8001ebc:	3728      	adds	r7, #40	@ 0x28
 8001ebe:	46bd      	mov	sp, r7
 8001ec0:	bd80      	pop	{r7, pc}

08001ec2 <MQTTSerialize_zero>:
 8001ec2:	b580      	push	{r7, lr}
 8001ec4:	b088      	sub	sp, #32
 8001ec6:	af00      	add	r7, sp, #0
 8001ec8:	60f8      	str	r0, [r7, #12]
 8001eca:	60b9      	str	r1, [r7, #8]
 8001ecc:	4613      	mov	r3, r2
 8001ece:	71fb      	strb	r3, [r7, #7]
 8001ed0:	2300      	movs	r3, #0
 8001ed2:	61bb      	str	r3, [r7, #24]
 8001ed4:	f04f 33ff 	mov.w	r3, #4294967295
 8001ed8:	61fb      	str	r3, [r7, #28]
 8001eda:	68fb      	ldr	r3, [r7, #12]
 8001edc:	617b      	str	r3, [r7, #20]
 8001ede:	68bb      	ldr	r3, [r7, #8]
 8001ee0:	2b01      	cmp	r3, #1
 8001ee2:	dc03      	bgt.n	8001eec <MQTTSerialize_zero+0x2a>
 8001ee4:	f06f 0301 	mvn.w	r3, #1
 8001ee8:	61fb      	str	r3, [r7, #28]
 8001eea:	e01d      	b.n	8001f28 <MQTTSerialize_zero+0x66>
 8001eec:	2300      	movs	r3, #0
 8001eee:	763b      	strb	r3, [r7, #24]
 8001ef0:	79fb      	ldrb	r3, [r7, #7]
 8001ef2:	f003 030f 	and.w	r3, r3, #15
 8001ef6:	b2da      	uxtb	r2, r3
 8001ef8:	7e3b      	ldrb	r3, [r7, #24]
 8001efa:	f362 1307 	bfi	r3, r2, #4, #4
 8001efe:	763b      	strb	r3, [r7, #24]
 8001f00:	7e3a      	ldrb	r2, [r7, #24]
 8001f02:	f107 0314 	add.w	r3, r7, #20
 8001f06:	4611      	mov	r1, r2
 8001f08:	4618      	mov	r0, r3
 8001f0a:	f000 f9d8 	bl	80022be <writeChar>
 8001f0e:	697b      	ldr	r3, [r7, #20]
 8001f10:	2100      	movs	r1, #0
 8001f12:	4618      	mov	r0, r3
 8001f14:	f000 f8d9 	bl	80020ca <MQTTPacket_encode>
 8001f18:	4602      	mov	r2, r0
 8001f1a:	697b      	ldr	r3, [r7, #20]
 8001f1c:	4413      	add	r3, r2
 8001f1e:	617b      	str	r3, [r7, #20]
 8001f20:	697a      	ldr	r2, [r7, #20]
 8001f22:	68fb      	ldr	r3, [r7, #12]
 8001f24:	1ad3      	subs	r3, r2, r3
 8001f26:	61fb      	str	r3, [r7, #28]
 8001f28:	69fb      	ldr	r3, [r7, #28]
 8001f2a:	4618      	mov	r0, r3
 8001f2c:	3720      	adds	r7, #32
 8001f2e:	46bd      	mov	sp, r7
 8001f30:	bd80      	pop	{r7, pc}

08001f32 <MQTTSerialize_pingreq>:
 8001f32:	b580      	push	{r7, lr}
 8001f34:	b082      	sub	sp, #8
 8001f36:	af00      	add	r7, sp, #0
 8001f38:	6078      	str	r0, [r7, #4]
 8001f3a:	6039      	str	r1, [r7, #0]
 8001f3c:	220c      	movs	r2, #12
 8001f3e:	6839      	ldr	r1, [r7, #0]
 8001f40:	6878      	ldr	r0, [r7, #4]
 8001f42:	f7ff ffbe 	bl	8001ec2 <MQTTSerialize_zero>
 8001f46:	4603      	mov	r3, r0
 8001f48:	4618      	mov	r0, r3
 8001f4a:	3708      	adds	r7, #8
 8001f4c:	46bd      	mov	sp, r7
 8001f4e:	bd80      	pop	{r7, pc}

08001f50 <MQTTDeserialize_publish>:
 8001f50:	b580      	push	{r7, lr}
 8001f52:	b08a      	sub	sp, #40	@ 0x28
 8001f54:	af00      	add	r7, sp, #0
 8001f56:	60f8      	str	r0, [r7, #12]
 8001f58:	60b9      	str	r1, [r7, #8]
 8001f5a:	607a      	str	r2, [r7, #4]
 8001f5c:	603b      	str	r3, [r7, #0]
 8001f5e:	2300      	movs	r3, #0
 8001f60:	61fb      	str	r3, [r7, #28]
 8001f62:	6bfb      	ldr	r3, [r7, #60]	@ 0x3c
 8001f64:	61bb      	str	r3, [r7, #24]
 8001f66:	2300      	movs	r3, #0
 8001f68:	623b      	str	r3, [r7, #32]
 8001f6a:	2300      	movs	r3, #0
 8001f6c:	627b      	str	r3, [r7, #36]	@ 0x24
 8001f6e:	2300      	movs	r3, #0
 8001f70:	617b      	str	r3, [r7, #20]
 8001f72:	f107 0318 	add.w	r3, r7, #24
 8001f76:	4618      	mov	r0, r3
 8001f78:	f000 f98d 	bl	8002296 <readChar>
 8001f7c:	4603      	mov	r3, r0
 8001f7e:	773b      	strb	r3, [r7, #28]
 8001f80:	7f3b      	ldrb	r3, [r7, #28]
 8001f82:	f023 030f 	bic.w	r3, r3, #15
 8001f86:	b2db      	uxtb	r3, r3
 8001f88:	2b30      	cmp	r3, #48	@ 0x30
 8001f8a:	d14b      	bne.n	8002024 <MQTTDeserialize_publish+0xd4>
 8001f8c:	7f3b      	ldrb	r3, [r7, #28]
 8001f8e:	f3c3 03c0 	ubfx	r3, r3, #3, #1
 8001f92:	b2db      	uxtb	r3, r3
 8001f94:	461a      	mov	r2, r3
 8001f96:	68fb      	ldr	r3, [r7, #12]
 8001f98:	701a      	strb	r2, [r3, #0]
 8001f9a:	7f3b      	ldrb	r3, [r7, #28]
 8001f9c:	f3c3 0341 	ubfx	r3, r3, #1, #2
 8001fa0:	b2db      	uxtb	r3, r3
 8001fa2:	461a      	mov	r2, r3
 8001fa4:	68bb      	ldr	r3, [r7, #8]
 8001fa6:	601a      	str	r2, [r3, #0]
 8001fa8:	7f3b      	ldrb	r3, [r7, #28]
 8001faa:	f3c3 0300 	ubfx	r3, r3, #0, #1
 8001fae:	b2db      	uxtb	r3, r3
 8001fb0:	461a      	mov	r2, r3
 8001fb2:	687b      	ldr	r3, [r7, #4]
 8001fb4:	701a      	strb	r2, [r3, #0]
 8001fb6:	69bb      	ldr	r3, [r7, #24]
 8001fb8:	f107 0214 	add.w	r2, r7, #20
 8001fbc:	4611      	mov	r1, r2
 8001fbe:	4618      	mov	r0, r3
 8001fc0:	f000 f938 	bl	8002234 <MQTTPacket_decodeBuf>
 8001fc4:	6278      	str	r0, [r7, #36]	@ 0x24
 8001fc6:	6a7a      	ldr	r2, [r7, #36]	@ 0x24
 8001fc8:	69bb      	ldr	r3, [r7, #24]
 8001fca:	4413      	add	r3, r2
 8001fcc:	61bb      	str	r3, [r7, #24]
 8001fce:	69bb      	ldr	r3, [r7, #24]
 8001fd0:	697a      	ldr	r2, [r7, #20]
 8001fd2:	4413      	add	r3, r2
 8001fd4:	623b      	str	r3, [r7, #32]
 8001fd6:	f107 0318 	add.w	r3, r7, #24
 8001fda:	6a3a      	ldr	r2, [r7, #32]
 8001fdc:	4619      	mov	r1, r3
 8001fde:	6b38      	ldr	r0, [r7, #48]	@ 0x30
 8001fe0:	f000 f9f8 	bl	80023d4 <readMQTTLenString>
 8001fe4:	4603      	mov	r3, r0
 8001fe6:	2b00      	cmp	r3, #0
 8001fe8:	d01e      	beq.n	8002028 <MQTTDeserialize_publish+0xd8>
 8001fea:	69bb      	ldr	r3, [r7, #24]
 8001fec:	6a3a      	ldr	r2, [r7, #32]
 8001fee:	1ad3      	subs	r3, r2, r3
 8001ff0:	2b00      	cmp	r3, #0
 8001ff2:	db19      	blt.n	8002028 <MQTTDeserialize_publish+0xd8>
 8001ff4:	68bb      	ldr	r3, [r7, #8]
 8001ff6:	681b      	ldr	r3, [r3, #0]
 8001ff8:	2b00      	cmp	r3, #0
 8001ffa:	dd08      	ble.n	800200e <MQTTDeserialize_publish+0xbe>
 8001ffc:	f107 0318 	add.w	r3, r7, #24
 8002000:	4618      	mov	r0, r3
 8002002:	f000 f92d 	bl	8002260 <readInt>
 8002006:	4603      	mov	r3, r0
 8002008:	b29a      	uxth	r2, r3
 800200a:	683b      	ldr	r3, [r7, #0]
 800200c:	801a      	strh	r2, [r3, #0]
 800200e:	69bb      	ldr	r3, [r7, #24]
 8002010:	6a3a      	ldr	r2, [r7, #32]
 8002012:	1ad2      	subs	r2, r2, r3
 8002014:	6bbb      	ldr	r3, [r7, #56]	@ 0x38
 8002016:	601a      	str	r2, [r3, #0]
 8002018:	69ba      	ldr	r2, [r7, #24]
 800201a:	6b7b      	ldr	r3, [r7, #52]	@ 0x34
 800201c:	601a      	str	r2, [r3, #0]
 800201e:	2301      	movs	r3, #1
 8002020:	627b      	str	r3, [r7, #36]	@ 0x24
 8002022:	e002      	b.n	800202a <MQTTDeserialize_publish+0xda>
 8002024:	bf00      	nop
 8002026:	e000      	b.n	800202a <MQTTDeserialize_publish+0xda>
 8002028:	bf00      	nop
 800202a:	6a7b      	ldr	r3, [r7, #36]	@ 0x24
 800202c:	4618      	mov	r0, r3
 800202e:	3728      	adds	r7, #40	@ 0x28
 8002030:	46bd      	mov	sp, r7
 8002032:	bd80      	pop	{r7, pc}

08002034 <MQTTDeserialize_ack>:
 8002034:	b580      	push	{r7, lr}
 8002036:	b08a      	sub	sp, #40	@ 0x28
 8002038:	af00      	add	r7, sp, #0
 800203a:	60f8      	str	r0, [r7, #12]
 800203c:	60b9      	str	r1, [r7, #8]
 800203e:	607a      	str	r2, [r7, #4]
 8002040:	603b      	str	r3, [r7, #0]
 8002042:	2300      	movs	r3, #0
 8002044:	61fb      	str	r3, [r7, #28]
 8002046:	683b      	ldr	r3, [r7, #0]
 8002048:	61bb      	str	r3, [r7, #24]
 800204a:	2300      	movs	r3, #0
 800204c:	623b      	str	r3, [r7, #32]
 800204e:	2300      	movs	r3, #0
 8002050:	627b      	str	r3, [r7, #36]	@ 0x24
 8002052:	f107 0318 	add.w	r3, r7, #24
 8002056:	4618      	mov	r0, r3
 8002058:	f000 f91d 	bl	8002296 <readChar>
 800205c:	4603      	mov	r3, r0
 800205e:	773b      	strb	r3, [r7, #28]
 8002060:	7f3b      	ldrb	r3, [r7, #28]
 8002062:	f3c3 03c0 	ubfx	r3, r3, #3, #1
 8002066:	b2db      	uxtb	r3, r3
 8002068:	461a      	mov	r2, r3
 800206a:	68bb      	ldr	r3, [r7, #8]
 800206c:	701a      	strb	r2, [r3, #0]
 800206e:	7f3b      	ldrb	r3, [r7, #28]
 8002070:	f3c3 1303 	ubfx	r3, r3, #4, #4
 8002074:	b2db      	uxtb	r3, r3
 8002076:	461a      	mov	r2, r3
 8002078:	68fb      	ldr	r3, [r7, #12]
 800207a:	701a      	strb	r2, [r3, #0]
 800207c:	69bb      	ldr	r3, [r7, #24]
 800207e:	f107 0214 	add.w	r2, r7, #20
 8002082:	4611      	mov	r1, r2
 8002084:	4618      	mov	r0, r3
 8002086:	f000 f8d5 	bl	8002234 <MQTTPacket_decodeBuf>
 800208a:	6278      	str	r0, [r7, #36]	@ 0x24
 800208c:	6a7a      	ldr	r2, [r7, #36]	@ 0x24
 800208e:	69bb      	ldr	r3, [r7, #24]
 8002090:	4413      	add	r3, r2
 8002092:	61bb      	str	r3, [r7, #24]
 8002094:	69bb      	ldr	r3, [r7, #24]
 8002096:	697a      	ldr	r2, [r7, #20]
 8002098:	4413      	add	r3, r2
 800209a:	623b      	str	r3, [r7, #32]
 800209c:	69bb      	ldr	r3, [r7, #24]
 800209e:	6a3a      	ldr	r2, [r7, #32]
 80020a0:	1ad3      	subs	r3, r2, r3
 80020a2:	2b01      	cmp	r3, #1
 80020a4:	dd0b      	ble.n	80020be <MQTTDeserialize_ack+0x8a>
 80020a6:	f107 0318 	add.w	r3, r7, #24
 80020aa:	4618      	mov	r0, r3
 80020ac:	f000 f8d8 	bl	8002260 <readInt>
 80020b0:	4603      	mov	r3, r0
 80020b2:	b29a      	uxth	r2, r3
 80020b4:	687b      	ldr	r3, [r7, #4]
 80020b6:	801a      	strh	r2, [r3, #0]
 80020b8:	2301      	movs	r3, #1
 80020ba:	627b      	str	r3, [r7, #36]	@ 0x24
 80020bc:	e000      	b.n	80020c0 <MQTTDeserialize_ack+0x8c>
 80020be:	bf00      	nop
 80020c0:	6a7b      	ldr	r3, [r7, #36]	@ 0x24
 80020c2:	4618      	mov	r0, r3
 80020c4:	3728      	adds	r7, #40	@ 0x28
 80020c6:	46bd      	mov	sp, r7
 80020c8:	bd80      	pop	{r7, pc}

080020ca <MQTTPacket_encode>:
 80020ca:	b480      	push	{r7}
 80020cc:	b085      	sub	sp, #20
 80020ce:	af00      	add	r7, sp, #0
 80020d0:	6078      	str	r0, [r7, #4]
 80020d2:	6039      	str	r1, [r7, #0]
 80020d4:	2300      	movs	r3, #0
 80020d6:	60fb      	str	r3, [r7, #12]
 80020d8:	683b      	ldr	r3, [r7, #0]
 80020da:	425a      	negs	r2, r3
 80020dc:	f003 037f 	and.w	r3, r3, #127	@ 0x7f
 80020e0:	f002 027f 	and.w	r2, r2, #127	@ 0x7f
 80020e4:	bf58      	it	pl
 80020e6:	4253      	negpl	r3, r2
 80020e8:	72fb      	strb	r3, [r7, #11]
 80020ea:	683b      	ldr	r3, [r7, #0]
 80020ec:	2b00      	cmp	r3, #0
 80020ee:	da00      	bge.n	80020f2 <MQTTPacket_encode+0x28>
 80020f0:	337f      	adds	r3, #127	@ 0x7f
 80020f2:	11db      	asrs	r3, r3, #7
 80020f4:	603b      	str	r3, [r7, #0]
 80020f6:	683b      	ldr	r3, [r7, #0]
 80020f8:	2b00      	cmp	r3, #0
 80020fa:	dd03      	ble.n	8002104 <MQTTPacket_encode+0x3a>
 80020fc:	7afb      	ldrb	r3, [r7, #11]
 80020fe:	f063 037f 	orn	r3, r3, #127	@ 0x7f
 8002102:	72fb      	strb	r3, [r7, #11]
 8002104:	68fb      	ldr	r3, [r7, #12]
 8002106:	1c5a      	adds	r2, r3, #1
 8002108:	60fa      	str	r2, [r7, #12]
 800210a:	461a      	mov	r2, r3
 800210c:	687b      	ldr	r3, [r7, #4]
 800210e:	4413      	add	r3, r2
 8002110:	7afa      	ldrb	r2, [r7, #11]
 8002112:	701a      	strb	r2, [r3, #0]
 8002114:	683b      	ldr	r3, [r7, #0]
 8002116:	2b00      	cmp	r3, #0
 8002118:	dcde      	bgt.n	80020d8 <MQTTPacket_encode+0xe>
 800211a:	68fb      	ldr	r3, [r7, #12]
 800211c:	4618      	mov	r0, r3
 800211e:	3714      	adds	r7, #20
 8002120:	46bd      	mov	sp, r7
 8002122:	f85d 7b04 	ldr.w	r7, [sp], #4
 8002126:	4770      	bx	lr

08002128 <MQTTPacket_decode>:
 8002128:	b580      	push	{r7, lr}
 800212a:	b086      	sub	sp, #24
 800212c:	af00      	add	r7, sp, #0
 800212e:	6078      	str	r0, [r7, #4]
 8002130:	6039      	str	r1, [r7, #0]
 8002132:	2301      	movs	r3, #1
 8002134:	617b      	str	r3, [r7, #20]
 8002136:	2300      	movs	r3, #0
 8002138:	613b      	str	r3, [r7, #16]
 800213a:	683b      	ldr	r3, [r7, #0]
 800213c:	2200      	movs	r2, #0
 800213e:	601a      	str	r2, [r3, #0]
 8002140:	f04f 33ff 	mov.w	r3, #4294967295
 8002144:	60fb      	str	r3, [r7, #12]
 8002146:	693b      	ldr	r3, [r7, #16]
 8002148:	3301      	adds	r3, #1
 800214a:	613b      	str	r3, [r7, #16]
 800214c:	693b      	ldr	r3, [r7, #16]
 800214e:	2b04      	cmp	r3, #4
 8002150:	dd03      	ble.n	800215a <MQTTPacket_decode+0x32>
 8002152:	f04f 33ff 	mov.w	r3, #4294967295
 8002156:	60fb      	str	r3, [r7, #12]
 8002158:	e01d      	b.n	8002196 <MQTTPacket_decode+0x6e>
 800215a:	f107 020b 	add.w	r2, r7, #11
 800215e:	687b      	ldr	r3, [r7, #4]
 8002160:	2101      	movs	r1, #1
 8002162:	4610      	mov	r0, r2
 8002164:	4798      	blx	r3
 8002166:	60f8      	str	r0, [r7, #12]
 8002168:	68fb      	ldr	r3, [r7, #12]
 800216a:	2b01      	cmp	r3, #1
 800216c:	d112      	bne.n	8002194 <MQTTPacket_decode+0x6c>
 800216e:	683b      	ldr	r3, [r7, #0]
 8002170:	681a      	ldr	r2, [r3, #0]
 8002172:	7afb      	ldrb	r3, [r7, #11]
 8002174:	f003 037f 	and.w	r3, r3, #127	@ 0x7f
 8002178:	6979      	ldr	r1, [r7, #20]
 800217a:	fb01 f303 	mul.w	r3, r1, r3
 800217e:	441a      	add	r2, r3
 8002180:	683b      	ldr	r3, [r7, #0]
 8002182:	601a      	str	r2, [r3, #0]
 8002184:	697b      	ldr	r3, [r7, #20]
 8002186:	01db      	lsls	r3, r3, #7
 8002188:	617b      	str	r3, [r7, #20]
 800218a:	7afb      	ldrb	r3, [r7, #11]
 800218c:	b25b      	sxtb	r3, r3
 800218e:	2b00      	cmp	r3, #0
 8002190:	dbd6      	blt.n	8002140 <MQTTPacket_decode+0x18>
 8002192:	e000      	b.n	8002196 <MQTTPacket_decode+0x6e>
 8002194:	bf00      	nop
 8002196:	693b      	ldr	r3, [r7, #16]
 8002198:	4618      	mov	r0, r3
 800219a:	3718      	adds	r7, #24
 800219c:	46bd      	mov	sp, r7
 800219e:	bd80      	pop	{r7, pc}

080021a0 <MQTTPacket_len>:
 80021a0:	b480      	push	{r7}
 80021a2:	b083      	sub	sp, #12
 80021a4:	af00      	add	r7, sp, #0
 80021a6:	6078      	str	r0, [r7, #4]
 80021a8:	687b      	ldr	r3, [r7, #4]
 80021aa:	3301      	adds	r3, #1
 80021ac:	607b      	str	r3, [r7, #4]
 80021ae:	687b      	ldr	r3, [r7, #4]
 80021b0:	2b7f      	cmp	r3, #127	@ 0x7f
 80021b2:	dc03      	bgt.n	80021bc <MQTTPacket_len+0x1c>
 80021b4:	687b      	ldr	r3, [r7, #4]
 80021b6:	3301      	adds	r3, #1
 80021b8:	607b      	str	r3, [r7, #4]
 80021ba:	e012      	b.n	80021e2 <MQTTPacket_len+0x42>
 80021bc:	687b      	ldr	r3, [r7, #4]
 80021be:	f5b3 4f80 	cmp.w	r3, #16384	@ 0x4000
 80021c2:	da03      	bge.n	80021cc <MQTTPacket_len+0x2c>
 80021c4:	687b      	ldr	r3, [r7, #4]
 80021c6:	3302      	adds	r3, #2
 80021c8:	607b      	str	r3, [r7, #4]
 80021ca:	e00a      	b.n	80021e2 <MQTTPacket_len+0x42>
 80021cc:	687b      	ldr	r3, [r7, #4]
 80021ce:	4a08      	ldr	r2, [pc, #32]	@ (80021f0 <MQTTPacket_len+0x50>)
 80021d0:	4293      	cmp	r3, r2
 80021d2:	dc03      	bgt.n	80021dc <MQTTPacket_len+0x3c>
 80021d4:	687b      	ldr	r3, [r7, #4]
 80021d6:	3303      	adds	r3, #3
 80021d8:	607b      	str	r3, [r7, #4]
 80021da:	e002      	b.n	80021e2 <MQTTPacket_len+0x42>
 80021dc:	687b      	ldr	r3, [r7, #4]
 80021de:	3304      	adds	r3, #4
 80021e0:	607b      	str	r3, [r7, #4]
 80021e2:	687b      	ldr	r3, [r7, #4]
 80021e4:	4618      	mov	r0, r3
 80021e6:	370c      	adds	r7, #12
 80021e8:	46bd      	mov	sp, r7
 80021ea:	f85d 7b04 	ldr.w	r7, [sp], #4
 80021ee:	4770      	bx	lr
 80021f0:	001ffffe 	.word	0x001ffffe

080021f4 <bufchar>:
 80021f4:	b480      	push	{r7}
 80021f6:	b085      	sub	sp, #20
 80021f8:	af00      	add	r7, sp, #0
 80021fa:	6078      	str	r0, [r7, #4]
 80021fc:	6039      	str	r1, [r7, #0]
 80021fe:	2300      	movs	r3, #0
 8002200:	60fb      	str	r3, [r7, #12]
 8002202:	e00a      	b.n	800221a <bufchar+0x26>
 8002204:	4b0a      	ldr	r3, [pc, #40]	@ (8002230 <bufchar+0x3c>)
 8002206:	681b      	ldr	r3, [r3, #0]
 8002208:	1c5a      	adds	r2, r3, #1
 800220a:	4909      	ldr	r1, [pc, #36]	@ (8002230 <bufchar+0x3c>)
 800220c:	600a      	str	r2, [r1, #0]
 800220e:	781a      	ldrb	r2, [r3, #0]
 8002210:	687b      	ldr	r3, [r7, #4]
 8002212:	701a      	strb	r2, [r3, #0]
 8002214:	68fb      	ldr	r3, [r7, #12]
 8002216:	3301      	adds	r3, #1
 8002218:	60fb      	str	r3, [r7, #12]
 800221a:	68fa      	ldr	r2, [r7, #12]
 800221c:	683b      	ldr	r3, [r7, #0]
 800221e:	429a      	cmp	r2, r3
 8002220:	dbf0      	blt.n	8002204 <bufchar+0x10>
 8002222:	683b      	ldr	r3, [r7, #0]
 8002224:	4618      	mov	r0, r3
 8002226:	3714      	adds	r7, #20
 8002228:	46bd      	mov	sp, r7
 800222a:	f85d 7b04 	ldr.w	r7, [sp], #4
 800222e:	4770      	bx	lr
 8002230:	200004b8 	.word	0x200004b8

08002234 <MQTTPacket_decodeBuf>:
 8002234:	b580      	push	{r7, lr}
 8002236:	b082      	sub	sp, #8
 8002238:	af00      	add	r7, sp, #0
 800223a:	6078      	str	r0, [r7, #4]
 800223c:	6039      	str	r1, [r7, #0]
 800223e:	4a06      	ldr	r2, [pc, #24]	@ (8002258 <MQTTPacket_decodeBuf+0x24>)
 8002240:	687b      	ldr	r3, [r7, #4]
 8002242:	6013      	str	r3, [r2, #0]
 8002244:	6839      	ldr	r1, [r7, #0]
 8002246:	4805      	ldr	r0, [pc, #20]	@ (800225c <MQTTPacket_decodeBuf+0x28>)
 8002248:	f7ff ff6e 	bl	8002128 <MQTTPacket_decode>
 800224c:	4603      	mov	r3, r0
 800224e:	4618      	mov	r0, r3
 8002250:	3708      	adds	r7, #8
 8002252:	46bd      	mov	sp, r7
 8002254:	bd80      	pop	{r7, pc}
 8002256:	bf00      	nop
 8002258:	200004b8 	.word	0x200004b8
 800225c:	080021f5 	.word	0x080021f5

08002260 <readInt>:
 8002260:	b480      	push	{r7}
 8002262:	b085      	sub	sp, #20
 8002264:	af00      	add	r7, sp, #0
 8002266:	6078      	str	r0, [r7, #4]
 8002268:	687b      	ldr	r3, [r7, #4]
 800226a:	681b      	ldr	r3, [r3, #0]
 800226c:	60fb      	str	r3, [r7, #12]
 800226e:	68fb      	ldr	r3, [r7, #12]
 8002270:	781b      	ldrb	r3, [r3, #0]
 8002272:	021b      	lsls	r3, r3, #8
 8002274:	68fa      	ldr	r2, [r7, #12]
 8002276:	3201      	adds	r2, #1
 8002278:	7812      	ldrb	r2, [r2, #0]
 800227a:	4413      	add	r3, r2
 800227c:	60bb      	str	r3, [r7, #8]
 800227e:	687b      	ldr	r3, [r7, #4]
 8002280:	681b      	ldr	r3, [r3, #0]
 8002282:	1c9a      	adds	r2, r3, #2
 8002284:	687b      	ldr	r3, [r7, #4]
 8002286:	601a      	str	r2, [r3, #0]
 8002288:	68bb      	ldr	r3, [r7, #8]
 800228a:	4618      	mov	r0, r3
 800228c:	3714      	adds	r7, #20
 800228e:	46bd      	mov	sp, r7
 8002290:	f85d 7b04 	ldr.w	r7, [sp], #4
 8002294:	4770      	bx	lr

08002296 <readChar>:
 8002296:	b480      	push	{r7}
 8002298:	b085      	sub	sp, #20
 800229a:	af00      	add	r7, sp, #0
 800229c:	6078      	str	r0, [r7, #4]
 800229e:	687b      	ldr	r3, [r7, #4]
 80022a0:	681b      	ldr	r3, [r3, #0]
 80022a2:	781b      	ldrb	r3, [r3, #0]
 80022a4:	73fb      	strb	r3, [r7, #15]
 80022a6:	687b      	ldr	r3, [r7, #4]
 80022a8:	681b      	ldr	r3, [r3, #0]
 80022aa:	1c5a      	adds	r2, r3, #1
 80022ac:	687b      	ldr	r3, [r7, #4]
 80022ae:	601a      	str	r2, [r3, #0]
 80022b0:	7bfb      	ldrb	r3, [r7, #15]
 80022b2:	4618      	mov	r0, r3
 80022b4:	3714      	adds	r7, #20
 80022b6:	46bd      	mov	sp, r7
 80022b8:	f85d 7b04 	ldr.w	r7, [sp], #4
 80022bc:	4770      	bx	lr

080022be <writeChar>:
 80022be:	b480      	push	{r7}
 80022c0:	b083      	sub	sp, #12
 80022c2:	af00      	add	r7, sp, #0
 80022c4:	6078      	str	r0, [r7, #4]
 80022c6:	460b      	mov	r3, r1
 80022c8:	70fb      	strb	r3, [r7, #3]
 80022ca:	687b      	ldr	r3, [r7, #4]
 80022cc:	681b      	ldr	r3, [r3, #0]
 80022ce:	78fa      	ldrb	r2, [r7, #3]
 80022d0:	701a      	strb	r2, [r3, #0]
 80022d2:	687b      	ldr	r3, [r7, #4]
 80022d4:	681b      	ldr	r3, [r3, #0]
 80022d6:	1c5a      	adds	r2, r3, #1
 80022d8:	687b      	ldr	r3, [r7, #4]
 80022da:	601a      	str	r2, [r3, #0]
 80022dc:	bf00      	nop
 80022de:	370c      	adds	r7, #12
 80022e0:	46bd      	mov	sp, r7
 80022e2:	f85d 7b04 	ldr.w	r7, [sp], #4
 80022e6:	4770      	bx	lr

080022e8 <writeInt>:
 80022e8:	b480      	push	{r7}
 80022ea:	b083      	sub	sp, #12
 80022ec:	af00      	add	r7, sp, #0
 80022ee:	6078      	str	r0, [r7, #4]
 80022f0:	6039      	str	r1, [r7, #0]
 80022f2:	683b      	ldr	r3, [r7, #0]
 80022f4:	2b00      	cmp	r3, #0
 80022f6:	da00      	bge.n	80022fa <writeInt+0x12>
 80022f8:	33ff      	adds	r3, #255	@ 0xff
 80022fa:	121b      	asrs	r3, r3, #8
 80022fc:	461a      	mov	r2, r3
 80022fe:	687b      	ldr	r3, [r7, #4]
 8002300:	681b      	ldr	r3, [r3, #0]
 8002302:	b2d2      	uxtb	r2, r2
 8002304:	701a      	strb	r2, [r3, #0]
 8002306:	687b      	ldr	r3, [r7, #4]
 8002308:	681b      	ldr	r3, [r3, #0]
 800230a:	1c5a      	adds	r2, r3, #1
 800230c:	687b      	ldr	r3, [r7, #4]
 800230e:	601a      	str	r2, [r3, #0]
 8002310:	683b      	ldr	r3, [r7, #0]
 8002312:	425a      	negs	r2, r3
 8002314:	b2db      	uxtb	r3, r3
 8002316:	b2d2      	uxtb	r2, r2
 8002318:	bf58      	it	pl
 800231a:	4253      	negpl	r3, r2
 800231c:	687a      	ldr	r2, [r7, #4]
 800231e:	6812      	ldr	r2, [r2, #0]
 8002320:	b2db      	uxtb	r3, r3
 8002322:	7013      	strb	r3, [r2, #0]
 8002324:	687b      	ldr	r3, [r7, #4]
 8002326:	681b      	ldr	r3, [r3, #0]
 8002328:	1c5a      	adds	r2, r3, #1
 800232a:	687b      	ldr	r3, [r7, #4]
 800232c:	601a      	str	r2, [r3, #0]
 800232e:	bf00      	nop
 8002330:	370c      	adds	r7, #12
 8002332:	46bd      	mov	sp, r7
 8002334:	f85d 7b04 	ldr.w	r7, [sp], #4
 8002338:	4770      	bx	lr

0800233a <writeCString>:
 800233a:	b580      	push	{r7, lr}
 800233c:	b084      	sub	sp, #16
 800233e:	af00      	add	r7, sp, #0
 8002340:	6078      	str	r0, [r7, #4]
 8002342:	6039      	str	r1, [r7, #0]
 8002344:	6838      	ldr	r0, [r7, #0]
 8002346:	f7fd ff6b 	bl	8000220 <strlen>
 800234a:	4603      	mov	r3, r0
 800234c:	60fb      	str	r3, [r7, #12]
 800234e:	68f9      	ldr	r1, [r7, #12]
 8002350:	6878      	ldr	r0, [r7, #4]
 8002352:	f7ff ffc9 	bl	80022e8 <writeInt>
 8002356:	687b      	ldr	r3, [r7, #4]
 8002358:	681b      	ldr	r3, [r3, #0]
 800235a:	68fa      	ldr	r2, [r7, #12]
 800235c:	6839      	ldr	r1, [r7, #0]
 800235e:	4618      	mov	r0, r3
 8002360:	f004 fd57 	bl	8006e12 <memcpy>
 8002364:	687b      	ldr	r3, [r7, #4]
 8002366:	681a      	ldr	r2, [r3, #0]
 8002368:	68fb      	ldr	r3, [r7, #12]
 800236a:	441a      	add	r2, r3
 800236c:	687b      	ldr	r3, [r7, #4]
 800236e:	601a      	str	r2, [r3, #0]
 8002370:	bf00      	nop
 8002372:	3710      	adds	r7, #16
 8002374:	46bd      	mov	sp, r7
 8002376:	bd80      	pop	{r7, pc}

08002378 <writeMQTTString>:
 8002378:	b580      	push	{r7, lr}
 800237a:	b084      	sub	sp, #16
 800237c:	af00      	add	r7, sp, #0
 800237e:	60f8      	str	r0, [r7, #12]
 8002380:	4638      	mov	r0, r7
 8002382:	e880 000e 	stmia.w	r0, {r1, r2, r3}
 8002386:	687b      	ldr	r3, [r7, #4]
 8002388:	2b00      	cmp	r3, #0
 800238a:	dd12      	ble.n	80023b2 <writeMQTTString+0x3a>
 800238c:	687b      	ldr	r3, [r7, #4]
 800238e:	4619      	mov	r1, r3
 8002390:	68f8      	ldr	r0, [r7, #12]
 8002392:	f7ff ffa9 	bl	80022e8 <writeInt>
 8002396:	68fb      	ldr	r3, [r7, #12]
 8002398:	681b      	ldr	r3, [r3, #0]
 800239a:	68b9      	ldr	r1, [r7, #8]
 800239c:	687a      	ldr	r2, [r7, #4]
 800239e:	4618      	mov	r0, r3
 80023a0:	f004 fd37 	bl	8006e12 <memcpy>
 80023a4:	68fb      	ldr	r3, [r7, #12]
 80023a6:	681b      	ldr	r3, [r3, #0]
 80023a8:	687a      	ldr	r2, [r7, #4]
 80023aa:	441a      	add	r2, r3
 80023ac:	68fb      	ldr	r3, [r7, #12]
 80023ae:	601a      	str	r2, [r3, #0]
 80023b0:	e00c      	b.n	80023cc <writeMQTTString+0x54>
 80023b2:	683b      	ldr	r3, [r7, #0]
 80023b4:	2b00      	cmp	r3, #0
 80023b6:	d005      	beq.n	80023c4 <writeMQTTString+0x4c>
 80023b8:	683b      	ldr	r3, [r7, #0]
 80023ba:	4619      	mov	r1, r3
 80023bc:	68f8      	ldr	r0, [r7, #12]
 80023be:	f7ff ffbc 	bl	800233a <writeCString>
 80023c2:	e003      	b.n	80023cc <writeMQTTString+0x54>
 80023c4:	2100      	movs	r1, #0
 80023c6:	68f8      	ldr	r0, [r7, #12]
 80023c8:	f7ff ff8e 	bl	80022e8 <writeInt>
 80023cc:	bf00      	nop
 80023ce:	3710      	adds	r7, #16
 80023d0:	46bd      	mov	sp, r7
 80023d2:	bd80      	pop	{r7, pc}

080023d4 <readMQTTLenString>:
 80023d4:	b580      	push	{r7, lr}
 80023d6:	b086      	sub	sp, #24
 80023d8:	af00      	add	r7, sp, #0
 80023da:	60f8      	str	r0, [r7, #12]
 80023dc:	60b9      	str	r1, [r7, #8]
 80023de:	607a      	str	r2, [r7, #4]
 80023e0:	2300      	movs	r3, #0
 80023e2:	617b      	str	r3, [r7, #20]
 80023e4:	68bb      	ldr	r3, [r7, #8]
 80023e6:	681b      	ldr	r3, [r3, #0]
 80023e8:	687a      	ldr	r2, [r7, #4]
 80023ea:	1ad3      	subs	r3, r2, r3
 80023ec:	2b01      	cmp	r3, #1
 80023ee:	dd1a      	ble.n	8002426 <readMQTTLenString+0x52>
 80023f0:	68b8      	ldr	r0, [r7, #8]
 80023f2:	f7ff ff35 	bl	8002260 <readInt>
 80023f6:	4602      	mov	r2, r0
 80023f8:	68fb      	ldr	r3, [r7, #12]
 80023fa:	605a      	str	r2, [r3, #4]
 80023fc:	68bb      	ldr	r3, [r7, #8]
 80023fe:	681b      	ldr	r3, [r3, #0]
 8002400:	68fa      	ldr	r2, [r7, #12]
 8002402:	6852      	ldr	r2, [r2, #4]
 8002404:	4413      	add	r3, r2
 8002406:	687a      	ldr	r2, [r7, #4]
 8002408:	429a      	cmp	r2, r3
 800240a:	d30c      	bcc.n	8002426 <readMQTTLenString+0x52>
 800240c:	68bb      	ldr	r3, [r7, #8]
 800240e:	681a      	ldr	r2, [r3, #0]
 8002410:	68fb      	ldr	r3, [r7, #12]
 8002412:	609a      	str	r2, [r3, #8]
 8002414:	68bb      	ldr	r3, [r7, #8]
 8002416:	681b      	ldr	r3, [r3, #0]
 8002418:	68fa      	ldr	r2, [r7, #12]
 800241a:	6852      	ldr	r2, [r2, #4]
 800241c:	441a      	add	r2, r3
 800241e:	68bb      	ldr	r3, [r7, #8]
 8002420:	601a      	str	r2, [r3, #0]
 8002422:	2301      	movs	r3, #1
 8002424:	617b      	str	r3, [r7, #20]
 8002426:	68fb      	ldr	r3, [r7, #12]
 8002428:	2200      	movs	r2, #0
 800242a:	601a      	str	r2, [r3, #0]
 800242c:	697b      	ldr	r3, [r7, #20]
 800242e:	4618      	mov	r0, r3
 8002430:	3718      	adds	r7, #24
 8002432:	46bd      	mov	sp, r7
 8002434:	bd80      	pop	{r7, pc}

08002436 <MQTTstrlen>:
 8002436:	b580      	push	{r7, lr}
 8002438:	b086      	sub	sp, #24
 800243a:	af00      	add	r7, sp, #0
 800243c:	1d3b      	adds	r3, r7, #4
 800243e:	e883 0007 	stmia.w	r3, {r0, r1, r2}
 8002442:	2300      	movs	r3, #0
 8002444:	617b      	str	r3, [r7, #20]
 8002446:	687b      	ldr	r3, [r7, #4]
 8002448:	2b00      	cmp	r3, #0
 800244a:	d006      	beq.n	800245a <MQTTstrlen+0x24>
 800244c:	687b      	ldr	r3, [r7, #4]
 800244e:	4618      	mov	r0, r3
 8002450:	f7fd fee6 	bl	8000220 <strlen>
 8002454:	4603      	mov	r3, r0
 8002456:	617b      	str	r3, [r7, #20]
 8002458:	e001      	b.n	800245e <MQTTstrlen+0x28>
 800245a:	68bb      	ldr	r3, [r7, #8]
 800245c:	617b      	str	r3, [r7, #20]
 800245e:	697b      	ldr	r3, [r7, #20]
 8002460:	4618      	mov	r0, r3
 8002462:	3718      	adds	r7, #24
 8002464:	46bd      	mov	sp, r7
 8002466:	bd80      	pop	{r7, pc}

08002468 <MQTTPacket_equals>:
 8002468:	b580      	push	{r7, lr}
 800246a:	b086      	sub	sp, #24
 800246c:	af00      	add	r7, sp, #0
 800246e:	6078      	str	r0, [r7, #4]
 8002470:	6039      	str	r1, [r7, #0]
 8002472:	2300      	movs	r3, #0
 8002474:	617b      	str	r3, [r7, #20]
 8002476:	2300      	movs	r3, #0
 8002478:	60fb      	str	r3, [r7, #12]
 800247a:	687b      	ldr	r3, [r7, #4]
 800247c:	681b      	ldr	r3, [r3, #0]
 800247e:	2b00      	cmp	r3, #0
 8002480:	d00a      	beq.n	8002498 <MQTTPacket_equals+0x30>
 8002482:	687b      	ldr	r3, [r7, #4]
 8002484:	681b      	ldr	r3, [r3, #0]
 8002486:	613b      	str	r3, [r7, #16]
 8002488:	687b      	ldr	r3, [r7, #4]
 800248a:	681b      	ldr	r3, [r3, #0]
 800248c:	4618      	mov	r0, r3
 800248e:	f7fd fec7 	bl	8000220 <strlen>
 8002492:	4603      	mov	r3, r0
 8002494:	617b      	str	r3, [r7, #20]
 8002496:	e005      	b.n	80024a4 <MQTTPacket_equals+0x3c>
 8002498:	687b      	ldr	r3, [r7, #4]
 800249a:	689b      	ldr	r3, [r3, #8]
 800249c:	613b      	str	r3, [r7, #16]
 800249e:	687b      	ldr	r3, [r7, #4]
 80024a0:	685b      	ldr	r3, [r3, #4]
 80024a2:	617b      	str	r3, [r7, #20]
 80024a4:	6838      	ldr	r0, [r7, #0]
 80024a6:	f7fd febb 	bl	8000220 <strlen>
 80024aa:	4603      	mov	r3, r0
 80024ac:	60fb      	str	r3, [r7, #12]
 80024ae:	697a      	ldr	r2, [r7, #20]
 80024b0:	68fb      	ldr	r3, [r7, #12]
 80024b2:	429a      	cmp	r2, r3
 80024b4:	d10a      	bne.n	80024cc <MQTTPacket_equals+0x64>
 80024b6:	697b      	ldr	r3, [r7, #20]
 80024b8:	461a      	mov	r2, r3
 80024ba:	6839      	ldr	r1, [r7, #0]
 80024bc:	6938      	ldr	r0, [r7, #16]
 80024be:	f004 fc23 	bl	8006d08 <strncmp>
 80024c2:	4603      	mov	r3, r0
 80024c4:	2b00      	cmp	r3, #0
 80024c6:	d101      	bne.n	80024cc <MQTTPacket_equals+0x64>
 80024c8:	2301      	movs	r3, #1
 80024ca:	e000      	b.n	80024ce <MQTTPacket_equals+0x66>
 80024cc:	2300      	movs	r3, #0
 80024ce:	4618      	mov	r0, r3
 80024d0:	3718      	adds	r7, #24
 80024d2:	46bd      	mov	sp, r7
 80024d4:	bd80      	pop	{r7, pc}

080024d6 <MQTTSerialize_publishLength>:
 80024d6:	b580      	push	{r7, lr}
 80024d8:	b086      	sub	sp, #24
 80024da:	af00      	add	r7, sp, #0
 80024dc:	60f8      	str	r0, [r7, #12]
 80024de:	4638      	mov	r0, r7
 80024e0:	e880 000e 	stmia.w	r0, {r1, r2, r3}
 80024e4:	2300      	movs	r3, #0
 80024e6:	617b      	str	r3, [r7, #20]
 80024e8:	463b      	mov	r3, r7
 80024ea:	e893 0007 	ldmia.w	r3, {r0, r1, r2}
 80024ee:	f7ff ffa2 	bl	8002436 <MQTTstrlen>
 80024f2:	4603      	mov	r3, r0
 80024f4:	1c9a      	adds	r2, r3, #2
 80024f6:	6a3b      	ldr	r3, [r7, #32]
 80024f8:	4413      	add	r3, r2
 80024fa:	697a      	ldr	r2, [r7, #20]
 80024fc:	4413      	add	r3, r2
 80024fe:	617b      	str	r3, [r7, #20]
 8002500:	68fb      	ldr	r3, [r7, #12]
 8002502:	2b00      	cmp	r3, #0
 8002504:	dd02      	ble.n	800250c <MQTTSerialize_publishLength+0x36>
 8002506:	697b      	ldr	r3, [r7, #20]
 8002508:	3302      	adds	r3, #2
 800250a:	617b      	str	r3, [r7, #20]
 800250c:	697b      	ldr	r3, [r7, #20]
 800250e:	4618      	mov	r0, r3
 8002510:	3718      	adds	r7, #24
 8002512:	46bd      	mov	sp, r7
 8002514:	bd80      	pop	{r7, pc}

08002516 <MQTTSerialize_publish>:
 8002516:	b580      	push	{r7, lr}
 8002518:	b08a      	sub	sp, #40	@ 0x28
 800251a:	af02      	add	r7, sp, #8
 800251c:	60f8      	str	r0, [r7, #12]
 800251e:	60b9      	str	r1, [r7, #8]
 8002520:	603b      	str	r3, [r7, #0]
 8002522:	4613      	mov	r3, r2
 8002524:	71fb      	strb	r3, [r7, #7]
 8002526:	68fb      	ldr	r3, [r7, #12]
 8002528:	617b      	str	r3, [r7, #20]
 800252a:	2300      	movs	r3, #0
 800252c:	613b      	str	r3, [r7, #16]
 800252e:	2300      	movs	r3, #0
 8002530:	61bb      	str	r3, [r7, #24]
 8002532:	2300      	movs	r3, #0
 8002534:	61fb      	str	r3, [r7, #28]
 8002536:	6c3b      	ldr	r3, [r7, #64]	@ 0x40
 8002538:	9300      	str	r3, [sp, #0]
 800253a:	f107 0330 	add.w	r3, r7, #48	@ 0x30
 800253e:	cb0e      	ldmia	r3, {r1, r2, r3}
 8002540:	6838      	ldr	r0, [r7, #0]
 8002542:	f7ff ffc8 	bl	80024d6 <MQTTSerialize_publishLength>
 8002546:	61b8      	str	r0, [r7, #24]
 8002548:	69b8      	ldr	r0, [r7, #24]
 800254a:	f7ff fe29 	bl	80021a0 <MQTTPacket_len>
 800254e:	4602      	mov	r2, r0
 8002550:	68bb      	ldr	r3, [r7, #8]
 8002552:	4293      	cmp	r3, r2
 8002554:	da03      	bge.n	800255e <MQTTSerialize_publish+0x48>
 8002556:	f06f 0301 	mvn.w	r3, #1
 800255a:	61fb      	str	r3, [r7, #28]
 800255c:	e04c      	b.n	80025f8 <MQTTSerialize_publish+0xe2>
 800255e:	7c3b      	ldrb	r3, [r7, #16]
 8002560:	2203      	movs	r2, #3
 8002562:	f362 1307 	bfi	r3, r2, #4, #4
 8002566:	743b      	strb	r3, [r7, #16]
 8002568:	79fb      	ldrb	r3, [r7, #7]
 800256a:	f003 0301 	and.w	r3, r3, #1
 800256e:	b2da      	uxtb	r2, r3
 8002570:	7c3b      	ldrb	r3, [r7, #16]
 8002572:	f362 03c3 	bfi	r3, r2, #3, #1
 8002576:	743b      	strb	r3, [r7, #16]
 8002578:	683b      	ldr	r3, [r7, #0]
 800257a:	f003 0303 	and.w	r3, r3, #3
 800257e:	b2da      	uxtb	r2, r3
 8002580:	7c3b      	ldrb	r3, [r7, #16]
 8002582:	f362 0342 	bfi	r3, r2, #1, #2
 8002586:	743b      	strb	r3, [r7, #16]
 8002588:	f897 3028 	ldrb.w	r3, [r7, #40]	@ 0x28
 800258c:	f003 0301 	and.w	r3, r3, #1
 8002590:	b2da      	uxtb	r2, r3
 8002592:	7c3b      	ldrb	r3, [r7, #16]
 8002594:	f362 0300 	bfi	r3, r2, #0, #1
 8002598:	743b      	strb	r3, [r7, #16]
 800259a:	7c3a      	ldrb	r2, [r7, #16]
 800259c:	f107 0314 	add.w	r3, r7, #20
 80025a0:	4611      	mov	r1, r2
 80025a2:	4618      	mov	r0, r3
 80025a4:	f7ff fe8b 	bl	80022be <writeChar>
 80025a8:	697b      	ldr	r3, [r7, #20]
 80025aa:	69b9      	ldr	r1, [r7, #24]
 80025ac:	4618      	mov	r0, r3
 80025ae:	f7ff fd8c 	bl	80020ca <MQTTPacket_encode>
 80025b2:	4602      	mov	r2, r0
 80025b4:	697b      	ldr	r3, [r7, #20]
 80025b6:	4413      	add	r3, r2
 80025b8:	617b      	str	r3, [r7, #20]
 80025ba:	f107 0014 	add.w	r0, r7, #20
 80025be:	f107 0330 	add.w	r3, r7, #48	@ 0x30
 80025c2:	cb0e      	ldmia	r3, {r1, r2, r3}
 80025c4:	f7ff fed8 	bl	8002378 <writeMQTTString>
 80025c8:	683b      	ldr	r3, [r7, #0]
 80025ca:	2b00      	cmp	r3, #0
 80025cc:	dd06      	ble.n	80025dc <MQTTSerialize_publish+0xc6>
 80025ce:	8dba      	ldrh	r2, [r7, #44]	@ 0x2c
 80025d0:	f107 0314 	add.w	r3, r7, #20
 80025d4:	4611      	mov	r1, r2
 80025d6:	4618      	mov	r0, r3
 80025d8:	f7ff fe86 	bl	80022e8 <writeInt>
 80025dc:	697b      	ldr	r3, [r7, #20]
 80025de:	6c3a      	ldr	r2, [r7, #64]	@ 0x40
 80025e0:	6bf9      	ldr	r1, [r7, #60]	@ 0x3c
 80025e2:	4618      	mov	r0, r3
 80025e4:	f004 fc15 	bl	8006e12 <memcpy>
 80025e8:	697a      	ldr	r2, [r7, #20]
 80025ea:	6c3b      	ldr	r3, [r7, #64]	@ 0x40
 80025ec:	4413      	add	r3, r2
 80025ee:	617b      	str	r3, [r7, #20]
 80025f0:	697a      	ldr	r2, [r7, #20]
 80025f2:	68fb      	ldr	r3, [r7, #12]
 80025f4:	1ad3      	subs	r3, r2, r3
 80025f6:	61fb      	str	r3, [r7, #28]
 80025f8:	69fb      	ldr	r3, [r7, #28]
 80025fa:	4618      	mov	r0, r3
 80025fc:	3720      	adds	r7, #32
 80025fe:	46bd      	mov	sp, r7
 8002600:	bd80      	pop	{r7, pc}

08002602 <MQTTSerialize_ack>:
 8002602:	b580      	push	{r7, lr}
 8002604:	b088      	sub	sp, #32
 8002606:	af00      	add	r7, sp, #0
 8002608:	60f8      	str	r0, [r7, #12]
 800260a:	60b9      	str	r1, [r7, #8]
 800260c:	4611      	mov	r1, r2
 800260e:	461a      	mov	r2, r3
 8002610:	460b      	mov	r3, r1
 8002612:	71fb      	strb	r3, [r7, #7]
 8002614:	4613      	mov	r3, r2
 8002616:	71bb      	strb	r3, [r7, #6]
 8002618:	2300      	movs	r3, #0
 800261a:	61bb      	str	r3, [r7, #24]
 800261c:	2300      	movs	r3, #0
 800261e:	61fb      	str	r3, [r7, #28]
 8002620:	68fb      	ldr	r3, [r7, #12]
 8002622:	617b      	str	r3, [r7, #20]
 8002624:	68bb      	ldr	r3, [r7, #8]
 8002626:	2b03      	cmp	r3, #3
 8002628:	dc03      	bgt.n	8002632 <MQTTSerialize_ack+0x30>
 800262a:	f06f 0301 	mvn.w	r3, #1
 800262e:	61fb      	str	r3, [r7, #28]
 8002630:	e037      	b.n	80026a2 <MQTTSerialize_ack+0xa0>
 8002632:	79fb      	ldrb	r3, [r7, #7]
 8002634:	f003 030f 	and.w	r3, r3, #15
 8002638:	b2da      	uxtb	r2, r3
 800263a:	7e3b      	ldrb	r3, [r7, #24]
 800263c:	f362 1307 	bfi	r3, r2, #4, #4
 8002640:	763b      	strb	r3, [r7, #24]
 8002642:	79bb      	ldrb	r3, [r7, #6]
 8002644:	f003 0301 	and.w	r3, r3, #1
 8002648:	b2da      	uxtb	r2, r3
 800264a:	7e3b      	ldrb	r3, [r7, #24]
 800264c:	f362 03c3 	bfi	r3, r2, #3, #1
 8002650:	763b      	strb	r3, [r7, #24]
 8002652:	79fb      	ldrb	r3, [r7, #7]
 8002654:	2b06      	cmp	r3, #6
 8002656:	bf0c      	ite	eq
 8002658:	2301      	moveq	r3, #1
 800265a:	2300      	movne	r3, #0
 800265c:	b2db      	uxtb	r3, r3
 800265e:	f003 0303 	and.w	r3, r3, #3
 8002662:	b2da      	uxtb	r2, r3
 8002664:	7e3b      	ldrb	r3, [r7, #24]
 8002666:	f362 0342 	bfi	r3, r2, #1, #2
 800266a:	763b      	strb	r3, [r7, #24]
 800266c:	7e3a      	ldrb	r2, [r7, #24]
 800266e:	f107 0314 	add.w	r3, r7, #20
 8002672:	4611      	mov	r1, r2
 8002674:	4618      	mov	r0, r3
 8002676:	f7ff fe22 	bl	80022be <writeChar>
 800267a:	697b      	ldr	r3, [r7, #20]
 800267c:	2102      	movs	r1, #2
 800267e:	4618      	mov	r0, r3
 8002680:	f7ff fd23 	bl	80020ca <MQTTPacket_encode>
 8002684:	4602      	mov	r2, r0
 8002686:	697b      	ldr	r3, [r7, #20]
 8002688:	4413      	add	r3, r2
 800268a:	617b      	str	r3, [r7, #20]
 800268c:	8d3a      	ldrh	r2, [r7, #40]	@ 0x28
 800268e:	f107 0314 	add.w	r3, r7, #20
 8002692:	4611      	mov	r1, r2
 8002694:	4618      	mov	r0, r3
 8002696:	f7ff fe27 	bl	80022e8 <writeInt>
 800269a:	697a      	ldr	r2, [r7, #20]
 800269c:	68fb      	ldr	r3, [r7, #12]
 800269e:	1ad3      	subs	r3, r2, r3
 80026a0:	61fb      	str	r3, [r7, #28]
 80026a2:	69fb      	ldr	r3, [r7, #28]
 80026a4:	4618      	mov	r0, r3
 80026a6:	3720      	adds	r7, #32
 80026a8:	46bd      	mov	sp, r7
 80026aa:	bd80      	pop	{r7, pc}

080026ac <WIZCHIP_READ>:
 80026ac:	b580      	push	{r7, lr}
 80026ae:	b084      	sub	sp, #16
 80026b0:	af00      	add	r7, sp, #0
 80026b2:	6078      	str	r0, [r7, #4]
 80026b4:	4b22      	ldr	r3, [pc, #136]	@ (8002740 <WIZCHIP_READ+0x94>)
 80026b6:	68db      	ldr	r3, [r3, #12]
 80026b8:	4798      	blx	r3
 80026ba:	4b21      	ldr	r3, [pc, #132]	@ (8002740 <WIZCHIP_READ+0x94>)
 80026bc:	695b      	ldr	r3, [r3, #20]
 80026be:	4798      	blx	r3
 80026c0:	4b1f      	ldr	r3, [pc, #124]	@ (8002740 <WIZCHIP_READ+0x94>)
 80026c2:	6a5b      	ldr	r3, [r3, #36]	@ 0x24
 80026c4:	2b00      	cmp	r3, #0
 80026c6:	d003      	beq.n	80026d0 <WIZCHIP_READ+0x24>
 80026c8:	4b1d      	ldr	r3, [pc, #116]	@ (8002740 <WIZCHIP_READ+0x94>)
 80026ca:	6a9b      	ldr	r3, [r3, #40]	@ 0x28
 80026cc:	2b00      	cmp	r3, #0
 80026ce:	d114      	bne.n	80026fa <WIZCHIP_READ+0x4e>
 80026d0:	4b1b      	ldr	r3, [pc, #108]	@ (8002740 <WIZCHIP_READ+0x94>)
 80026d2:	6a1b      	ldr	r3, [r3, #32]
 80026d4:	687a      	ldr	r2, [r7, #4]
 80026d6:	0c12      	lsrs	r2, r2, #16
 80026d8:	b2d2      	uxtb	r2, r2
 80026da:	4610      	mov	r0, r2
 80026dc:	4798      	blx	r3
 80026de:	4b18      	ldr	r3, [pc, #96]	@ (8002740 <WIZCHIP_READ+0x94>)
 80026e0:	6a1b      	ldr	r3, [r3, #32]
 80026e2:	687a      	ldr	r2, [r7, #4]
 80026e4:	0a12      	lsrs	r2, r2, #8
 80026e6:	b2d2      	uxtb	r2, r2
 80026e8:	4610      	mov	r0, r2
 80026ea:	4798      	blx	r3
 80026ec:	4b14      	ldr	r3, [pc, #80]	@ (8002740 <WIZCHIP_READ+0x94>)
 80026ee:	6a1b      	ldr	r3, [r3, #32]
 80026f0:	687a      	ldr	r2, [r7, #4]
 80026f2:	b2d2      	uxtb	r2, r2
 80026f4:	4610      	mov	r0, r2
 80026f6:	4798      	blx	r3
 80026f8:	e011      	b.n	800271e <WIZCHIP_READ+0x72>
 80026fa:	687b      	ldr	r3, [r7, #4]
 80026fc:	0c1b      	lsrs	r3, r3, #16
 80026fe:	b2db      	uxtb	r3, r3
 8002700:	733b      	strb	r3, [r7, #12]
 8002702:	687b      	ldr	r3, [r7, #4]
 8002704:	0a1b      	lsrs	r3, r3, #8
 8002706:	b2db      	uxtb	r3, r3
 8002708:	737b      	strb	r3, [r7, #13]
 800270a:	687b      	ldr	r3, [r7, #4]
 800270c:	b2db      	uxtb	r3, r3
 800270e:	73bb      	strb	r3, [r7, #14]
 8002710:	4b0b      	ldr	r3, [pc, #44]	@ (8002740 <WIZCHIP_READ+0x94>)
 8002712:	6a9b      	ldr	r3, [r3, #40]	@ 0x28
 8002714:	f107 020c 	add.w	r2, r7, #12
 8002718:	2103      	movs	r1, #3
 800271a:	4610      	mov	r0, r2
 800271c:	4798      	blx	r3
 800271e:	4b08      	ldr	r3, [pc, #32]	@ (8002740 <WIZCHIP_READ+0x94>)
 8002720:	69db      	ldr	r3, [r3, #28]
 8002722:	4798      	blx	r3
 8002724:	4603      	mov	r3, r0
 8002726:	73fb      	strb	r3, [r7, #15]
 8002728:	4b05      	ldr	r3, [pc, #20]	@ (8002740 <WIZCHIP_READ+0x94>)
 800272a:	699b      	ldr	r3, [r3, #24]
 800272c:	4798      	blx	r3
 800272e:	4b04      	ldr	r3, [pc, #16]	@ (8002740 <WIZCHIP_READ+0x94>)
 8002730:	691b      	ldr	r3, [r3, #16]
 8002732:	4798      	blx	r3
 8002734:	7bfb      	ldrb	r3, [r7, #15]
 8002736:	4618      	mov	r0, r3
 8002738:	3710      	adds	r7, #16
 800273a:	46bd      	mov	sp, r7
 800273c:	bd80      	pop	{r7, pc}
 800273e:	bf00      	nop
 8002740:	20000090 	.word	0x20000090

08002744 <WIZCHIP_WRITE>:
 8002744:	b580      	push	{r7, lr}
 8002746:	b084      	sub	sp, #16
 8002748:	af00      	add	r7, sp, #0
 800274a:	6078      	str	r0, [r7, #4]
 800274c:	460b      	mov	r3, r1
 800274e:	70fb      	strb	r3, [r7, #3]
 8002750:	4b22      	ldr	r3, [pc, #136]	@ (80027dc <WIZCHIP_WRITE+0x98>)
 8002752:	68db      	ldr	r3, [r3, #12]
 8002754:	4798      	blx	r3
 8002756:	4b21      	ldr	r3, [pc, #132]	@ (80027dc <WIZCHIP_WRITE+0x98>)
 8002758:	695b      	ldr	r3, [r3, #20]
 800275a:	4798      	blx	r3
 800275c:	687b      	ldr	r3, [r7, #4]
 800275e:	f043 0304 	orr.w	r3, r3, #4
 8002762:	607b      	str	r3, [r7, #4]
 8002764:	4b1d      	ldr	r3, [pc, #116]	@ (80027dc <WIZCHIP_WRITE+0x98>)
 8002766:	6a9b      	ldr	r3, [r3, #40]	@ 0x28
 8002768:	2b00      	cmp	r3, #0
 800276a:	d119      	bne.n	80027a0 <WIZCHIP_WRITE+0x5c>
 800276c:	4b1b      	ldr	r3, [pc, #108]	@ (80027dc <WIZCHIP_WRITE+0x98>)
 800276e:	6a1b      	ldr	r3, [r3, #32]
 8002770:	687a      	ldr	r2, [r7, #4]
 8002772:	0c12      	lsrs	r2, r2, #16
 8002774:	b2d2      	uxtb	r2, r2
 8002776:	4610      	mov	r0, r2
 8002778:	4798      	blx	r3
 800277a:	4b18      	ldr	r3, [pc, #96]	@ (80027dc <WIZCHIP_WRITE+0x98>)
 800277c:	6a1b      	ldr	r3, [r3, #32]
 800277e:	687a      	ldr	r2, [r7, #4]
 8002780:	0a12      	lsrs	r2, r2, #8
 8002782:	b2d2      	uxtb	r2, r2
 8002784:	4610      	mov	r0, r2
 8002786:	4798      	blx	r3
 8002788:	4b14      	ldr	r3, [pc, #80]	@ (80027dc <WIZCHIP_WRITE+0x98>)
 800278a:	6a1b      	ldr	r3, [r3, #32]
 800278c:	687a      	ldr	r2, [r7, #4]
 800278e:	b2d2      	uxtb	r2, r2
 8002790:	4610      	mov	r0, r2
 8002792:	4798      	blx	r3
 8002794:	4b11      	ldr	r3, [pc, #68]	@ (80027dc <WIZCHIP_WRITE+0x98>)
 8002796:	6a1b      	ldr	r3, [r3, #32]
 8002798:	78fa      	ldrb	r2, [r7, #3]
 800279a:	4610      	mov	r0, r2
 800279c:	4798      	blx	r3
 800279e:	e013      	b.n	80027c8 <WIZCHIP_WRITE+0x84>
 80027a0:	687b      	ldr	r3, [r7, #4]
 80027a2:	0c1b      	lsrs	r3, r3, #16
 80027a4:	b2db      	uxtb	r3, r3
 80027a6:	733b      	strb	r3, [r7, #12]
 80027a8:	687b      	ldr	r3, [r7, #4]
 80027aa:	0a1b      	lsrs	r3, r3, #8
 80027ac:	b2db      	uxtb	r3, r3
 80027ae:	737b      	strb	r3, [r7, #13]
 80027b0:	687b      	ldr	r3, [r7, #4]
 80027b2:	b2db      	uxtb	r3, r3
 80027b4:	73bb      	strb	r3, [r7, #14]
 80027b6:	78fb      	ldrb	r3, [r7, #3]
 80027b8:	73fb      	strb	r3, [r7, #15]
 80027ba:	4b08      	ldr	r3, [pc, #32]	@ (80027dc <WIZCHIP_WRITE+0x98>)
 80027bc:	6a9b      	ldr	r3, [r3, #40]	@ 0x28
 80027be:	f107 020c 	add.w	r2, r7, #12
 80027c2:	2104      	movs	r1, #4
 80027c4:	4610      	mov	r0, r2
 80027c6:	4798      	blx	r3
 80027c8:	4b04      	ldr	r3, [pc, #16]	@ (80027dc <WIZCHIP_WRITE+0x98>)
 80027ca:	699b      	ldr	r3, [r3, #24]
 80027cc:	4798      	blx	r3
 80027ce:	4b03      	ldr	r3, [pc, #12]	@ (80027dc <WIZCHIP_WRITE+0x98>)
 80027d0:	691b      	ldr	r3, [r3, #16]
 80027d2:	4798      	blx	r3
 80027d4:	bf00      	nop
 80027d6:	3710      	adds	r7, #16
 80027d8:	46bd      	mov	sp, r7
 80027da:	bd80      	pop	{r7, pc}
 80027dc:	20000090 	.word	0x20000090

080027e0 <WIZCHIP_READ_BUF>:
 80027e0:	b590      	push	{r4, r7, lr}
 80027e2:	b087      	sub	sp, #28
 80027e4:	af00      	add	r7, sp, #0
 80027e6:	60f8      	str	r0, [r7, #12]
 80027e8:	60b9      	str	r1, [r7, #8]
 80027ea:	4613      	mov	r3, r2
 80027ec:	80fb      	strh	r3, [r7, #6]
 80027ee:	4b2b      	ldr	r3, [pc, #172]	@ (800289c <WIZCHIP_READ_BUF+0xbc>)
 80027f0:	68db      	ldr	r3, [r3, #12]
 80027f2:	4798      	blx	r3
 80027f4:	4b29      	ldr	r3, [pc, #164]	@ (800289c <WIZCHIP_READ_BUF+0xbc>)
 80027f6:	695b      	ldr	r3, [r3, #20]
 80027f8:	4798      	blx	r3
 80027fa:	4b28      	ldr	r3, [pc, #160]	@ (800289c <WIZCHIP_READ_BUF+0xbc>)
 80027fc:	6a5b      	ldr	r3, [r3, #36]	@ 0x24
 80027fe:	2b00      	cmp	r3, #0
 8002800:	d003      	beq.n	800280a <WIZCHIP_READ_BUF+0x2a>
 8002802:	4b26      	ldr	r3, [pc, #152]	@ (800289c <WIZCHIP_READ_BUF+0xbc>)
 8002804:	6a9b      	ldr	r3, [r3, #40]	@ 0x28
 8002806:	2b00      	cmp	r3, #0
 8002808:	d126      	bne.n	8002858 <WIZCHIP_READ_BUF+0x78>
 800280a:	4b24      	ldr	r3, [pc, #144]	@ (800289c <WIZCHIP_READ_BUF+0xbc>)
 800280c:	6a1b      	ldr	r3, [r3, #32]
 800280e:	68fa      	ldr	r2, [r7, #12]
 8002810:	0c12      	lsrs	r2, r2, #16
 8002812:	b2d2      	uxtb	r2, r2
 8002814:	4610      	mov	r0, r2
 8002816:	4798      	blx	r3
 8002818:	4b20      	ldr	r3, [pc, #128]	@ (800289c <WIZCHIP_READ_BUF+0xbc>)
 800281a:	6a1b      	ldr	r3, [r3, #32]
 800281c:	68fa      	ldr	r2, [r7, #12]
 800281e:	0a12      	lsrs	r2, r2, #8
 8002820:	b2d2      	uxtb	r2, r2
 8002822:	4610      	mov	r0, r2
 8002824:	4798      	blx	r3
 8002826:	4b1d      	ldr	r3, [pc, #116]	@ (800289c <WIZCHIP_READ_BUF+0xbc>)
 8002828:	6a1b      	ldr	r3, [r3, #32]
 800282a:	68fa      	ldr	r2, [r7, #12]
 800282c:	b2d2      	uxtb	r2, r2
 800282e:	4610      	mov	r0, r2
 8002830:	4798      	blx	r3
 8002832:	2300      	movs	r3, #0
 8002834:	82fb      	strh	r3, [r7, #22]
 8002836:	e00a      	b.n	800284e <WIZCHIP_READ_BUF+0x6e>
 8002838:	4b18      	ldr	r3, [pc, #96]	@ (800289c <WIZCHIP_READ_BUF+0xbc>)
 800283a:	69db      	ldr	r3, [r3, #28]
 800283c:	8afa      	ldrh	r2, [r7, #22]
 800283e:	68b9      	ldr	r1, [r7, #8]
 8002840:	188c      	adds	r4, r1, r2
 8002842:	4798      	blx	r3
 8002844:	4603      	mov	r3, r0
 8002846:	7023      	strb	r3, [r4, #0]
 8002848:	8afb      	ldrh	r3, [r7, #22]
 800284a:	3301      	adds	r3, #1
 800284c:	82fb      	strh	r3, [r7, #22]
 800284e:	8afa      	ldrh	r2, [r7, #22]
 8002850:	88fb      	ldrh	r3, [r7, #6]
 8002852:	429a      	cmp	r2, r3
 8002854:	d3f0      	bcc.n	8002838 <WIZCHIP_READ_BUF+0x58>
 8002856:	e017      	b.n	8002888 <WIZCHIP_READ_BUF+0xa8>
 8002858:	68fb      	ldr	r3, [r7, #12]
 800285a:	0c1b      	lsrs	r3, r3, #16
 800285c:	b2db      	uxtb	r3, r3
 800285e:	743b      	strb	r3, [r7, #16]
 8002860:	68fb      	ldr	r3, [r7, #12]
 8002862:	0a1b      	lsrs	r3, r3, #8
 8002864:	b2db      	uxtb	r3, r3
 8002866:	747b      	strb	r3, [r7, #17]
 8002868:	68fb      	ldr	r3, [r7, #12]
 800286a:	b2db      	uxtb	r3, r3
 800286c:	74bb      	strb	r3, [r7, #18]
 800286e:	4b0b      	ldr	r3, [pc, #44]	@ (800289c <WIZCHIP_READ_BUF+0xbc>)
 8002870:	6a9b      	ldr	r3, [r3, #40]	@ 0x28
 8002872:	f107 0210 	add.w	r2, r7, #16
 8002876:	2103      	movs	r1, #3
 8002878:	4610      	mov	r0, r2
 800287a:	4798      	blx	r3
 800287c:	4b07      	ldr	r3, [pc, #28]	@ (800289c <WIZCHIP_READ_BUF+0xbc>)
 800287e:	6a5b      	ldr	r3, [r3, #36]	@ 0x24
 8002880:	88fa      	ldrh	r2, [r7, #6]
 8002882:	4611      	mov	r1, r2
 8002884:	68b8      	ldr	r0, [r7, #8]
 8002886:	4798      	blx	r3
 8002888:	4b04      	ldr	r3, [pc, #16]	@ (800289c <WIZCHIP_READ_BUF+0xbc>)
 800288a:	699b      	ldr	r3, [r3, #24]
 800288c:	4798      	blx	r3
 800288e:	4b03      	ldr	r3, [pc, #12]	@ (800289c <WIZCHIP_READ_BUF+0xbc>)
 8002890:	691b      	ldr	r3, [r3, #16]
 8002892:	4798      	blx	r3
 8002894:	bf00      	nop
 8002896:	371c      	adds	r7, #28
 8002898:	46bd      	mov	sp, r7
 800289a:	bd90      	pop	{r4, r7, pc}
 800289c:	20000090 	.word	0x20000090

080028a0 <WIZCHIP_WRITE_BUF>:
 80028a0:	b580      	push	{r7, lr}
 80028a2:	b086      	sub	sp, #24
 80028a4:	af00      	add	r7, sp, #0
 80028a6:	60f8      	str	r0, [r7, #12]
 80028a8:	60b9      	str	r1, [r7, #8]
 80028aa:	4613      	mov	r3, r2
 80028ac:	80fb      	strh	r3, [r7, #6]
 80028ae:	4b2b      	ldr	r3, [pc, #172]	@ (800295c <WIZCHIP_WRITE_BUF+0xbc>)
 80028b0:	68db      	ldr	r3, [r3, #12]
 80028b2:	4798      	blx	r3
 80028b4:	4b29      	ldr	r3, [pc, #164]	@ (800295c <WIZCHIP_WRITE_BUF+0xbc>)
 80028b6:	695b      	ldr	r3, [r3, #20]
 80028b8:	4798      	blx	r3
 80028ba:	68fb      	ldr	r3, [r7, #12]
 80028bc:	f043 0304 	orr.w	r3, r3, #4
 80028c0:	60fb      	str	r3, [r7, #12]
 80028c2:	4b26      	ldr	r3, [pc, #152]	@ (800295c <WIZCHIP_WRITE_BUF+0xbc>)
 80028c4:	6a9b      	ldr	r3, [r3, #40]	@ 0x28
 80028c6:	2b00      	cmp	r3, #0
 80028c8:	d126      	bne.n	8002918 <WIZCHIP_WRITE_BUF+0x78>
 80028ca:	4b24      	ldr	r3, [pc, #144]	@ (800295c <WIZCHIP_WRITE_BUF+0xbc>)
 80028cc:	6a1b      	ldr	r3, [r3, #32]
 80028ce:	68fa      	ldr	r2, [r7, #12]
 80028d0:	0c12      	lsrs	r2, r2, #16
 80028d2:	b2d2      	uxtb	r2, r2
 80028d4:	4610      	mov	r0, r2
 80028d6:	4798      	blx	r3
 80028d8:	4b20      	ldr	r3, [pc, #128]	@ (800295c <WIZCHIP_WRITE_BUF+0xbc>)
 80028da:	6a1b      	ldr	r3, [r3, #32]
 80028dc:	68fa      	ldr	r2, [r7, #12]
 80028de:	0a12      	lsrs	r2, r2, #8
 80028e0:	b2d2      	uxtb	r2, r2
 80028e2:	4610      	mov	r0, r2
 80028e4:	4798      	blx	r3
 80028e6:	4b1d      	ldr	r3, [pc, #116]	@ (800295c <WIZCHIP_WRITE_BUF+0xbc>)
 80028e8:	6a1b      	ldr	r3, [r3, #32]
 80028ea:	68fa      	ldr	r2, [r7, #12]
 80028ec:	b2d2      	uxtb	r2, r2
 80028ee:	4610      	mov	r0, r2
 80028f0:	4798      	blx	r3
 80028f2:	2300      	movs	r3, #0
 80028f4:	82fb      	strh	r3, [r7, #22]
 80028f6:	e00a      	b.n	800290e <WIZCHIP_WRITE_BUF+0x6e>
 80028f8:	4b18      	ldr	r3, [pc, #96]	@ (800295c <WIZCHIP_WRITE_BUF+0xbc>)
 80028fa:	6a1b      	ldr	r3, [r3, #32]
 80028fc:	8afa      	ldrh	r2, [r7, #22]
 80028fe:	68b9      	ldr	r1, [r7, #8]
 8002900:	440a      	add	r2, r1
 8002902:	7812      	ldrb	r2, [r2, #0]
 8002904:	4610      	mov	r0, r2
 8002906:	4798      	blx	r3
 8002908:	8afb      	ldrh	r3, [r7, #22]
 800290a:	3301      	adds	r3, #1
 800290c:	82fb      	strh	r3, [r7, #22]
 800290e:	8afa      	ldrh	r2, [r7, #22]
 8002910:	88fb      	ldrh	r3, [r7, #6]
 8002912:	429a      	cmp	r2, r3
 8002914:	d3f0      	bcc.n	80028f8 <WIZCHIP_WRITE_BUF+0x58>
 8002916:	e017      	b.n	8002948 <WIZCHIP_WRITE_BUF+0xa8>
 8002918:	68fb      	ldr	r3, [r7, #12]
 800291a:	0c1b      	lsrs	r3, r3, #16
 800291c:	b2db      	uxtb	r3, r3
 800291e:	743b      	strb	r3, [r7, #16]
 8002920:	68fb      	ldr	r3, [r7, #12]
 8002922:	0a1b      	lsrs	r3, r3, #8
 8002924:	b2db      	uxtb	r3, r3
 8002926:	747b      	strb	r3, [r7, #17]
 8002928:	68fb      	ldr	r3, [r7, #12]
 800292a:	b2db      	uxtb	r3, r3
 800292c:	74bb      	strb	r3, [r7, #18]
 800292e:	4b0b      	ldr	r3, [pc, #44]	@ (800295c <WIZCHIP_WRITE_BUF+0xbc>)
 8002930:	6a9b      	ldr	r3, [r3, #40]	@ 0x28
 8002932:	f107 0210 	add.w	r2, r7, #16
 8002936:	2103      	movs	r1, #3
 8002938:	4610      	mov	r0, r2
 800293a:	4798      	blx	r3
 800293c:	4b07      	ldr	r3, [pc, #28]	@ (800295c <WIZCHIP_WRITE_BUF+0xbc>)
 800293e:	6a9b      	ldr	r3, [r3, #40]	@ 0x28
 8002940:	88fa      	ldrh	r2, [r7, #6]
 8002942:	4611      	mov	r1, r2
 8002944:	68b8      	ldr	r0, [r7, #8]
 8002946:	4798      	blx	r3
 8002948:	4b04      	ldr	r3, [pc, #16]	@ (800295c <WIZCHIP_WRITE_BUF+0xbc>)
 800294a:	699b      	ldr	r3, [r3, #24]
 800294c:	4798      	blx	r3
 800294e:	4b03      	ldr	r3, [pc, #12]	@ (800295c <WIZCHIP_WRITE_BUF+0xbc>)
 8002950:	691b      	ldr	r3, [r3, #16]
 8002952:	4798      	blx	r3
 8002954:	bf00      	nop
 8002956:	3718      	adds	r7, #24
 8002958:	46bd      	mov	sp, r7
 800295a:	bd80      	pop	{r7, pc}
 800295c:	20000090 	.word	0x20000090

08002960 <getSn_TX_FSR>:
 8002960:	b590      	push	{r4, r7, lr}
 8002962:	b085      	sub	sp, #20
 8002964:	af00      	add	r7, sp, #0
 8002966:	4603      	mov	r3, r0
 8002968:	71fb      	strb	r3, [r7, #7]
 800296a:	2300      	movs	r3, #0
 800296c:	81fb      	strh	r3, [r7, #14]
 800296e:	2300      	movs	r3, #0
 8002970:	81bb      	strh	r3, [r7, #12]
 8002972:	79fb      	ldrb	r3, [r7, #7]
 8002974:	009b      	lsls	r3, r3, #2
 8002976:	3301      	adds	r3, #1
 8002978:	00db      	lsls	r3, r3, #3
 800297a:	f503 5300 	add.w	r3, r3, #8192	@ 0x2000
 800297e:	4618      	mov	r0, r3
 8002980:	f7ff fe94 	bl	80026ac <WIZCHIP_READ>
 8002984:	4603      	mov	r3, r0
 8002986:	81bb      	strh	r3, [r7, #12]
 8002988:	89bb      	ldrh	r3, [r7, #12]
 800298a:	021b      	lsls	r3, r3, #8
 800298c:	b29c      	uxth	r4, r3
 800298e:	79fb      	ldrb	r3, [r7, #7]
 8002990:	009b      	lsls	r3, r3, #2
 8002992:	3301      	adds	r3, #1
 8002994:	00db      	lsls	r3, r3, #3
 8002996:	f503 5304 	add.w	r3, r3, #8448	@ 0x2100
 800299a:	4618      	mov	r0, r3
 800299c:	f7ff fe86 	bl	80026ac <WIZCHIP_READ>
 80029a0:	4603      	mov	r3, r0
 80029a2:	4423      	add	r3, r4
 80029a4:	81bb      	strh	r3, [r7, #12]
 80029a6:	89bb      	ldrh	r3, [r7, #12]
 80029a8:	2b00      	cmp	r3, #0
 80029aa:	d019      	beq.n	80029e0 <getSn_TX_FSR+0x80>
 80029ac:	79fb      	ldrb	r3, [r7, #7]
 80029ae:	009b      	lsls	r3, r3, #2
 80029b0:	3301      	adds	r3, #1
 80029b2:	00db      	lsls	r3, r3, #3
 80029b4:	f503 5300 	add.w	r3, r3, #8192	@ 0x2000
 80029b8:	4618      	mov	r0, r3
 80029ba:	f7ff fe77 	bl	80026ac <WIZCHIP_READ>
 80029be:	4603      	mov	r3, r0
 80029c0:	81fb      	strh	r3, [r7, #14]
 80029c2:	89fb      	ldrh	r3, [r7, #14]
 80029c4:	021b      	lsls	r3, r3, #8
 80029c6:	b29c      	uxth	r4, r3
 80029c8:	79fb      	ldrb	r3, [r7, #7]
 80029ca:	009b      	lsls	r3, r3, #2
 80029cc:	3301      	adds	r3, #1
 80029ce:	00db      	lsls	r3, r3, #3
 80029d0:	f503 5304 	add.w	r3, r3, #8448	@ 0x2100
 80029d4:	4618      	mov	r0, r3
 80029d6:	f7ff fe69 	bl	80026ac <WIZCHIP_READ>
 80029da:	4603      	mov	r3, r0
 80029dc:	4423      	add	r3, r4
 80029de:	81fb      	strh	r3, [r7, #14]
 80029e0:	89fa      	ldrh	r2, [r7, #14]
 80029e2:	89bb      	ldrh	r3, [r7, #12]
 80029e4:	429a      	cmp	r2, r3
 80029e6:	d1c4      	bne.n	8002972 <getSn_TX_FSR+0x12>
 80029e8:	89fb      	ldrh	r3, [r7, #14]
 80029ea:	4618      	mov	r0, r3
 80029ec:	3714      	adds	r7, #20
 80029ee:	46bd      	mov	sp, r7
 80029f0:	bd90      	pop	{r4, r7, pc}

080029f2 <getSn_RX_RSR>:
 80029f2:	b590      	push	{r4, r7, lr}
 80029f4:	b085      	sub	sp, #20
 80029f6:	af00      	add	r7, sp, #0
 80029f8:	4603      	mov	r3, r0
 80029fa:	71fb      	strb	r3, [r7, #7]
 80029fc:	2300      	movs	r3, #0
 80029fe:	81fb      	strh	r3, [r7, #14]
 8002a00:	2300      	movs	r3, #0
 8002a02:	81bb      	strh	r3, [r7, #12]
 8002a04:	79fb      	ldrb	r3, [r7, #7]
 8002a06:	009b      	lsls	r3, r3, #2
 8002a08:	3301      	adds	r3, #1
 8002a0a:	00db      	lsls	r3, r3, #3
 8002a0c:	f503 5318 	add.w	r3, r3, #9728	@ 0x2600
 8002a10:	4618      	mov	r0, r3
 8002a12:	f7ff fe4b 	bl	80026ac <WIZCHIP_READ>
 8002a16:	4603      	mov	r3, r0
 8002a18:	81bb      	strh	r3, [r7, #12]
 8002a1a:	89bb      	ldrh	r3, [r7, #12]
 8002a1c:	021b      	lsls	r3, r3, #8
 8002a1e:	b29c      	uxth	r4, r3
 8002a20:	79fb      	ldrb	r3, [r7, #7]
 8002a22:	009b      	lsls	r3, r3, #2
 8002a24:	3301      	adds	r3, #1
 8002a26:	00db      	lsls	r3, r3, #3
 8002a28:	f503 531c 	add.w	r3, r3, #9984	@ 0x2700
 8002a2c:	4618      	mov	r0, r3
 8002a2e:	f7ff fe3d 	bl	80026ac <WIZCHIP_READ>
 8002a32:	4603      	mov	r3, r0
 8002a34:	4423      	add	r3, r4
 8002a36:	81bb      	strh	r3, [r7, #12]
 8002a38:	89bb      	ldrh	r3, [r7, #12]
 8002a3a:	2b00      	cmp	r3, #0
 8002a3c:	d019      	beq.n	8002a72 <getSn_RX_RSR+0x80>
 8002a3e:	79fb      	ldrb	r3, [r7, #7]
 8002a40:	009b      	lsls	r3, r3, #2
 8002a42:	3301      	adds	r3, #1
 8002a44:	00db      	lsls	r3, r3, #3
 8002a46:	f503 5318 	add.w	r3, r3, #9728	@ 0x2600
 8002a4a:	4618      	mov	r0, r3
 8002a4c:	f7ff fe2e 	bl	80026ac <WIZCHIP_READ>
 8002a50:	4603      	mov	r3, r0
 8002a52:	81fb      	strh	r3, [r7, #14]
 8002a54:	89fb      	ldrh	r3, [r7, #14]
 8002a56:	021b      	lsls	r3, r3, #8
 8002a58:	b29c      	uxth	r4, r3
 8002a5a:	79fb      	ldrb	r3, [r7, #7]
 8002a5c:	009b      	lsls	r3, r3, #2
 8002a5e:	3301      	adds	r3, #1
 8002a60:	00db      	lsls	r3, r3, #3
 8002a62:	f503 531c 	add.w	r3, r3, #9984	@ 0x2700
 8002a66:	4618      	mov	r0, r3
 8002a68:	f7ff fe20 	bl	80026ac <WIZCHIP_READ>
 8002a6c:	4603      	mov	r3, r0
 8002a6e:	4423      	add	r3, r4
 8002a70:	81fb      	strh	r3, [r7, #14]
 8002a72:	89fa      	ldrh	r2, [r7, #14]
 8002a74:	89bb      	ldrh	r3, [r7, #12]
 8002a76:	429a      	cmp	r2, r3
 8002a78:	d1c4      	bne.n	8002a04 <getSn_RX_RSR+0x12>
 8002a7a:	89fb      	ldrh	r3, [r7, #14]
 8002a7c:	4618      	mov	r0, r3
 8002a7e:	3714      	adds	r7, #20
 8002a80:	46bd      	mov	sp, r7
 8002a82:	bd90      	pop	{r4, r7, pc}

08002a84 <wiz_send_data>:
 8002a84:	b590      	push	{r4, r7, lr}
 8002a86:	b085      	sub	sp, #20
 8002a88:	af00      	add	r7, sp, #0
 8002a8a:	4603      	mov	r3, r0
 8002a8c:	6039      	str	r1, [r7, #0]
 8002a8e:	71fb      	strb	r3, [r7, #7]
 8002a90:	4613      	mov	r3, r2
 8002a92:	80bb      	strh	r3, [r7, #4]
 8002a94:	2300      	movs	r3, #0
 8002a96:	81fb      	strh	r3, [r7, #14]
 8002a98:	2300      	movs	r3, #0
 8002a9a:	60bb      	str	r3, [r7, #8]
 8002a9c:	88bb      	ldrh	r3, [r7, #4]
 8002a9e:	2b00      	cmp	r3, #0
 8002aa0:	d046      	beq.n	8002b30 <wiz_send_data+0xac>
 8002aa2:	79fb      	ldrb	r3, [r7, #7]
 8002aa4:	009b      	lsls	r3, r3, #2
 8002aa6:	3301      	adds	r3, #1
 8002aa8:	00db      	lsls	r3, r3, #3
 8002aaa:	f503 5310 	add.w	r3, r3, #9216	@ 0x2400
 8002aae:	4618      	mov	r0, r3
 8002ab0:	f7ff fdfc 	bl	80026ac <WIZCHIP_READ>
 8002ab4:	4603      	mov	r3, r0
 8002ab6:	021b      	lsls	r3, r3, #8
 8002ab8:	b29c      	uxth	r4, r3
 8002aba:	79fb      	ldrb	r3, [r7, #7]
 8002abc:	009b      	lsls	r3, r3, #2
 8002abe:	3301      	adds	r3, #1
 8002ac0:	00db      	lsls	r3, r3, #3
 8002ac2:	f503 5314 	add.w	r3, r3, #9472	@ 0x2500
 8002ac6:	4618      	mov	r0, r3
 8002ac8:	f7ff fdf0 	bl	80026ac <WIZCHIP_READ>
 8002acc:	4603      	mov	r3, r0
 8002ace:	4423      	add	r3, r4
 8002ad0:	81fb      	strh	r3, [r7, #14]
 8002ad2:	89fb      	ldrh	r3, [r7, #14]
 8002ad4:	021b      	lsls	r3, r3, #8
 8002ad6:	79fa      	ldrb	r2, [r7, #7]
 8002ad8:	0092      	lsls	r2, r2, #2
 8002ada:	3202      	adds	r2, #2
 8002adc:	00d2      	lsls	r2, r2, #3
 8002ade:	4413      	add	r3, r2
 8002ae0:	60bb      	str	r3, [r7, #8]
 8002ae2:	88bb      	ldrh	r3, [r7, #4]
 8002ae4:	461a      	mov	r2, r3
 8002ae6:	6839      	ldr	r1, [r7, #0]
 8002ae8:	68b8      	ldr	r0, [r7, #8]
 8002aea:	f7ff fed9 	bl	80028a0 <WIZCHIP_WRITE_BUF>
 8002aee:	89fa      	ldrh	r2, [r7, #14]
 8002af0:	88bb      	ldrh	r3, [r7, #4]
 8002af2:	4413      	add	r3, r2
 8002af4:	81fb      	strh	r3, [r7, #14]
 8002af6:	79fb      	ldrb	r3, [r7, #7]
 8002af8:	009b      	lsls	r3, r3, #2
 8002afa:	3301      	adds	r3, #1
 8002afc:	00db      	lsls	r3, r3, #3
 8002afe:	f503 5310 	add.w	r3, r3, #9216	@ 0x2400
 8002b02:	461a      	mov	r2, r3
 8002b04:	89fb      	ldrh	r3, [r7, #14]
 8002b06:	0a1b      	lsrs	r3, r3, #8
 8002b08:	b29b      	uxth	r3, r3
 8002b0a:	b2db      	uxtb	r3, r3
 8002b0c:	4619      	mov	r1, r3
 8002b0e:	4610      	mov	r0, r2
 8002b10:	f7ff fe18 	bl	8002744 <WIZCHIP_WRITE>
 8002b14:	79fb      	ldrb	r3, [r7, #7]
 8002b16:	009b      	lsls	r3, r3, #2
 8002b18:	3301      	adds	r3, #1
 8002b1a:	00db      	lsls	r3, r3, #3
 8002b1c:	f503 5314 	add.w	r3, r3, #9472	@ 0x2500
 8002b20:	461a      	mov	r2, r3
 8002b22:	89fb      	ldrh	r3, [r7, #14]
 8002b24:	b2db      	uxtb	r3, r3
 8002b26:	4619      	mov	r1, r3
 8002b28:	4610      	mov	r0, r2
 8002b2a:	f7ff fe0b 	bl	8002744 <WIZCHIP_WRITE>
 8002b2e:	e000      	b.n	8002b32 <wiz_send_data+0xae>
 8002b30:	bf00      	nop
 8002b32:	3714      	adds	r7, #20
 8002b34:	46bd      	mov	sp, r7
 8002b36:	bd90      	pop	{r4, r7, pc}

08002b38 <wiz_recv_data>:
 8002b38:	b590      	push	{r4, r7, lr}
 8002b3a:	b085      	sub	sp, #20
 8002b3c:	af00      	add	r7, sp, #0
 8002b3e:	4603      	mov	r3, r0
 8002b40:	6039      	str	r1, [r7, #0]
 8002b42:	71fb      	strb	r3, [r7, #7]
 8002b44:	4613      	mov	r3, r2
 8002b46:	80bb      	strh	r3, [r7, #4]
 8002b48:	2300      	movs	r3, #0
 8002b4a:	81fb      	strh	r3, [r7, #14]
 8002b4c:	2300      	movs	r3, #0
 8002b4e:	60bb      	str	r3, [r7, #8]
 8002b50:	88bb      	ldrh	r3, [r7, #4]
 8002b52:	2b00      	cmp	r3, #0
 8002b54:	d046      	beq.n	8002be4 <wiz_recv_data+0xac>
 8002b56:	79fb      	ldrb	r3, [r7, #7]
 8002b58:	009b      	lsls	r3, r3, #2
 8002b5a:	3301      	adds	r3, #1
 8002b5c:	00db      	lsls	r3, r3, #3
 8002b5e:	f503 5320 	add.w	r3, r3, #10240	@ 0x2800
 8002b62:	4618      	mov	r0, r3
 8002b64:	f7ff fda2 	bl	80026ac <WIZCHIP_READ>
 8002b68:	4603      	mov	r3, r0
 8002b6a:	021b      	lsls	r3, r3, #8
 8002b6c:	b29c      	uxth	r4, r3
 8002b6e:	79fb      	ldrb	r3, [r7, #7]
 8002b70:	009b      	lsls	r3, r3, #2
 8002b72:	3301      	adds	r3, #1
 8002b74:	00db      	lsls	r3, r3, #3
 8002b76:	f503 5324 	add.w	r3, r3, #10496	@ 0x2900
 8002b7a:	4618      	mov	r0, r3
 8002b7c:	f7ff fd96 	bl	80026ac <WIZCHIP_READ>
 8002b80:	4603      	mov	r3, r0
 8002b82:	4423      	add	r3, r4
 8002b84:	81fb      	strh	r3, [r7, #14]
 8002b86:	89fb      	ldrh	r3, [r7, #14]
 8002b88:	021b      	lsls	r3, r3, #8
 8002b8a:	79fa      	ldrb	r2, [r7, #7]
 8002b8c:	0092      	lsls	r2, r2, #2
 8002b8e:	3203      	adds	r2, #3
 8002b90:	00d2      	lsls	r2, r2, #3
 8002b92:	4413      	add	r3, r2
 8002b94:	60bb      	str	r3, [r7, #8]
 8002b96:	88bb      	ldrh	r3, [r7, #4]
 8002b98:	461a      	mov	r2, r3
 8002b9a:	6839      	ldr	r1, [r7, #0]
 8002b9c:	68b8      	ldr	r0, [r7, #8]
 8002b9e:	f7ff fe1f 	bl	80027e0 <WIZCHIP_READ_BUF>
 8002ba2:	89fa      	ldrh	r2, [r7, #14]
 8002ba4:	88bb      	ldrh	r3, [r7, #4]
 8002ba6:	4413      	add	r3, r2
 8002ba8:	81fb      	strh	r3, [r7, #14]
 8002baa:	79fb      	ldrb	r3, [r7, #7]
 8002bac:	009b      	lsls	r3, r3, #2
 8002bae:	3301      	adds	r3, #1
 8002bb0:	00db      	lsls	r3, r3, #3
 8002bb2:	f503 5320 	add.w	r3, r3, #10240	@ 0x2800
 8002bb6:	461a      	mov	r2, r3
 8002bb8:	89fb      	ldrh	r3, [r7, #14]
 8002bba:	0a1b      	lsrs	r3, r3, #8
 8002bbc:	b29b      	uxth	r3, r3
 8002bbe:	b2db      	uxtb	r3, r3
 8002bc0:	4619      	mov	r1, r3
 8002bc2:	4610      	mov	r0, r2
 8002bc4:	f7ff fdbe 	bl	8002744 <WIZCHIP_WRITE>
 8002bc8:	79fb      	ldrb	r3, [r7, #7]
 8002bca:	009b      	lsls	r3, r3, #2
 8002bcc:	3301      	adds	r3, #1
 8002bce:	00db      	lsls	r3, r3, #3
 8002bd0:	f503 5324 	add.w	r3, r3, #10496	@ 0x2900
 8002bd4:	461a      	mov	r2, r3
 8002bd6:	89fb      	ldrh	r3, [r7, #14]
 8002bd8:	b2db      	uxtb	r3, r3
 8002bda:	4619      	mov	r1, r3
 8002bdc:	4610      	mov	r0, r2
 8002bde:	f7ff fdb1 	bl	8002744 <WIZCHIP_WRITE>
 8002be2:	e000      	b.n	8002be6 <wiz_recv_data+0xae>
 8002be4:	bf00      	nop
 8002be6:	3714      	adds	r7, #20
 8002be8:	46bd      	mov	sp, r7
 8002bea:	bd90      	pop	{r4, r7, pc}

08002bec <socket>:
 8002bec:	b590      	push	{r4, r7, lr}
 8002bee:	b085      	sub	sp, #20
 8002bf0:	af00      	add	r7, sp, #0
 8002bf2:	4604      	mov	r4, r0
 8002bf4:	4608      	mov	r0, r1
 8002bf6:	4611      	mov	r1, r2
 8002bf8:	461a      	mov	r2, r3
 8002bfa:	4623      	mov	r3, r4
 8002bfc:	71fb      	strb	r3, [r7, #7]
 8002bfe:	4603      	mov	r3, r0
 8002c00:	71bb      	strb	r3, [r7, #6]
 8002c02:	460b      	mov	r3, r1
 8002c04:	80bb      	strh	r3, [r7, #4]
 8002c06:	4613      	mov	r3, r2
 8002c08:	70fb      	strb	r3, [r7, #3]
 8002c0a:	79fb      	ldrb	r3, [r7, #7]
 8002c0c:	2b08      	cmp	r3, #8
 8002c0e:	d902      	bls.n	8002c16 <socket+0x2a>
 8002c10:	f04f 33ff 	mov.w	r3, #4294967295
 8002c14:	e0f0      	b.n	8002df8 <socket+0x20c>
 8002c16:	79bb      	ldrb	r3, [r7, #6]
 8002c18:	2b01      	cmp	r3, #1
 8002c1a:	d005      	beq.n	8002c28 <socket+0x3c>
 8002c1c:	2b00      	cmp	r3, #0
 8002c1e:	dd11      	ble.n	8002c44 <socket+0x58>
 8002c20:	3b02      	subs	r3, #2
 8002c22:	2b02      	cmp	r3, #2
 8002c24:	d80e      	bhi.n	8002c44 <socket+0x58>
 8002c26:	e011      	b.n	8002c4c <socket+0x60>
 8002c28:	f107 030c 	add.w	r3, r7, #12
 8002c2c:	2204      	movs	r2, #4
 8002c2e:	4619      	mov	r1, r3
 8002c30:	f44f 6070 	mov.w	r0, #3840	@ 0xf00
 8002c34:	f7ff fdd4 	bl	80027e0 <WIZCHIP_READ_BUF>
 8002c38:	68fb      	ldr	r3, [r7, #12]
 8002c3a:	2b00      	cmp	r3, #0
 8002c3c:	d105      	bne.n	8002c4a <socket+0x5e>
 8002c3e:	f06f 0302 	mvn.w	r3, #2
 8002c42:	e0d9      	b.n	8002df8 <socket+0x20c>
 8002c44:	f06f 0304 	mvn.w	r3, #4
 8002c48:	e0d6      	b.n	8002df8 <socket+0x20c>
 8002c4a:	bf00      	nop
 8002c4c:	78fb      	ldrb	r3, [r7, #3]
 8002c4e:	f003 0304 	and.w	r3, r3, #4
 8002c52:	2b00      	cmp	r3, #0
 8002c54:	d002      	beq.n	8002c5c <socket+0x70>
 8002c56:	f06f 0305 	mvn.w	r3, #5
 8002c5a:	e0cd      	b.n	8002df8 <socket+0x20c>
 8002c5c:	78fb      	ldrb	r3, [r7, #3]
 8002c5e:	2b00      	cmp	r3, #0
 8002c60:	d028      	beq.n	8002cb4 <socket+0xc8>
 8002c62:	79bb      	ldrb	r3, [r7, #6]
 8002c64:	2b01      	cmp	r3, #1
 8002c66:	d002      	beq.n	8002c6e <socket+0x82>
 8002c68:	2b02      	cmp	r3, #2
 8002c6a:	d008      	beq.n	8002c7e <socket+0x92>
 8002c6c:	e022      	b.n	8002cb4 <socket+0xc8>
 8002c6e:	78fb      	ldrb	r3, [r7, #3]
 8002c70:	f003 0321 	and.w	r3, r3, #33	@ 0x21
 8002c74:	2b00      	cmp	r3, #0
 8002c76:	d11a      	bne.n	8002cae <socket+0xc2>
 8002c78:	f06f 0305 	mvn.w	r3, #5
 8002c7c:	e0bc      	b.n	8002df8 <socket+0x20c>
 8002c7e:	78fb      	ldrb	r3, [r7, #3]
 8002c80:	f003 0320 	and.w	r3, r3, #32
 8002c84:	2b00      	cmp	r3, #0
 8002c86:	d006      	beq.n	8002c96 <socket+0xaa>
 8002c88:	f997 3003 	ldrsb.w	r3, [r7, #3]
 8002c8c:	2b00      	cmp	r3, #0
 8002c8e:	db02      	blt.n	8002c96 <socket+0xaa>
 8002c90:	f06f 0305 	mvn.w	r3, #5
 8002c94:	e0b0      	b.n	8002df8 <socket+0x20c>
 8002c96:	78fb      	ldrb	r3, [r7, #3]
 8002c98:	f003 0310 	and.w	r3, r3, #16
 8002c9c:	2b00      	cmp	r3, #0
 8002c9e:	d008      	beq.n	8002cb2 <socket+0xc6>
 8002ca0:	f997 3003 	ldrsb.w	r3, [r7, #3]
 8002ca4:	2b00      	cmp	r3, #0
 8002ca6:	db04      	blt.n	8002cb2 <socket+0xc6>
 8002ca8:	f06f 0305 	mvn.w	r3, #5
 8002cac:	e0a4      	b.n	8002df8 <socket+0x20c>
 8002cae:	bf00      	nop
 8002cb0:	e000      	b.n	8002cb4 <socket+0xc8>
 8002cb2:	bf00      	nop
 8002cb4:	79fb      	ldrb	r3, [r7, #7]
 8002cb6:	4618      	mov	r0, r3
 8002cb8:	f000 f8ac 	bl	8002e14 <close>
 8002cbc:	79fb      	ldrb	r3, [r7, #7]
 8002cbe:	009b      	lsls	r3, r3, #2
 8002cc0:	3301      	adds	r3, #1
 8002cc2:	00db      	lsls	r3, r3, #3
 8002cc4:	4618      	mov	r0, r3
 8002cc6:	f997 3003 	ldrsb.w	r3, [r7, #3]
 8002cca:	f023 030f 	bic.w	r3, r3, #15
 8002cce:	b25a      	sxtb	r2, r3
 8002cd0:	f997 3006 	ldrsb.w	r3, [r7, #6]
 8002cd4:	4313      	orrs	r3, r2
 8002cd6:	b25b      	sxtb	r3, r3
 8002cd8:	b2db      	uxtb	r3, r3
 8002cda:	4619      	mov	r1, r3
 8002cdc:	f7ff fd32 	bl	8002744 <WIZCHIP_WRITE>
 8002ce0:	88bb      	ldrh	r3, [r7, #4]
 8002ce2:	2b00      	cmp	r3, #0
 8002ce4:	d110      	bne.n	8002d08 <socket+0x11c>
 8002ce6:	4b46      	ldr	r3, [pc, #280]	@ (8002e00 <socket+0x214>)
 8002ce8:	881b      	ldrh	r3, [r3, #0]
 8002cea:	1c5a      	adds	r2, r3, #1
 8002cec:	b291      	uxth	r1, r2
 8002cee:	4a44      	ldr	r2, [pc, #272]	@ (8002e00 <socket+0x214>)
 8002cf0:	8011      	strh	r1, [r2, #0]
 8002cf2:	80bb      	strh	r3, [r7, #4]
 8002cf4:	4b42      	ldr	r3, [pc, #264]	@ (8002e00 <socket+0x214>)
 8002cf6:	881b      	ldrh	r3, [r3, #0]
 8002cf8:	f64f 72f0 	movw	r2, #65520	@ 0xfff0
 8002cfc:	4293      	cmp	r3, r2
 8002cfe:	d103      	bne.n	8002d08 <socket+0x11c>
 8002d00:	4b3f      	ldr	r3, [pc, #252]	@ (8002e00 <socket+0x214>)
 8002d02:	f44f 4240 	mov.w	r2, #49152	@ 0xc000
 8002d06:	801a      	strh	r2, [r3, #0]
 8002d08:	79fb      	ldrb	r3, [r7, #7]
 8002d0a:	009b      	lsls	r3, r3, #2
 8002d0c:	3301      	adds	r3, #1
 8002d0e:	00db      	lsls	r3, r3, #3
 8002d10:	f503 6380 	add.w	r3, r3, #1024	@ 0x400
 8002d14:	461a      	mov	r2, r3
 8002d16:	88bb      	ldrh	r3, [r7, #4]
 8002d18:	0a1b      	lsrs	r3, r3, #8
 8002d1a:	b29b      	uxth	r3, r3
 8002d1c:	b2db      	uxtb	r3, r3
 8002d1e:	4619      	mov	r1, r3
 8002d20:	4610      	mov	r0, r2
 8002d22:	f7ff fd0f 	bl	8002744 <WIZCHIP_WRITE>
 8002d26:	79fb      	ldrb	r3, [r7, #7]
 8002d28:	009b      	lsls	r3, r3, #2
 8002d2a:	3301      	adds	r3, #1
 8002d2c:	00db      	lsls	r3, r3, #3
 8002d2e:	f503 63a0 	add.w	r3, r3, #1280	@ 0x500
 8002d32:	461a      	mov	r2, r3
 8002d34:	88bb      	ldrh	r3, [r7, #4]
 8002d36:	b2db      	uxtb	r3, r3
 8002d38:	4619      	mov	r1, r3
 8002d3a:	4610      	mov	r0, r2
 8002d3c:	f7ff fd02 	bl	8002744 <WIZCHIP_WRITE>
 8002d40:	79fb      	ldrb	r3, [r7, #7]
 8002d42:	009b      	lsls	r3, r3, #2
 8002d44:	3301      	adds	r3, #1
 8002d46:	00db      	lsls	r3, r3, #3
 8002d48:	f503 7380 	add.w	r3, r3, #256	@ 0x100
 8002d4c:	2101      	movs	r1, #1
 8002d4e:	4618      	mov	r0, r3
 8002d50:	f7ff fcf8 	bl	8002744 <WIZCHIP_WRITE>
 8002d54:	bf00      	nop
 8002d56:	79fb      	ldrb	r3, [r7, #7]
 8002d58:	009b      	lsls	r3, r3, #2
 8002d5a:	3301      	adds	r3, #1
 8002d5c:	00db      	lsls	r3, r3, #3
 8002d5e:	f503 7380 	add.w	r3, r3, #256	@ 0x100
 8002d62:	4618      	mov	r0, r3
 8002d64:	f7ff fca2 	bl	80026ac <WIZCHIP_READ>
 8002d68:	4603      	mov	r3, r0
 8002d6a:	2b00      	cmp	r3, #0
 8002d6c:	d1f3      	bne.n	8002d56 <socket+0x16a>
 8002d6e:	79fb      	ldrb	r3, [r7, #7]
 8002d70:	2201      	movs	r2, #1
 8002d72:	fa02 f303 	lsl.w	r3, r2, r3
 8002d76:	b21b      	sxth	r3, r3
 8002d78:	43db      	mvns	r3, r3
 8002d7a:	b21a      	sxth	r2, r3
 8002d7c:	4b21      	ldr	r3, [pc, #132]	@ (8002e04 <socket+0x218>)
 8002d7e:	881b      	ldrh	r3, [r3, #0]
 8002d80:	b21b      	sxth	r3, r3
 8002d82:	4013      	ands	r3, r2
 8002d84:	b21b      	sxth	r3, r3
 8002d86:	b29a      	uxth	r2, r3
 8002d88:	4b1e      	ldr	r3, [pc, #120]	@ (8002e04 <socket+0x218>)
 8002d8a:	801a      	strh	r2, [r3, #0]
 8002d8c:	78fb      	ldrb	r3, [r7, #3]
 8002d8e:	f003 0201 	and.w	r2, r3, #1
 8002d92:	79fb      	ldrb	r3, [r7, #7]
 8002d94:	fa02 f303 	lsl.w	r3, r2, r3
 8002d98:	b21a      	sxth	r2, r3
 8002d9a:	4b1a      	ldr	r3, [pc, #104]	@ (8002e04 <socket+0x218>)
 8002d9c:	881b      	ldrh	r3, [r3, #0]
 8002d9e:	b21b      	sxth	r3, r3
 8002da0:	4313      	orrs	r3, r2
 8002da2:	b21b      	sxth	r3, r3
 8002da4:	b29a      	uxth	r2, r3
 8002da6:	4b17      	ldr	r3, [pc, #92]	@ (8002e04 <socket+0x218>)
 8002da8:	801a      	strh	r2, [r3, #0]
 8002daa:	79fb      	ldrb	r3, [r7, #7]
 8002dac:	2201      	movs	r2, #1
 8002dae:	fa02 f303 	lsl.w	r3, r2, r3
 8002db2:	b21b      	sxth	r3, r3
 8002db4:	43db      	mvns	r3, r3
 8002db6:	b21a      	sxth	r2, r3
 8002db8:	4b13      	ldr	r3, [pc, #76]	@ (8002e08 <socket+0x21c>)
 8002dba:	881b      	ldrh	r3, [r3, #0]
 8002dbc:	b21b      	sxth	r3, r3
 8002dbe:	4013      	ands	r3, r2
 8002dc0:	b21b      	sxth	r3, r3
 8002dc2:	b29a      	uxth	r2, r3
 8002dc4:	4b10      	ldr	r3, [pc, #64]	@ (8002e08 <socket+0x21c>)
 8002dc6:	801a      	strh	r2, [r3, #0]
 8002dc8:	79fb      	ldrb	r3, [r7, #7]
 8002dca:	4a10      	ldr	r2, [pc, #64]	@ (8002e0c <socket+0x220>)
 8002dcc:	2100      	movs	r1, #0
 8002dce:	f822 1013 	strh.w	r1, [r2, r3, lsl #1]
 8002dd2:	79fb      	ldrb	r3, [r7, #7]
 8002dd4:	4a0e      	ldr	r2, [pc, #56]	@ (8002e10 <socket+0x224>)
 8002dd6:	2100      	movs	r1, #0
 8002dd8:	54d1      	strb	r1, [r2, r3]
 8002dda:	bf00      	nop
 8002ddc:	79fb      	ldrb	r3, [r7, #7]
 8002dde:	009b      	lsls	r3, r3, #2
 8002de0:	3301      	adds	r3, #1
 8002de2:	00db      	lsls	r3, r3, #3
 8002de4:	f503 7340 	add.w	r3, r3, #768	@ 0x300
 8002de8:	4618      	mov	r0, r3
 8002dea:	f7ff fc5f 	bl	80026ac <WIZCHIP_READ>
 8002dee:	4603      	mov	r3, r0
 8002df0:	2b00      	cmp	r3, #0
 8002df2:	d0f3      	beq.n	8002ddc <socket+0x1f0>
 8002df4:	f997 3007 	ldrsb.w	r3, [r7, #7]
 8002df8:	4618      	mov	r0, r3
 8002dfa:	3714      	adds	r7, #20
 8002dfc:	46bd      	mov	sp, r7
 8002dfe:	bd90      	pop	{r4, r7, pc}
 8002e00:	2000008c 	.word	0x2000008c
 8002e04:	200004bc 	.word	0x200004bc
 8002e08:	200004be 	.word	0x200004be
 8002e0c:	200004c0 	.word	0x200004c0
 8002e10:	200004d0 	.word	0x200004d0

08002e14 <close>:
 8002e14:	b580      	push	{r7, lr}
 8002e16:	b082      	sub	sp, #8
 8002e18:	af00      	add	r7, sp, #0
 8002e1a:	4603      	mov	r3, r0
 8002e1c:	71fb      	strb	r3, [r7, #7]
 8002e1e:	79fb      	ldrb	r3, [r7, #7]
 8002e20:	2b08      	cmp	r3, #8
 8002e22:	d902      	bls.n	8002e2a <close+0x16>
 8002e24:	f04f 33ff 	mov.w	r3, #4294967295
 8002e28:	e055      	b.n	8002ed6 <close+0xc2>
 8002e2a:	79fb      	ldrb	r3, [r7, #7]
 8002e2c:	009b      	lsls	r3, r3, #2
 8002e2e:	3301      	adds	r3, #1
 8002e30:	00db      	lsls	r3, r3, #3
 8002e32:	f503 7380 	add.w	r3, r3, #256	@ 0x100
 8002e36:	2110      	movs	r1, #16
 8002e38:	4618      	mov	r0, r3
 8002e3a:	f7ff fc83 	bl	8002744 <WIZCHIP_WRITE>
 8002e3e:	bf00      	nop
 8002e40:	79fb      	ldrb	r3, [r7, #7]
 8002e42:	009b      	lsls	r3, r3, #2
 8002e44:	3301      	adds	r3, #1
 8002e46:	00db      	lsls	r3, r3, #3
 8002e48:	f503 7380 	add.w	r3, r3, #256	@ 0x100
 8002e4c:	4618      	mov	r0, r3
 8002e4e:	f7ff fc2d 	bl	80026ac <WIZCHIP_READ>
 8002e52:	4603      	mov	r3, r0
 8002e54:	2b00      	cmp	r3, #0
 8002e56:	d1f3      	bne.n	8002e40 <close+0x2c>
 8002e58:	79fb      	ldrb	r3, [r7, #7]
 8002e5a:	009b      	lsls	r3, r3, #2
 8002e5c:	3301      	adds	r3, #1
 8002e5e:	00db      	lsls	r3, r3, #3
 8002e60:	f503 7300 	add.w	r3, r3, #512	@ 0x200
 8002e64:	211f      	movs	r1, #31
 8002e66:	4618      	mov	r0, r3
 8002e68:	f7ff fc6c 	bl	8002744 <WIZCHIP_WRITE>
 8002e6c:	79fb      	ldrb	r3, [r7, #7]
 8002e6e:	2201      	movs	r2, #1
 8002e70:	fa02 f303 	lsl.w	r3, r2, r3
 8002e74:	b21b      	sxth	r3, r3
 8002e76:	43db      	mvns	r3, r3
 8002e78:	b21a      	sxth	r2, r3
 8002e7a:	4b19      	ldr	r3, [pc, #100]	@ (8002ee0 <close+0xcc>)
 8002e7c:	881b      	ldrh	r3, [r3, #0]
 8002e7e:	b21b      	sxth	r3, r3
 8002e80:	4013      	ands	r3, r2
 8002e82:	b21b      	sxth	r3, r3
 8002e84:	b29a      	uxth	r2, r3
 8002e86:	4b16      	ldr	r3, [pc, #88]	@ (8002ee0 <close+0xcc>)
 8002e88:	801a      	strh	r2, [r3, #0]
 8002e8a:	79fb      	ldrb	r3, [r7, #7]
 8002e8c:	2201      	movs	r2, #1
 8002e8e:	fa02 f303 	lsl.w	r3, r2, r3
 8002e92:	b21b      	sxth	r3, r3
 8002e94:	43db      	mvns	r3, r3
 8002e96:	b21a      	sxth	r2, r3
 8002e98:	4b12      	ldr	r3, [pc, #72]	@ (8002ee4 <close+0xd0>)
 8002e9a:	881b      	ldrh	r3, [r3, #0]
 8002e9c:	b21b      	sxth	r3, r3
 8002e9e:	4013      	ands	r3, r2
 8002ea0:	b21b      	sxth	r3, r3
 8002ea2:	b29a      	uxth	r2, r3
 8002ea4:	4b0f      	ldr	r3, [pc, #60]	@ (8002ee4 <close+0xd0>)
 8002ea6:	801a      	strh	r2, [r3, #0]
 8002ea8:	79fb      	ldrb	r3, [r7, #7]
 8002eaa:	4a0f      	ldr	r2, [pc, #60]	@ (8002ee8 <close+0xd4>)
 8002eac:	2100      	movs	r1, #0
 8002eae:	f822 1013 	strh.w	r1, [r2, r3, lsl #1]
 8002eb2:	79fb      	ldrb	r3, [r7, #7]
 8002eb4:	4a0d      	ldr	r2, [pc, #52]	@ (8002eec <close+0xd8>)
 8002eb6:	2100      	movs	r1, #0
 8002eb8:	54d1      	strb	r1, [r2, r3]
 8002eba:	bf00      	nop
 8002ebc:	79fb      	ldrb	r3, [r7, #7]
 8002ebe:	009b      	lsls	r3, r3, #2
 8002ec0:	3301      	adds	r3, #1
 8002ec2:	00db      	lsls	r3, r3, #3
 8002ec4:	f503 7340 	add.w	r3, r3, #768	@ 0x300
 8002ec8:	4618      	mov	r0, r3
 8002eca:	f7ff fbef 	bl	80026ac <WIZCHIP_READ>
 8002ece:	4603      	mov	r3, r0
 8002ed0:	2b00      	cmp	r3, #0
 8002ed2:	d1f3      	bne.n	8002ebc <close+0xa8>
 8002ed4:	2301      	movs	r3, #1
 8002ed6:	4618      	mov	r0, r3
 8002ed8:	3708      	adds	r7, #8
 8002eda:	46bd      	mov	sp, r7
 8002edc:	bd80      	pop	{r7, pc}
 8002ede:	bf00      	nop
 8002ee0:	200004bc 	.word	0x200004bc
 8002ee4:	200004be 	.word	0x200004be
 8002ee8:	200004c0 	.word	0x200004c0
 8002eec:	200004d0 	.word	0x200004d0

08002ef0 <connect>:
 8002ef0:	b580      	push	{r7, lr}
 8002ef2:	b084      	sub	sp, #16
 8002ef4:	af00      	add	r7, sp, #0
 8002ef6:	4603      	mov	r3, r0
 8002ef8:	6039      	str	r1, [r7, #0]
 8002efa:	71fb      	strb	r3, [r7, #7]
 8002efc:	4613      	mov	r3, r2
 8002efe:	80bb      	strh	r3, [r7, #4]
 8002f00:	79fb      	ldrb	r3, [r7, #7]
 8002f02:	2b08      	cmp	r3, #8
 8002f04:	d902      	bls.n	8002f0c <connect+0x1c>
 8002f06:	f04f 33ff 	mov.w	r3, #4294967295
 8002f0a:	e0c6      	b.n	800309a <connect+0x1aa>
 8002f0c:	79fb      	ldrb	r3, [r7, #7]
 8002f0e:	009b      	lsls	r3, r3, #2
 8002f10:	3301      	adds	r3, #1
 8002f12:	00db      	lsls	r3, r3, #3
 8002f14:	4618      	mov	r0, r3
 8002f16:	f7ff fbc9 	bl	80026ac <WIZCHIP_READ>
 8002f1a:	4603      	mov	r3, r0
 8002f1c:	f003 030f 	and.w	r3, r3, #15
 8002f20:	2b01      	cmp	r3, #1
 8002f22:	d002      	beq.n	8002f2a <connect+0x3a>
 8002f24:	f06f 0304 	mvn.w	r3, #4
 8002f28:	e0b7      	b.n	800309a <connect+0x1aa>
 8002f2a:	79fb      	ldrb	r3, [r7, #7]
 8002f2c:	009b      	lsls	r3, r3, #2
 8002f2e:	3301      	adds	r3, #1
 8002f30:	00db      	lsls	r3, r3, #3
 8002f32:	f503 7340 	add.w	r3, r3, #768	@ 0x300
 8002f36:	4618      	mov	r0, r3
 8002f38:	f7ff fbb8 	bl	80026ac <WIZCHIP_READ>
 8002f3c:	4603      	mov	r3, r0
 8002f3e:	2b13      	cmp	r3, #19
 8002f40:	d002      	beq.n	8002f48 <connect+0x58>
 8002f42:	f06f 0302 	mvn.w	r3, #2
 8002f46:	e0a8      	b.n	800309a <connect+0x1aa>
 8002f48:	683b      	ldr	r3, [r7, #0]
 8002f4a:	781b      	ldrb	r3, [r3, #0]
 8002f4c:	60fb      	str	r3, [r7, #12]
 8002f4e:	68fb      	ldr	r3, [r7, #12]
 8002f50:	021b      	lsls	r3, r3, #8
 8002f52:	683a      	ldr	r2, [r7, #0]
 8002f54:	3201      	adds	r2, #1
 8002f56:	7812      	ldrb	r2, [r2, #0]
 8002f58:	4413      	add	r3, r2
 8002f5a:	60fb      	str	r3, [r7, #12]
 8002f5c:	68fb      	ldr	r3, [r7, #12]
 8002f5e:	021b      	lsls	r3, r3, #8
 8002f60:	683a      	ldr	r2, [r7, #0]
 8002f62:	3202      	adds	r2, #2
 8002f64:	7812      	ldrb	r2, [r2, #0]
 8002f66:	4413      	add	r3, r2
 8002f68:	60fb      	str	r3, [r7, #12]
 8002f6a:	68fb      	ldr	r3, [r7, #12]
 8002f6c:	021b      	lsls	r3, r3, #8
 8002f6e:	683a      	ldr	r2, [r7, #0]
 8002f70:	3203      	adds	r2, #3
 8002f72:	7812      	ldrb	r2, [r2, #0]
 8002f74:	4413      	add	r3, r2
 8002f76:	60fb      	str	r3, [r7, #12]
 8002f78:	68fb      	ldr	r3, [r7, #12]
 8002f7a:	f1b3 3fff 	cmp.w	r3, #4294967295
 8002f7e:	d002      	beq.n	8002f86 <connect+0x96>
 8002f80:	68fb      	ldr	r3, [r7, #12]
 8002f82:	2b00      	cmp	r3, #0
 8002f84:	d102      	bne.n	8002f8c <connect+0x9c>
 8002f86:	f06f 030b 	mvn.w	r3, #11
 8002f8a:	e086      	b.n	800309a <connect+0x1aa>
 8002f8c:	88bb      	ldrh	r3, [r7, #4]
 8002f8e:	2b00      	cmp	r3, #0
 8002f90:	d102      	bne.n	8002f98 <connect+0xa8>
 8002f92:	f06f 030a 	mvn.w	r3, #10
 8002f96:	e080      	b.n	800309a <connect+0x1aa>
 8002f98:	79fb      	ldrb	r3, [r7, #7]
 8002f9a:	009b      	lsls	r3, r3, #2
 8002f9c:	3301      	adds	r3, #1
 8002f9e:	00db      	lsls	r3, r3, #3
 8002fa0:	f503 6340 	add.w	r3, r3, #3072	@ 0xc00
 8002fa4:	2204      	movs	r2, #4
 8002fa6:	6839      	ldr	r1, [r7, #0]
 8002fa8:	4618      	mov	r0, r3
 8002faa:	f7ff fc79 	bl	80028a0 <WIZCHIP_WRITE_BUF>
 8002fae:	79fb      	ldrb	r3, [r7, #7]
 8002fb0:	009b      	lsls	r3, r3, #2
 8002fb2:	3301      	adds	r3, #1
 8002fb4:	00db      	lsls	r3, r3, #3
 8002fb6:	f503 5380 	add.w	r3, r3, #4096	@ 0x1000
 8002fba:	461a      	mov	r2, r3
 8002fbc:	88bb      	ldrh	r3, [r7, #4]
 8002fbe:	0a1b      	lsrs	r3, r3, #8
 8002fc0:	b29b      	uxth	r3, r3
 8002fc2:	b2db      	uxtb	r3, r3
 8002fc4:	4619      	mov	r1, r3
 8002fc6:	4610      	mov	r0, r2
 8002fc8:	f7ff fbbc 	bl	8002744 <WIZCHIP_WRITE>
 8002fcc:	79fb      	ldrb	r3, [r7, #7]
 8002fce:	009b      	lsls	r3, r3, #2
 8002fd0:	3301      	adds	r3, #1
 8002fd2:	00db      	lsls	r3, r3, #3
 8002fd4:	f503 5388 	add.w	r3, r3, #4352	@ 0x1100
 8002fd8:	461a      	mov	r2, r3
 8002fda:	88bb      	ldrh	r3, [r7, #4]
 8002fdc:	b2db      	uxtb	r3, r3
 8002fde:	4619      	mov	r1, r3
 8002fe0:	4610      	mov	r0, r2
 8002fe2:	f7ff fbaf 	bl	8002744 <WIZCHIP_WRITE>
 8002fe6:	79fb      	ldrb	r3, [r7, #7]
 8002fe8:	009b      	lsls	r3, r3, #2
 8002fea:	3301      	adds	r3, #1
 8002fec:	00db      	lsls	r3, r3, #3
 8002fee:	f503 7380 	add.w	r3, r3, #256	@ 0x100
 8002ff2:	2104      	movs	r1, #4
 8002ff4:	4618      	mov	r0, r3
 8002ff6:	f7ff fba5 	bl	8002744 <WIZCHIP_WRITE>
 8002ffa:	bf00      	nop
 8002ffc:	79fb      	ldrb	r3, [r7, #7]
 8002ffe:	009b      	lsls	r3, r3, #2
 8003000:	3301      	adds	r3, #1
 8003002:	00db      	lsls	r3, r3, #3
 8003004:	f503 7380 	add.w	r3, r3, #256	@ 0x100
 8003008:	4618      	mov	r0, r3
 800300a:	f7ff fb4f 	bl	80026ac <WIZCHIP_READ>
 800300e:	4603      	mov	r3, r0
 8003010:	2b00      	cmp	r3, #0
 8003012:	d1f3      	bne.n	8002ffc <connect+0x10c>
 8003014:	4b23      	ldr	r3, [pc, #140]	@ (80030a4 <connect+0x1b4>)
 8003016:	881b      	ldrh	r3, [r3, #0]
 8003018:	461a      	mov	r2, r3
 800301a:	79fb      	ldrb	r3, [r7, #7]
 800301c:	fa42 f303 	asr.w	r3, r2, r3
 8003020:	f003 0301 	and.w	r3, r3, #1
 8003024:	2b00      	cmp	r3, #0
 8003026:	d02b      	beq.n	8003080 <connect+0x190>
 8003028:	2300      	movs	r3, #0
 800302a:	e036      	b.n	800309a <connect+0x1aa>
 800302c:	79fb      	ldrb	r3, [r7, #7]
 800302e:	009b      	lsls	r3, r3, #2
 8003030:	3301      	adds	r3, #1
 8003032:	00db      	lsls	r3, r3, #3
 8003034:	f503 7300 	add.w	r3, r3, #512	@ 0x200
 8003038:	4618      	mov	r0, r3
 800303a:	f7ff fb37 	bl	80026ac <WIZCHIP_READ>
 800303e:	4603      	mov	r3, r0
 8003040:	f003 0308 	and.w	r3, r3, #8
 8003044:	2b00      	cmp	r3, #0
 8003046:	d00c      	beq.n	8003062 <connect+0x172>
 8003048:	79fb      	ldrb	r3, [r7, #7]
 800304a:	009b      	lsls	r3, r3, #2
 800304c:	3301      	adds	r3, #1
 800304e:	00db      	lsls	r3, r3, #3
 8003050:	f503 7300 	add.w	r3, r3, #512	@ 0x200
 8003054:	2108      	movs	r1, #8
 8003056:	4618      	mov	r0, r3
 8003058:	f7ff fb74 	bl	8002744 <WIZCHIP_WRITE>
 800305c:	f06f 030c 	mvn.w	r3, #12
 8003060:	e01b      	b.n	800309a <connect+0x1aa>
 8003062:	79fb      	ldrb	r3, [r7, #7]
 8003064:	009b      	lsls	r3, r3, #2
 8003066:	3301      	adds	r3, #1
 8003068:	00db      	lsls	r3, r3, #3
 800306a:	f503 7340 	add.w	r3, r3, #768	@ 0x300
 800306e:	4618      	mov	r0, r3
 8003070:	f7ff fb1c 	bl	80026ac <WIZCHIP_READ>
 8003074:	4603      	mov	r3, r0
 8003076:	2b00      	cmp	r3, #0
 8003078:	d102      	bne.n	8003080 <connect+0x190>
 800307a:	f06f 0303 	mvn.w	r3, #3
 800307e:	e00c      	b.n	800309a <connect+0x1aa>
 8003080:	79fb      	ldrb	r3, [r7, #7]
 8003082:	009b      	lsls	r3, r3, #2
 8003084:	3301      	adds	r3, #1
 8003086:	00db      	lsls	r3, r3, #3
 8003088:	f503 7340 	add.w	r3, r3, #768	@ 0x300
 800308c:	4618      	mov	r0, r3
 800308e:	f7ff fb0d 	bl	80026ac <WIZCHIP_READ>
 8003092:	4603      	mov	r3, r0
 8003094:	2b17      	cmp	r3, #23
 8003096:	d1c9      	bne.n	800302c <connect+0x13c>
 8003098:	2301      	movs	r3, #1
 800309a:	4618      	mov	r0, r3
 800309c:	3710      	adds	r7, #16
 800309e:	46bd      	mov	sp, r7
 80030a0:	bd80      	pop	{r7, pc}
 80030a2:	bf00      	nop
 80030a4:	200004bc 	.word	0x200004bc

080030a8 <disconnect>:
 80030a8:	b580      	push	{r7, lr}
 80030aa:	b082      	sub	sp, #8
 80030ac:	af00      	add	r7, sp, #0
 80030ae:	4603      	mov	r3, r0
 80030b0:	71fb      	strb	r3, [r7, #7]
 80030b2:	79fb      	ldrb	r3, [r7, #7]
 80030b4:	2b08      	cmp	r3, #8
 80030b6:	d902      	bls.n	80030be <disconnect+0x16>
 80030b8:	f04f 33ff 	mov.w	r3, #4294967295
 80030bc:	e062      	b.n	8003184 <disconnect+0xdc>
 80030be:	79fb      	ldrb	r3, [r7, #7]
 80030c0:	009b      	lsls	r3, r3, #2
 80030c2:	3301      	adds	r3, #1
 80030c4:	00db      	lsls	r3, r3, #3
 80030c6:	4618      	mov	r0, r3
 80030c8:	f7ff faf0 	bl	80026ac <WIZCHIP_READ>
 80030cc:	4603      	mov	r3, r0
 80030ce:	f003 030f 	and.w	r3, r3, #15
 80030d2:	2b01      	cmp	r3, #1
 80030d4:	d002      	beq.n	80030dc <disconnect+0x34>
 80030d6:	f06f 0304 	mvn.w	r3, #4
 80030da:	e053      	b.n	8003184 <disconnect+0xdc>
 80030dc:	79fb      	ldrb	r3, [r7, #7]
 80030de:	009b      	lsls	r3, r3, #2
 80030e0:	3301      	adds	r3, #1
 80030e2:	00db      	lsls	r3, r3, #3
 80030e4:	f503 7380 	add.w	r3, r3, #256	@ 0x100
 80030e8:	2108      	movs	r1, #8
 80030ea:	4618      	mov	r0, r3
 80030ec:	f7ff fb2a 	bl	8002744 <WIZCHIP_WRITE>
 80030f0:	bf00      	nop
 80030f2:	79fb      	ldrb	r3, [r7, #7]
 80030f4:	009b      	lsls	r3, r3, #2
 80030f6:	3301      	adds	r3, #1
 80030f8:	00db      	lsls	r3, r3, #3
 80030fa:	f503 7380 	add.w	r3, r3, #256	@ 0x100
 80030fe:	4618      	mov	r0, r3
 8003100:	f7ff fad4 	bl	80026ac <WIZCHIP_READ>
 8003104:	4603      	mov	r3, r0
 8003106:	2b00      	cmp	r3, #0
 8003108:	d1f3      	bne.n	80030f2 <disconnect+0x4a>
 800310a:	79fb      	ldrb	r3, [r7, #7]
 800310c:	2201      	movs	r2, #1
 800310e:	fa02 f303 	lsl.w	r3, r2, r3
 8003112:	b21b      	sxth	r3, r3
 8003114:	43db      	mvns	r3, r3
 8003116:	b21a      	sxth	r2, r3
 8003118:	4b1c      	ldr	r3, [pc, #112]	@ (800318c <disconnect+0xe4>)
 800311a:	881b      	ldrh	r3, [r3, #0]
 800311c:	b21b      	sxth	r3, r3
 800311e:	4013      	ands	r3, r2
 8003120:	b21b      	sxth	r3, r3
 8003122:	b29a      	uxth	r2, r3
 8003124:	4b19      	ldr	r3, [pc, #100]	@ (800318c <disconnect+0xe4>)
 8003126:	801a      	strh	r2, [r3, #0]
 8003128:	4b19      	ldr	r3, [pc, #100]	@ (8003190 <disconnect+0xe8>)
 800312a:	881b      	ldrh	r3, [r3, #0]
 800312c:	461a      	mov	r2, r3
 800312e:	79fb      	ldrb	r3, [r7, #7]
 8003130:	fa42 f303 	asr.w	r3, r2, r3
 8003134:	f003 0301 	and.w	r3, r3, #1
 8003138:	2b00      	cmp	r3, #0
 800313a:	d016      	beq.n	800316a <disconnect+0xc2>
 800313c:	2300      	movs	r3, #0
 800313e:	e021      	b.n	8003184 <disconnect+0xdc>
 8003140:	79fb      	ldrb	r3, [r7, #7]
 8003142:	009b      	lsls	r3, r3, #2
 8003144:	3301      	adds	r3, #1
 8003146:	00db      	lsls	r3, r3, #3
 8003148:	f503 7300 	add.w	r3, r3, #512	@ 0x200
 800314c:	4618      	mov	r0, r3
 800314e:	f7ff faad 	bl	80026ac <WIZCHIP_READ>
 8003152:	4603      	mov	r3, r0
 8003154:	f003 0308 	and.w	r3, r3, #8
 8003158:	2b00      	cmp	r3, #0
 800315a:	d006      	beq.n	800316a <disconnect+0xc2>
 800315c:	79fb      	ldrb	r3, [r7, #7]
 800315e:	4618      	mov	r0, r3
 8003160:	f7ff fe58 	bl	8002e14 <close>
 8003164:	f06f 030c 	mvn.w	r3, #12
 8003168:	e00c      	b.n	8003184 <disconnect+0xdc>
 800316a:	79fb      	ldrb	r3, [r7, #7]
 800316c:	009b      	lsls	r3, r3, #2
 800316e:	3301      	adds	r3, #1
 8003170:	00db      	lsls	r3, r3, #3
 8003172:	f503 7340 	add.w	r3, r3, #768	@ 0x300
 8003176:	4618      	mov	r0, r3
 8003178:	f7ff fa98 	bl	80026ac <WIZCHIP_READ>
 800317c:	4603      	mov	r3, r0
 800317e:	2b00      	cmp	r3, #0
 8003180:	d1de      	bne.n	8003140 <disconnect+0x98>
 8003182:	2301      	movs	r3, #1
 8003184:	4618      	mov	r0, r3
 8003186:	3708      	adds	r7, #8
 8003188:	46bd      	mov	sp, r7
 800318a:	bd80      	pop	{r7, pc}
 800318c:	200004be 	.word	0x200004be
 8003190:	200004bc 	.word	0x200004bc

08003194 <send>:
 8003194:	b580      	push	{r7, lr}
 8003196:	b084      	sub	sp, #16
 8003198:	af00      	add	r7, sp, #0
 800319a:	4603      	mov	r3, r0
 800319c:	6039      	str	r1, [r7, #0]
 800319e:	71fb      	strb	r3, [r7, #7]
 80031a0:	4613      	mov	r3, r2
 80031a2:	80bb      	strh	r3, [r7, #4]
 80031a4:	2300      	movs	r3, #0
 80031a6:	73fb      	strb	r3, [r7, #15]
 80031a8:	2300      	movs	r3, #0
 80031aa:	81bb      	strh	r3, [r7, #12]
 80031ac:	79fb      	ldrb	r3, [r7, #7]
 80031ae:	2b08      	cmp	r3, #8
 80031b0:	d902      	bls.n	80031b8 <send+0x24>
 80031b2:	f04f 33ff 	mov.w	r3, #4294967295
 80031b6:	e0dd      	b.n	8003374 <send+0x1e0>
 80031b8:	79fb      	ldrb	r3, [r7, #7]
 80031ba:	009b      	lsls	r3, r3, #2
 80031bc:	3301      	adds	r3, #1
 80031be:	00db      	lsls	r3, r3, #3
 80031c0:	4618      	mov	r0, r3
 80031c2:	f7ff fa73 	bl	80026ac <WIZCHIP_READ>
 80031c6:	4603      	mov	r3, r0
 80031c8:	f003 030f 	and.w	r3, r3, #15
 80031cc:	2b01      	cmp	r3, #1
 80031ce:	d002      	beq.n	80031d6 <send+0x42>
 80031d0:	f06f 0304 	mvn.w	r3, #4
 80031d4:	e0ce      	b.n	8003374 <send+0x1e0>
 80031d6:	88bb      	ldrh	r3, [r7, #4]
 80031d8:	2b00      	cmp	r3, #0
 80031da:	d102      	bne.n	80031e2 <send+0x4e>
 80031dc:	f06f 030d 	mvn.w	r3, #13
 80031e0:	e0c8      	b.n	8003374 <send+0x1e0>
 80031e2:	79fb      	ldrb	r3, [r7, #7]
 80031e4:	009b      	lsls	r3, r3, #2
 80031e6:	3301      	adds	r3, #1
 80031e8:	00db      	lsls	r3, r3, #3
 80031ea:	f503 7340 	add.w	r3, r3, #768	@ 0x300
 80031ee:	4618      	mov	r0, r3
 80031f0:	f7ff fa5c 	bl	80026ac <WIZCHIP_READ>
 80031f4:	4603      	mov	r3, r0
 80031f6:	73fb      	strb	r3, [r7, #15]
 80031f8:	7bfb      	ldrb	r3, [r7, #15]
 80031fa:	2b17      	cmp	r3, #23
 80031fc:	d005      	beq.n	800320a <send+0x76>
 80031fe:	7bfb      	ldrb	r3, [r7, #15]
 8003200:	2b1c      	cmp	r3, #28
 8003202:	d002      	beq.n	800320a <send+0x76>
 8003204:	f06f 0306 	mvn.w	r3, #6
 8003208:	e0b4      	b.n	8003374 <send+0x1e0>
 800320a:	4b5c      	ldr	r3, [pc, #368]	@ (800337c <send+0x1e8>)
 800320c:	881b      	ldrh	r3, [r3, #0]
 800320e:	461a      	mov	r2, r3
 8003210:	79fb      	ldrb	r3, [r7, #7]
 8003212:	fa42 f303 	asr.w	r3, r2, r3
 8003216:	f003 0301 	and.w	r3, r3, #1
 800321a:	2b00      	cmp	r3, #0
 800321c:	d039      	beq.n	8003292 <send+0xfe>
 800321e:	79fb      	ldrb	r3, [r7, #7]
 8003220:	009b      	lsls	r3, r3, #2
 8003222:	3301      	adds	r3, #1
 8003224:	00db      	lsls	r3, r3, #3
 8003226:	f503 7300 	add.w	r3, r3, #512	@ 0x200
 800322a:	4618      	mov	r0, r3
 800322c:	f7ff fa3e 	bl	80026ac <WIZCHIP_READ>
 8003230:	4603      	mov	r3, r0
 8003232:	f003 031f 	and.w	r3, r3, #31
 8003236:	73fb      	strb	r3, [r7, #15]
 8003238:	7bfb      	ldrb	r3, [r7, #15]
 800323a:	f003 0310 	and.w	r3, r3, #16
 800323e:	2b00      	cmp	r3, #0
 8003240:	d019      	beq.n	8003276 <send+0xe2>
 8003242:	79fb      	ldrb	r3, [r7, #7]
 8003244:	009b      	lsls	r3, r3, #2
 8003246:	3301      	adds	r3, #1
 8003248:	00db      	lsls	r3, r3, #3
 800324a:	f503 7300 	add.w	r3, r3, #512	@ 0x200
 800324e:	2110      	movs	r1, #16
 8003250:	4618      	mov	r0, r3
 8003252:	f7ff fa77 	bl	8002744 <WIZCHIP_WRITE>
 8003256:	79fb      	ldrb	r3, [r7, #7]
 8003258:	2201      	movs	r2, #1
 800325a:	fa02 f303 	lsl.w	r3, r2, r3
 800325e:	b21b      	sxth	r3, r3
 8003260:	43db      	mvns	r3, r3
 8003262:	b21a      	sxth	r2, r3
 8003264:	4b45      	ldr	r3, [pc, #276]	@ (800337c <send+0x1e8>)
 8003266:	881b      	ldrh	r3, [r3, #0]
 8003268:	b21b      	sxth	r3, r3
 800326a:	4013      	ands	r3, r2
 800326c:	b21b      	sxth	r3, r3
 800326e:	b29a      	uxth	r2, r3
 8003270:	4b42      	ldr	r3, [pc, #264]	@ (800337c <send+0x1e8>)
 8003272:	801a      	strh	r2, [r3, #0]
 8003274:	e00d      	b.n	8003292 <send+0xfe>
 8003276:	7bfb      	ldrb	r3, [r7, #15]
 8003278:	f003 0308 	and.w	r3, r3, #8
 800327c:	2b00      	cmp	r3, #0
 800327e:	d006      	beq.n	800328e <send+0xfa>
 8003280:	79fb      	ldrb	r3, [r7, #7]
 8003282:	4618      	mov	r0, r3
 8003284:	f7ff fdc6 	bl	8002e14 <close>
 8003288:	f06f 030c 	mvn.w	r3, #12
 800328c:	e072      	b.n	8003374 <send+0x1e0>
 800328e:	2300      	movs	r3, #0
 8003290:	e070      	b.n	8003374 <send+0x1e0>
 8003292:	79fb      	ldrb	r3, [r7, #7]
 8003294:	009b      	lsls	r3, r3, #2
 8003296:	3301      	adds	r3, #1
 8003298:	00db      	lsls	r3, r3, #3
 800329a:	f503 53f8 	add.w	r3, r3, #7936	@ 0x1f00
 800329e:	4618      	mov	r0, r3
 80032a0:	f7ff fa04 	bl	80026ac <WIZCHIP_READ>
 80032a4:	4603      	mov	r3, r0
 80032a6:	029b      	lsls	r3, r3, #10
 80032a8:	81bb      	strh	r3, [r7, #12]
 80032aa:	88ba      	ldrh	r2, [r7, #4]
 80032ac:	89bb      	ldrh	r3, [r7, #12]
 80032ae:	429a      	cmp	r2, r3
 80032b0:	d901      	bls.n	80032b6 <send+0x122>
 80032b2:	89bb      	ldrh	r3, [r7, #12]
 80032b4:	80bb      	strh	r3, [r7, #4]
 80032b6:	79fb      	ldrb	r3, [r7, #7]
 80032b8:	4618      	mov	r0, r3
 80032ba:	f7ff fb51 	bl	8002960 <getSn_TX_FSR>
 80032be:	4603      	mov	r3, r0
 80032c0:	81bb      	strh	r3, [r7, #12]
 80032c2:	79fb      	ldrb	r3, [r7, #7]
 80032c4:	009b      	lsls	r3, r3, #2
 80032c6:	3301      	adds	r3, #1
 80032c8:	00db      	lsls	r3, r3, #3
 80032ca:	f503 7340 	add.w	r3, r3, #768	@ 0x300
 80032ce:	4618      	mov	r0, r3
 80032d0:	f7ff f9ec 	bl	80026ac <WIZCHIP_READ>
 80032d4:	4603      	mov	r3, r0
 80032d6:	73fb      	strb	r3, [r7, #15]
 80032d8:	7bfb      	ldrb	r3, [r7, #15]
 80032da:	2b17      	cmp	r3, #23
 80032dc:	d009      	beq.n	80032f2 <send+0x15e>
 80032de:	7bfb      	ldrb	r3, [r7, #15]
 80032e0:	2b1c      	cmp	r3, #28
 80032e2:	d006      	beq.n	80032f2 <send+0x15e>
 80032e4:	79fb      	ldrb	r3, [r7, #7]
 80032e6:	4618      	mov	r0, r3
 80032e8:	f7ff fd94 	bl	8002e14 <close>
 80032ec:	f06f 0306 	mvn.w	r3, #6
 80032f0:	e040      	b.n	8003374 <send+0x1e0>
 80032f2:	4b23      	ldr	r3, [pc, #140]	@ (8003380 <send+0x1ec>)
 80032f4:	881b      	ldrh	r3, [r3, #0]
 80032f6:	461a      	mov	r2, r3
 80032f8:	79fb      	ldrb	r3, [r7, #7]
 80032fa:	fa42 f303 	asr.w	r3, r2, r3
 80032fe:	f003 0301 	and.w	r3, r3, #1
 8003302:	2b00      	cmp	r3, #0
 8003304:	d005      	beq.n	8003312 <send+0x17e>
 8003306:	88ba      	ldrh	r2, [r7, #4]
 8003308:	89bb      	ldrh	r3, [r7, #12]
 800330a:	429a      	cmp	r2, r3
 800330c:	d901      	bls.n	8003312 <send+0x17e>
 800330e:	2300      	movs	r3, #0
 8003310:	e030      	b.n	8003374 <send+0x1e0>
 8003312:	88ba      	ldrh	r2, [r7, #4]
 8003314:	89bb      	ldrh	r3, [r7, #12]
 8003316:	429a      	cmp	r2, r3
 8003318:	d900      	bls.n	800331c <send+0x188>
 800331a:	e7cc      	b.n	80032b6 <send+0x122>
 800331c:	bf00      	nop
 800331e:	88ba      	ldrh	r2, [r7, #4]
 8003320:	79fb      	ldrb	r3, [r7, #7]
 8003322:	6839      	ldr	r1, [r7, #0]
 8003324:	4618      	mov	r0, r3
 8003326:	f7ff fbad 	bl	8002a84 <wiz_send_data>
 800332a:	79fb      	ldrb	r3, [r7, #7]
 800332c:	009b      	lsls	r3, r3, #2
 800332e:	3301      	adds	r3, #1
 8003330:	00db      	lsls	r3, r3, #3
 8003332:	f503 7380 	add.w	r3, r3, #256	@ 0x100
 8003336:	2120      	movs	r1, #32
 8003338:	4618      	mov	r0, r3
 800333a:	f7ff fa03 	bl	8002744 <WIZCHIP_WRITE>
 800333e:	bf00      	nop
 8003340:	79fb      	ldrb	r3, [r7, #7]
 8003342:	009b      	lsls	r3, r3, #2
 8003344:	3301      	adds	r3, #1
 8003346:	00db      	lsls	r3, r3, #3
 8003348:	f503 7380 	add.w	r3, r3, #256	@ 0x100
 800334c:	4618      	mov	r0, r3
 800334e:	f7ff f9ad 	bl	80026ac <WIZCHIP_READ>
 8003352:	4603      	mov	r3, r0
 8003354:	2b00      	cmp	r3, #0
 8003356:	d1f3      	bne.n	8003340 <send+0x1ac>
 8003358:	79fb      	ldrb	r3, [r7, #7]
 800335a:	2201      	movs	r2, #1
 800335c:	fa02 f303 	lsl.w	r3, r2, r3
 8003360:	b21a      	sxth	r2, r3
 8003362:	4b06      	ldr	r3, [pc, #24]	@ (800337c <send+0x1e8>)
 8003364:	881b      	ldrh	r3, [r3, #0]
 8003366:	b21b      	sxth	r3, r3
 8003368:	4313      	orrs	r3, r2
 800336a:	b21b      	sxth	r3, r3
 800336c:	b29a      	uxth	r2, r3
 800336e:	4b03      	ldr	r3, [pc, #12]	@ (800337c <send+0x1e8>)
 8003370:	801a      	strh	r2, [r3, #0]
 8003372:	88bb      	ldrh	r3, [r7, #4]
 8003374:	4618      	mov	r0, r3
 8003376:	3710      	adds	r7, #16
 8003378:	46bd      	mov	sp, r7
 800337a:	bd80      	pop	{r7, pc}
 800337c:	200004be 	.word	0x200004be
 8003380:	200004bc 	.word	0x200004bc

08003384 <recv>:
 8003384:	b590      	push	{r4, r7, lr}
 8003386:	b085      	sub	sp, #20
 8003388:	af00      	add	r7, sp, #0
 800338a:	4603      	mov	r3, r0
 800338c:	6039      	str	r1, [r7, #0]
 800338e:	71fb      	strb	r3, [r7, #7]
 8003390:	4613      	mov	r3, r2
 8003392:	80bb      	strh	r3, [r7, #4]
 8003394:	2300      	movs	r3, #0
 8003396:	73fb      	strb	r3, [r7, #15]
 8003398:	2300      	movs	r3, #0
 800339a:	81bb      	strh	r3, [r7, #12]
 800339c:	79fb      	ldrb	r3, [r7, #7]
 800339e:	2b08      	cmp	r3, #8
 80033a0:	d902      	bls.n	80033a8 <recv+0x24>
 80033a2:	f04f 33ff 	mov.w	r3, #4294967295
 80033a6:	e09b      	b.n	80034e0 <recv+0x15c>
 80033a8:	79fb      	ldrb	r3, [r7, #7]
 80033aa:	009b      	lsls	r3, r3, #2
 80033ac:	3301      	adds	r3, #1
 80033ae:	00db      	lsls	r3, r3, #3
 80033b0:	4618      	mov	r0, r3
 80033b2:	f7ff f97b 	bl	80026ac <WIZCHIP_READ>
 80033b6:	4603      	mov	r3, r0
 80033b8:	f003 030f 	and.w	r3, r3, #15
 80033bc:	2b01      	cmp	r3, #1
 80033be:	d002      	beq.n	80033c6 <recv+0x42>
 80033c0:	f06f 0304 	mvn.w	r3, #4
 80033c4:	e08c      	b.n	80034e0 <recv+0x15c>
 80033c6:	88bb      	ldrh	r3, [r7, #4]
 80033c8:	2b00      	cmp	r3, #0
 80033ca:	d102      	bne.n	80033d2 <recv+0x4e>
 80033cc:	f06f 030d 	mvn.w	r3, #13
 80033d0:	e086      	b.n	80034e0 <recv+0x15c>
 80033d2:	79fb      	ldrb	r3, [r7, #7]
 80033d4:	009b      	lsls	r3, r3, #2
 80033d6:	3301      	adds	r3, #1
 80033d8:	00db      	lsls	r3, r3, #3
 80033da:	f503 53f0 	add.w	r3, r3, #7680	@ 0x1e00
 80033de:	4618      	mov	r0, r3
 80033e0:	f7ff f964 	bl	80026ac <WIZCHIP_READ>
 80033e4:	4603      	mov	r3, r0
 80033e6:	029b      	lsls	r3, r3, #10
 80033e8:	81bb      	strh	r3, [r7, #12]
 80033ea:	89ba      	ldrh	r2, [r7, #12]
 80033ec:	88bb      	ldrh	r3, [r7, #4]
 80033ee:	429a      	cmp	r2, r3
 80033f0:	d201      	bcs.n	80033f6 <recv+0x72>
 80033f2:	89bb      	ldrh	r3, [r7, #12]
 80033f4:	80bb      	strh	r3, [r7, #4]
 80033f6:	79fb      	ldrb	r3, [r7, #7]
 80033f8:	4618      	mov	r0, r3
 80033fa:	f7ff fafa 	bl	80029f2 <getSn_RX_RSR>
 80033fe:	4603      	mov	r3, r0
 8003400:	81bb      	strh	r3, [r7, #12]
 8003402:	79fb      	ldrb	r3, [r7, #7]
 8003404:	009b      	lsls	r3, r3, #2
 8003406:	3301      	adds	r3, #1
 8003408:	00db      	lsls	r3, r3, #3
 800340a:	f503 7340 	add.w	r3, r3, #768	@ 0x300
 800340e:	4618      	mov	r0, r3
 8003410:	f7ff f94c 	bl	80026ac <WIZCHIP_READ>
 8003414:	4603      	mov	r3, r0
 8003416:	73fb      	strb	r3, [r7, #15]
 8003418:	7bfb      	ldrb	r3, [r7, #15]
 800341a:	2b17      	cmp	r3, #23
 800341c:	d026      	beq.n	800346c <recv+0xe8>
 800341e:	7bfb      	ldrb	r3, [r7, #15]
 8003420:	2b1c      	cmp	r3, #28
 8003422:	d11c      	bne.n	800345e <recv+0xda>
 8003424:	89bb      	ldrh	r3, [r7, #12]
 8003426:	2b00      	cmp	r3, #0
 8003428:	d133      	bne.n	8003492 <recv+0x10e>
 800342a:	79fb      	ldrb	r3, [r7, #7]
 800342c:	4618      	mov	r0, r3
 800342e:	f7ff fa97 	bl	8002960 <getSn_TX_FSR>
 8003432:	4603      	mov	r3, r0
 8003434:	461c      	mov	r4, r3
 8003436:	79fb      	ldrb	r3, [r7, #7]
 8003438:	009b      	lsls	r3, r3, #2
 800343a:	3301      	adds	r3, #1
 800343c:	00db      	lsls	r3, r3, #3
 800343e:	f503 53f8 	add.w	r3, r3, #7936	@ 0x1f00
 8003442:	4618      	mov	r0, r3
 8003444:	f7ff f932 	bl	80026ac <WIZCHIP_READ>
 8003448:	4603      	mov	r3, r0
 800344a:	029b      	lsls	r3, r3, #10
 800344c:	429c      	cmp	r4, r3
 800344e:	d10d      	bne.n	800346c <recv+0xe8>
 8003450:	79fb      	ldrb	r3, [r7, #7]
 8003452:	4618      	mov	r0, r3
 8003454:	f7ff fcde 	bl	8002e14 <close>
 8003458:	f06f 0306 	mvn.w	r3, #6
 800345c:	e040      	b.n	80034e0 <recv+0x15c>
 800345e:	79fb      	ldrb	r3, [r7, #7]
 8003460:	4618      	mov	r0, r3
 8003462:	f7ff fcd7 	bl	8002e14 <close>
 8003466:	f06f 0306 	mvn.w	r3, #6
 800346a:	e039      	b.n	80034e0 <recv+0x15c>
 800346c:	4b1e      	ldr	r3, [pc, #120]	@ (80034e8 <recv+0x164>)
 800346e:	881b      	ldrh	r3, [r3, #0]
 8003470:	461a      	mov	r2, r3
 8003472:	79fb      	ldrb	r3, [r7, #7]
 8003474:	fa42 f303 	asr.w	r3, r2, r3
 8003478:	f003 0301 	and.w	r3, r3, #1
 800347c:	2b00      	cmp	r3, #0
 800347e:	d004      	beq.n	800348a <recv+0x106>
 8003480:	89bb      	ldrh	r3, [r7, #12]
 8003482:	2b00      	cmp	r3, #0
 8003484:	d101      	bne.n	800348a <recv+0x106>
 8003486:	2300      	movs	r3, #0
 8003488:	e02a      	b.n	80034e0 <recv+0x15c>
 800348a:	89bb      	ldrh	r3, [r7, #12]
 800348c:	2b00      	cmp	r3, #0
 800348e:	d102      	bne.n	8003496 <recv+0x112>
 8003490:	e7b1      	b.n	80033f6 <recv+0x72>
 8003492:	bf00      	nop
 8003494:	e000      	b.n	8003498 <recv+0x114>
 8003496:	bf00      	nop
 8003498:	89ba      	ldrh	r2, [r7, #12]
 800349a:	88bb      	ldrh	r3, [r7, #4]
 800349c:	429a      	cmp	r2, r3
 800349e:	d201      	bcs.n	80034a4 <recv+0x120>
 80034a0:	89bb      	ldrh	r3, [r7, #12]
 80034a2:	80bb      	strh	r3, [r7, #4]
 80034a4:	88ba      	ldrh	r2, [r7, #4]
 80034a6:	79fb      	ldrb	r3, [r7, #7]
 80034a8:	6839      	ldr	r1, [r7, #0]
 80034aa:	4618      	mov	r0, r3
 80034ac:	f7ff fb44 	bl	8002b38 <wiz_recv_data>
 80034b0:	79fb      	ldrb	r3, [r7, #7]
 80034b2:	009b      	lsls	r3, r3, #2
 80034b4:	3301      	adds	r3, #1
 80034b6:	00db      	lsls	r3, r3, #3
 80034b8:	f503 7380 	add.w	r3, r3, #256	@ 0x100
 80034bc:	2140      	movs	r1, #64	@ 0x40
 80034be:	4618      	mov	r0, r3
 80034c0:	f7ff f940 	bl	8002744 <WIZCHIP_WRITE>
 80034c4:	bf00      	nop
 80034c6:	79fb      	ldrb	r3, [r7, #7]
 80034c8:	009b      	lsls	r3, r3, #2
 80034ca:	3301      	adds	r3, #1
 80034cc:	00db      	lsls	r3, r3, #3
 80034ce:	f503 7380 	add.w	r3, r3, #256	@ 0x100
 80034d2:	4618      	mov	r0, r3
 80034d4:	f7ff f8ea 	bl	80026ac <WIZCHIP_READ>
 80034d8:	4603      	mov	r3, r0
 80034da:	2b00      	cmp	r3, #0
 80034dc:	d1f3      	bne.n	80034c6 <recv+0x142>
 80034de:	88bb      	ldrh	r3, [r7, #4]
 80034e0:	4618      	mov	r0, r3
 80034e2:	3714      	adds	r7, #20
 80034e4:	46bd      	mov	sp, r7
 80034e6:	bd90      	pop	{r4, r7, pc}
 80034e8:	200004bc 	.word	0x200004bc

080034ec <SPIReadWrite>:
 80034ec:	b480      	push	{r7}
 80034ee:	b083      	sub	sp, #12
 80034f0:	af00      	add	r7, sp, #0
 80034f2:	4603      	mov	r3, r0
 80034f4:	71fb      	strb	r3, [r7, #7]
 80034f6:	bf00      	nop
 80034f8:	4b0f      	ldr	r3, [pc, #60]	@ (8003538 <SPIReadWrite+0x4c>)
 80034fa:	681b      	ldr	r3, [r3, #0]
 80034fc:	689b      	ldr	r3, [r3, #8]
 80034fe:	f003 0302 	and.w	r3, r3, #2
 8003502:	2b02      	cmp	r3, #2
 8003504:	d1f8      	bne.n	80034f8 <SPIReadWrite+0xc>
 8003506:	4b0c      	ldr	r3, [pc, #48]	@ (8003538 <SPIReadWrite+0x4c>)
 8003508:	681b      	ldr	r3, [r3, #0]
 800350a:	330c      	adds	r3, #12
 800350c:	79fa      	ldrb	r2, [r7, #7]
 800350e:	701a      	strb	r2, [r3, #0]
 8003510:	bf00      	nop
 8003512:	4b09      	ldr	r3, [pc, #36]	@ (8003538 <SPIReadWrite+0x4c>)
 8003514:	681b      	ldr	r3, [r3, #0]
 8003516:	689b      	ldr	r3, [r3, #8]
 8003518:	f003 0301 	and.w	r3, r3, #1
 800351c:	2b01      	cmp	r3, #1
 800351e:	d1f8      	bne.n	8003512 <SPIReadWrite+0x26>
 8003520:	4b05      	ldr	r3, [pc, #20]	@ (8003538 <SPIReadWrite+0x4c>)
 8003522:	681b      	ldr	r3, [r3, #0]
 8003524:	330c      	adds	r3, #12
 8003526:	781b      	ldrb	r3, [r3, #0]
 8003528:	b2db      	uxtb	r3, r3
 800352a:	4618      	mov	r0, r3
 800352c:	370c      	adds	r7, #12
 800352e:	46bd      	mov	sp, r7
 8003530:	f85d 7b04 	ldr.w	r7, [sp], #4
 8003534:	4770      	bx	lr
 8003536:	bf00      	nop
 8003538:	2000013c 	.word	0x2000013c

0800353c <wizchip_select>:
 800353c:	b580      	push	{r7, lr}
 800353e:	af00      	add	r7, sp, #0
 8003540:	2200      	movs	r2, #0
 8003542:	2102      	movs	r1, #2
 8003544:	f04f 4090 	mov.w	r0, #1207959552	@ 0x48000000
 8003548:	f001 f9ae 	bl	80048a8 <HAL_GPIO_WritePin>
 800354c:	bf00      	nop
 800354e:	bd80      	pop	{r7, pc}

08003550 <wizchip_deselect>:
 8003550:	b580      	push	{r7, lr}
 8003552:	af00      	add	r7, sp, #0
 8003554:	2201      	movs	r2, #1
 8003556:	2102      	movs	r1, #2
 8003558:	f04f 4090 	mov.w	r0, #1207959552	@ 0x48000000
 800355c:	f001 f9a4 	bl	80048a8 <HAL_GPIO_WritePin>
 8003560:	bf00      	nop
 8003562:	bd80      	pop	{r7, pc}

08003564 <wizchip_read>:
 8003564:	b580      	push	{r7, lr}
 8003566:	b082      	sub	sp, #8
 8003568:	af00      	add	r7, sp, #0
 800356a:	2000      	movs	r0, #0
 800356c:	f7ff ffbe 	bl	80034ec <SPIReadWrite>
 8003570:	4603      	mov	r3, r0
 8003572:	71fb      	strb	r3, [r7, #7]
 8003574:	79fb      	ldrb	r3, [r7, #7]
 8003576:	4618      	mov	r0, r3
 8003578:	3708      	adds	r7, #8
 800357a:	46bd      	mov	sp, r7
 800357c:	bd80      	pop	{r7, pc}

0800357e <wizchip_write>:
 800357e:	b580      	push	{r7, lr}
 8003580:	b082      	sub	sp, #8
 8003582:	af00      	add	r7, sp, #0
 8003584:	4603      	mov	r3, r0
 8003586:	71fb      	strb	r3, [r7, #7]
 8003588:	79fb      	ldrb	r3, [r7, #7]
 800358a:	4618      	mov	r0, r3
 800358c:	f7ff ffae 	bl	80034ec <SPIReadWrite>
 8003590:	bf00      	nop
 8003592:	3708      	adds	r7, #8
 8003594:	46bd      	mov	sp, r7
 8003596:	bd80      	pop	{r7, pc}

08003598 <wizchip_readburst>:
 8003598:	b580      	push	{r7, lr}
 800359a:	b084      	sub	sp, #16
 800359c:	af00      	add	r7, sp, #0
 800359e:	6078      	str	r0, [r7, #4]
 80035a0:	460b      	mov	r3, r1
 80035a2:	807b      	strh	r3, [r7, #2]
 80035a4:	2300      	movs	r3, #0
 80035a6:	81fb      	strh	r3, [r7, #14]
 80035a8:	e00c      	b.n	80035c4 <wizchip_readburst+0x2c>
 80035aa:	2000      	movs	r0, #0
 80035ac:	f7ff ff9e 	bl	80034ec <SPIReadWrite>
 80035b0:	4603      	mov	r3, r0
 80035b2:	461a      	mov	r2, r3
 80035b4:	687b      	ldr	r3, [r7, #4]
 80035b6:	701a      	strb	r2, [r3, #0]
 80035b8:	687b      	ldr	r3, [r7, #4]
 80035ba:	3301      	adds	r3, #1
 80035bc:	607b      	str	r3, [r7, #4]
 80035be:	89fb      	ldrh	r3, [r7, #14]
 80035c0:	3301      	adds	r3, #1
 80035c2:	81fb      	strh	r3, [r7, #14]
 80035c4:	89fa      	ldrh	r2, [r7, #14]
 80035c6:	887b      	ldrh	r3, [r7, #2]
 80035c8:	429a      	cmp	r2, r3
 80035ca:	d3ee      	bcc.n	80035aa <wizchip_readburst+0x12>
 80035cc:	bf00      	nop
 80035ce:	bf00      	nop
 80035d0:	3710      	adds	r7, #16
 80035d2:	46bd      	mov	sp, r7
 80035d4:	bd80      	pop	{r7, pc}

080035d6 <wizchip_writeburst>:
 80035d6:	b580      	push	{r7, lr}
 80035d8:	b084      	sub	sp, #16
 80035da:	af00      	add	r7, sp, #0
 80035dc:	6078      	str	r0, [r7, #4]
 80035de:	460b      	mov	r3, r1
 80035e0:	807b      	strh	r3, [r7, #2]
 80035e2:	2300      	movs	r3, #0
 80035e4:	81fb      	strh	r3, [r7, #14]
 80035e6:	e00a      	b.n	80035fe <wizchip_writeburst+0x28>
 80035e8:	687b      	ldr	r3, [r7, #4]
 80035ea:	781b      	ldrb	r3, [r3, #0]
 80035ec:	4618      	mov	r0, r3
 80035ee:	f7ff ff7d 	bl	80034ec <SPIReadWrite>
 80035f2:	687b      	ldr	r3, [r7, #4]
 80035f4:	3301      	adds	r3, #1
 80035f6:	607b      	str	r3, [r7, #4]
 80035f8:	89fb      	ldrh	r3, [r7, #14]
 80035fa:	3301      	adds	r3, #1
 80035fc:	81fb      	strh	r3, [r7, #14]
 80035fe:	89fa      	ldrh	r2, [r7, #14]
 8003600:	887b      	ldrh	r3, [r7, #2]
 8003602:	429a      	cmp	r2, r3
 8003604:	d3f0      	bcc.n	80035e8 <wizchip_writeburst+0x12>
 8003606:	bf00      	nop
 8003608:	bf00      	nop
 800360a:	3710      	adds	r7, #16
 800360c:	46bd      	mov	sp, r7
 800360e:	bd80      	pop	{r7, pc}

08003610 <W5500IOInit>:
 8003610:	b580      	push	{r7, lr}
 8003612:	b086      	sub	sp, #24
 8003614:	af00      	add	r7, sp, #0
 8003616:	1d3b      	adds	r3, r7, #4
 8003618:	2200      	movs	r2, #0
 800361a:	601a      	str	r2, [r3, #0]
 800361c:	605a      	str	r2, [r3, #4]
 800361e:	609a      	str	r2, [r3, #8]
 8003620:	60da      	str	r2, [r3, #12]
 8003622:	611a      	str	r2, [r3, #16]
 8003624:	4b0e      	ldr	r3, [pc, #56]	@ (8003660 <W5500IOInit+0x50>)
 8003626:	6cdb      	ldr	r3, [r3, #76]	@ 0x4c
 8003628:	4a0d      	ldr	r2, [pc, #52]	@ (8003660 <W5500IOInit+0x50>)
 800362a:	f043 0301 	orr.w	r3, r3, #1
 800362e:	64d3      	str	r3, [r2, #76]	@ 0x4c
 8003630:	4b0b      	ldr	r3, [pc, #44]	@ (8003660 <W5500IOInit+0x50>)
 8003632:	6cdb      	ldr	r3, [r3, #76]	@ 0x4c
 8003634:	f003 0301 	and.w	r3, r3, #1
 8003638:	603b      	str	r3, [r7, #0]
 800363a:	683b      	ldr	r3, [r7, #0]
 800363c:	2303      	movs	r3, #3
 800363e:	607b      	str	r3, [r7, #4]
 8003640:	2301      	movs	r3, #1
 8003642:	60bb      	str	r3, [r7, #8]
 8003644:	2300      	movs	r3, #0
 8003646:	60fb      	str	r3, [r7, #12]
 8003648:	2302      	movs	r3, #2
 800364a:	613b      	str	r3, [r7, #16]
 800364c:	1d3b      	adds	r3, r7, #4
 800364e:	4619      	mov	r1, r3
 8003650:	f04f 4090 	mov.w	r0, #1207959552	@ 0x48000000
 8003654:	f000 ffa6 	bl	80045a4 <HAL_GPIO_Init>
 8003658:	bf00      	nop
 800365a:	3718      	adds	r7, #24
 800365c:	46bd      	mov	sp, r7
 800365e:	bd80      	pop	{r7, pc}
 8003660:	40021000 	.word	0x40021000

08003664 <W5500Init>:
 8003664:	b590      	push	{r4, r7, lr}
 8003666:	b087      	sub	sp, #28
 8003668:	af00      	add	r7, sp, #0
 800366a:	4b21      	ldr	r3, [pc, #132]	@ (80036f0 <W5500Init+0x8c>)
 800366c:	1d3c      	adds	r4, r7, #4
 800366e:	cb0f      	ldmia	r3, {r0, r1, r2, r3}
 8003670:	e884 000f 	stmia.w	r4, {r0, r1, r2, r3}
 8003674:	f7ff ffcc 	bl	8003610 <W5500IOInit>
 8003678:	2201      	movs	r2, #1
 800367a:	2102      	movs	r1, #2
 800367c:	f04f 4090 	mov.w	r0, #1207959552	@ 0x48000000
 8003680:	f001 f912 	bl	80048a8 <HAL_GPIO_WritePin>
 8003684:	2200      	movs	r2, #0
 8003686:	2101      	movs	r1, #1
 8003688:	f04f 4090 	mov.w	r0, #1207959552	@ 0x48000000
 800368c:	f001 f90c 	bl	80048a8 <HAL_GPIO_WritePin>
 8003690:	23ff      	movs	r3, #255	@ 0xff
 8003692:	75fb      	strb	r3, [r7, #23]
 8003694:	bf00      	nop
 8003696:	7dfb      	ldrb	r3, [r7, #23]
 8003698:	1e5a      	subs	r2, r3, #1
 800369a:	75fa      	strb	r2, [r7, #23]
 800369c:	2b00      	cmp	r3, #0
 800369e:	d1fa      	bne.n	8003696 <W5500Init+0x32>
 80036a0:	2201      	movs	r2, #1
 80036a2:	2101      	movs	r1, #1
 80036a4:	f04f 4090 	mov.w	r0, #1207959552	@ 0x48000000
 80036a8:	f001 f8fe 	bl	80048a8 <HAL_GPIO_WritePin>
 80036ac:	4911      	ldr	r1, [pc, #68]	@ (80036f4 <W5500Init+0x90>)
 80036ae:	4812      	ldr	r0, [pc, #72]	@ (80036f8 <W5500Init+0x94>)
 80036b0:	f000 f894 	bl	80037dc <reg_wizchip_cs_cbfunc>
 80036b4:	4911      	ldr	r1, [pc, #68]	@ (80036fc <W5500Init+0x98>)
 80036b6:	4812      	ldr	r0, [pc, #72]	@ (8003700 <W5500Init+0x9c>)
 80036b8:	f000 f8b6 	bl	8003828 <reg_wizchip_spi_cbfunc>
 80036bc:	4911      	ldr	r1, [pc, #68]	@ (8003704 <W5500Init+0xa0>)
 80036be:	4812      	ldr	r0, [pc, #72]	@ (8003708 <W5500Init+0xa4>)
 80036c0:	f000 f8de 	bl	8003880 <reg_wizchip_spiburst_cbfunc>
 80036c4:	1d3b      	adds	r3, r7, #4
 80036c6:	4619      	mov	r1, r3
 80036c8:	2001      	movs	r0, #1
 80036ca:	f000 f905 	bl	80038d8 <ctlwizchip>
 80036ce:	4603      	mov	r3, r0
 80036d0:	f1b3 3fff 	cmp.w	r3, #4294967295
 80036d4:	d104      	bne.n	80036e0 <W5500Init+0x7c>
 80036d6:	480d      	ldr	r0, [pc, #52]	@ (800370c <W5500Init+0xa8>)
 80036d8:	f003 f972 	bl	80069c0 <puts>
 80036dc:	bf00      	nop
 80036de:	e7fd      	b.n	80036dc <W5500Init+0x78>
 80036e0:	480b      	ldr	r0, [pc, #44]	@ (8003710 <W5500Init+0xac>)
 80036e2:	f003 f96d 	bl	80069c0 <puts>
 80036e6:	bf00      	nop
 80036e8:	371c      	adds	r7, #28
 80036ea:	46bd      	mov	sp, r7
 80036ec:	bd90      	pop	{r4, r7, pc}
 80036ee:	bf00      	nop
 80036f0:	08007b64 	.word	0x08007b64
 80036f4:	08003551 	.word	0x08003551
 80036f8:	0800353d 	.word	0x0800353d
 80036fc:	0800357f 	.word	0x0800357f
 8003700:	08003565 	.word	0x08003565
 8003704:	080035d7 	.word	0x080035d7
 8003708:	08003599 	.word	0x08003599
 800370c:	08007b20 	.word	0x08007b20
 8003710:	08007b40 	.word	0x08007b40

08003714 <wizchip_cris_enter>:
 8003714:	b480      	push	{r7}
 8003716:	af00      	add	r7, sp, #0
 8003718:	bf00      	nop
 800371a:	46bd      	mov	sp, r7
 800371c:	f85d 7b04 	ldr.w	r7, [sp], #4
 8003720:	4770      	bx	lr

08003722 <wizchip_cris_exit>:
 8003722:	b480      	push	{r7}
 8003724:	af00      	add	r7, sp, #0
 8003726:	bf00      	nop
 8003728:	46bd      	mov	sp, r7
 800372a:	f85d 7b04 	ldr.w	r7, [sp], #4
 800372e:	4770      	bx	lr

08003730 <wizchip_cs_select>:
 8003730:	b480      	push	{r7}
 8003732:	af00      	add	r7, sp, #0
 8003734:	bf00      	nop
 8003736:	46bd      	mov	sp, r7
 8003738:	f85d 7b04 	ldr.w	r7, [sp], #4
 800373c:	4770      	bx	lr

0800373e <wizchip_cs_deselect>:
 800373e:	b480      	push	{r7}
 8003740:	af00      	add	r7, sp, #0
 8003742:	bf00      	nop
 8003744:	46bd      	mov	sp, r7
 8003746:	f85d 7b04 	ldr.w	r7, [sp], #4
 800374a:	4770      	bx	lr

0800374c <wizchip_bus_readdata>:
 800374c:	b480      	push	{r7}
 800374e:	b083      	sub	sp, #12
 8003750:	af00      	add	r7, sp, #0
 8003752:	6078      	str	r0, [r7, #4]
 8003754:	687b      	ldr	r3, [r7, #4]
 8003756:	781b      	ldrb	r3, [r3, #0]
 8003758:	b2db      	uxtb	r3, r3
 800375a:	4618      	mov	r0, r3
 800375c:	370c      	adds	r7, #12
 800375e:	46bd      	mov	sp, r7
 8003760:	f85d 7b04 	ldr.w	r7, [sp], #4
 8003764:	4770      	bx	lr

08003766 <wizchip_bus_writedata>:
 8003766:	b480      	push	{r7}
 8003768:	b083      	sub	sp, #12
 800376a:	af00      	add	r7, sp, #0
 800376c:	6078      	str	r0, [r7, #4]
 800376e:	460b      	mov	r3, r1
 8003770:	70fb      	strb	r3, [r7, #3]
 8003772:	687b      	ldr	r3, [r7, #4]
 8003774:	78fa      	ldrb	r2, [r7, #3]
 8003776:	701a      	strb	r2, [r3, #0]
 8003778:	bf00      	nop
 800377a:	370c      	adds	r7, #12
 800377c:	46bd      	mov	sp, r7
 800377e:	f85d 7b04 	ldr.w	r7, [sp], #4
 8003782:	4770      	bx	lr

08003784 <wizchip_spi_readbyte>:
 8003784:	b480      	push	{r7}
 8003786:	af00      	add	r7, sp, #0
 8003788:	2300      	movs	r3, #0
 800378a:	4618      	mov	r0, r3
 800378c:	46bd      	mov	sp, r7
 800378e:	f85d 7b04 	ldr.w	r7, [sp], #4
 8003792:	4770      	bx	lr

08003794 <wizchip_spi_writebyte>:
 8003794:	b480      	push	{r7}
 8003796:	b083      	sub	sp, #12
 8003798:	af00      	add	r7, sp, #0
 800379a:	4603      	mov	r3, r0
 800379c:	71fb      	strb	r3, [r7, #7]
 800379e:	bf00      	nop
 80037a0:	370c      	adds	r7, #12
 80037a2:	46bd      	mov	sp, r7
 80037a4:	f85d 7b04 	ldr.w	r7, [sp], #4
 80037a8:	4770      	bx	lr

080037aa <wizchip_spi_readburst>:
 80037aa:	b480      	push	{r7}
 80037ac:	b083      	sub	sp, #12
 80037ae:	af00      	add	r7, sp, #0
 80037b0:	6078      	str	r0, [r7, #4]
 80037b2:	460b      	mov	r3, r1
 80037b4:	807b      	strh	r3, [r7, #2]
 80037b6:	bf00      	nop
 80037b8:	370c      	adds	r7, #12
 80037ba:	46bd      	mov	sp, r7
 80037bc:	f85d 7b04 	ldr.w	r7, [sp], #4
 80037c0:	4770      	bx	lr

080037c2 <wizchip_spi_writeburst>:
 80037c2:	b480      	push	{r7}
 80037c4:	b083      	sub	sp, #12
 80037c6:	af00      	add	r7, sp, #0
 80037c8:	6078      	str	r0, [r7, #4]
 80037ca:	460b      	mov	r3, r1
 80037cc:	807b      	strh	r3, [r7, #2]
 80037ce:	bf00      	nop
 80037d0:	370c      	adds	r7, #12
 80037d2:	46bd      	mov	sp, r7
 80037d4:	f85d 7b04 	ldr.w	r7, [sp], #4
 80037d8:	4770      	bx	lr
	...

080037dc <reg_wizchip_cs_cbfunc>:
 80037dc:	b480      	push	{r7}
 80037de:	b083      	sub	sp, #12
 80037e0:	af00      	add	r7, sp, #0
 80037e2:	6078      	str	r0, [r7, #4]
 80037e4:	6039      	str	r1, [r7, #0]
 80037e6:	687b      	ldr	r3, [r7, #4]
 80037e8:	2b00      	cmp	r3, #0
 80037ea:	d002      	beq.n	80037f2 <reg_wizchip_cs_cbfunc+0x16>
 80037ec:	683b      	ldr	r3, [r7, #0]
 80037ee:	2b00      	cmp	r3, #0
 80037f0:	d106      	bne.n	8003800 <reg_wizchip_cs_cbfunc+0x24>
 80037f2:	4b0a      	ldr	r3, [pc, #40]	@ (800381c <reg_wizchip_cs_cbfunc+0x40>)
 80037f4:	4a0a      	ldr	r2, [pc, #40]	@ (8003820 <reg_wizchip_cs_cbfunc+0x44>)
 80037f6:	615a      	str	r2, [r3, #20]
 80037f8:	4b08      	ldr	r3, [pc, #32]	@ (800381c <reg_wizchip_cs_cbfunc+0x40>)
 80037fa:	4a0a      	ldr	r2, [pc, #40]	@ (8003824 <reg_wizchip_cs_cbfunc+0x48>)
 80037fc:	619a      	str	r2, [r3, #24]
 80037fe:	e006      	b.n	800380e <reg_wizchip_cs_cbfunc+0x32>
 8003800:	4a06      	ldr	r2, [pc, #24]	@ (800381c <reg_wizchip_cs_cbfunc+0x40>)
 8003802:	687b      	ldr	r3, [r7, #4]
 8003804:	6153      	str	r3, [r2, #20]
 8003806:	4a05      	ldr	r2, [pc, #20]	@ (800381c <reg_wizchip_cs_cbfunc+0x40>)
 8003808:	683b      	ldr	r3, [r7, #0]
 800380a:	6193      	str	r3, [r2, #24]
 800380c:	bf00      	nop
 800380e:	bf00      	nop
 8003810:	370c      	adds	r7, #12
 8003812:	46bd      	mov	sp, r7
 8003814:	f85d 7b04 	ldr.w	r7, [sp], #4
 8003818:	4770      	bx	lr
 800381a:	bf00      	nop
 800381c:	20000090 	.word	0x20000090
 8003820:	08003731 	.word	0x08003731
 8003824:	0800373f 	.word	0x0800373f

08003828 <reg_wizchip_spi_cbfunc>:
 8003828:	b480      	push	{r7}
 800382a:	b083      	sub	sp, #12
 800382c:	af00      	add	r7, sp, #0
 800382e:	6078      	str	r0, [r7, #4]
 8003830:	6039      	str	r1, [r7, #0]
 8003832:	bf00      	nop
 8003834:	4b0f      	ldr	r3, [pc, #60]	@ (8003874 <reg_wizchip_spi_cbfunc+0x4c>)
 8003836:	881b      	ldrh	r3, [r3, #0]
 8003838:	f403 7300 	and.w	r3, r3, #512	@ 0x200
 800383c:	2b00      	cmp	r3, #0
 800383e:	d0f9      	beq.n	8003834 <reg_wizchip_spi_cbfunc+0xc>
 8003840:	687b      	ldr	r3, [r7, #4]
 8003842:	2b00      	cmp	r3, #0
 8003844:	d002      	beq.n	800384c <reg_wizchip_spi_cbfunc+0x24>
 8003846:	683b      	ldr	r3, [r7, #0]
 8003848:	2b00      	cmp	r3, #0
 800384a:	d106      	bne.n	800385a <reg_wizchip_spi_cbfunc+0x32>
 800384c:	4b09      	ldr	r3, [pc, #36]	@ (8003874 <reg_wizchip_spi_cbfunc+0x4c>)
 800384e:	4a0a      	ldr	r2, [pc, #40]	@ (8003878 <reg_wizchip_spi_cbfunc+0x50>)
 8003850:	61da      	str	r2, [r3, #28]
 8003852:	4b08      	ldr	r3, [pc, #32]	@ (8003874 <reg_wizchip_spi_cbfunc+0x4c>)
 8003854:	4a09      	ldr	r2, [pc, #36]	@ (800387c <reg_wizchip_spi_cbfunc+0x54>)
 8003856:	621a      	str	r2, [r3, #32]
 8003858:	e006      	b.n	8003868 <reg_wizchip_spi_cbfunc+0x40>
 800385a:	4a06      	ldr	r2, [pc, #24]	@ (8003874 <reg_wizchip_spi_cbfunc+0x4c>)
 800385c:	687b      	ldr	r3, [r7, #4]
 800385e:	61d3      	str	r3, [r2, #28]
 8003860:	4a04      	ldr	r2, [pc, #16]	@ (8003874 <reg_wizchip_spi_cbfunc+0x4c>)
 8003862:	683b      	ldr	r3, [r7, #0]
 8003864:	6213      	str	r3, [r2, #32]
 8003866:	bf00      	nop
 8003868:	bf00      	nop
 800386a:	370c      	adds	r7, #12
 800386c:	46bd      	mov	sp, r7
 800386e:	f85d 7b04 	ldr.w	r7, [sp], #4
 8003872:	4770      	bx	lr
 8003874:	20000090 	.word	0x20000090
 8003878:	08003785 	.word	0x08003785
 800387c:	08003795 	.word	0x08003795

08003880 <reg_wizchip_spiburst_cbfunc>:
 8003880:	b480      	push	{r7}
 8003882:	b083      	sub	sp, #12
 8003884:	af00      	add	r7, sp, #0
 8003886:	6078      	str	r0, [r7, #4]
 8003888:	6039      	str	r1, [r7, #0]
 800388a:	bf00      	nop
 800388c:	4b0f      	ldr	r3, [pc, #60]	@ (80038cc <reg_wizchip_spiburst_cbfunc+0x4c>)
 800388e:	881b      	ldrh	r3, [r3, #0]
 8003890:	f403 7300 	and.w	r3, r3, #512	@ 0x200
 8003894:	2b00      	cmp	r3, #0
 8003896:	d0f9      	beq.n	800388c <reg_wizchip_spiburst_cbfunc+0xc>
 8003898:	687b      	ldr	r3, [r7, #4]
 800389a:	2b00      	cmp	r3, #0
 800389c:	d002      	beq.n	80038a4 <reg_wizchip_spiburst_cbfunc+0x24>
 800389e:	683b      	ldr	r3, [r7, #0]
 80038a0:	2b00      	cmp	r3, #0
 80038a2:	d106      	bne.n	80038b2 <reg_wizchip_spiburst_cbfunc+0x32>
 80038a4:	4b09      	ldr	r3, [pc, #36]	@ (80038cc <reg_wizchip_spiburst_cbfunc+0x4c>)
 80038a6:	4a0a      	ldr	r2, [pc, #40]	@ (80038d0 <reg_wizchip_spiburst_cbfunc+0x50>)
 80038a8:	625a      	str	r2, [r3, #36]	@ 0x24
 80038aa:	4b08      	ldr	r3, [pc, #32]	@ (80038cc <reg_wizchip_spiburst_cbfunc+0x4c>)
 80038ac:	4a09      	ldr	r2, [pc, #36]	@ (80038d4 <reg_wizchip_spiburst_cbfunc+0x54>)
 80038ae:	629a      	str	r2, [r3, #40]	@ 0x28
 80038b0:	e006      	b.n	80038c0 <reg_wizchip_spiburst_cbfunc+0x40>
 80038b2:	4a06      	ldr	r2, [pc, #24]	@ (80038cc <reg_wizchip_spiburst_cbfunc+0x4c>)
 80038b4:	687b      	ldr	r3, [r7, #4]
 80038b6:	6253      	str	r3, [r2, #36]	@ 0x24
 80038b8:	4a04      	ldr	r2, [pc, #16]	@ (80038cc <reg_wizchip_spiburst_cbfunc+0x4c>)
 80038ba:	683b      	ldr	r3, [r7, #0]
 80038bc:	6293      	str	r3, [r2, #40]	@ 0x28
 80038be:	bf00      	nop
 80038c0:	bf00      	nop
 80038c2:	370c      	adds	r7, #12
 80038c4:	46bd      	mov	sp, r7
 80038c6:	f85d 7b04 	ldr.w	r7, [sp], #4
 80038ca:	4770      	bx	lr
 80038cc:	20000090 	.word	0x20000090
 80038d0:	080037ab 	.word	0x080037ab
 80038d4:	080037c3 	.word	0x080037c3

080038d8 <ctlwizchip>:
 80038d8:	b590      	push	{r4, r7, lr}
 80038da:	b087      	sub	sp, #28
 80038dc:	af00      	add	r7, sp, #0
 80038de:	4603      	mov	r3, r0
 80038e0:	6039      	str	r1, [r7, #0]
 80038e2:	71fb      	strb	r3, [r7, #7]
 80038e4:	2300      	movs	r3, #0
 80038e6:	75fb      	strb	r3, [r7, #23]
 80038e8:	2300      	movs	r3, #0
 80038ea:	60fb      	str	r3, [r7, #12]
 80038ec:	2300      	movs	r3, #0
 80038ee:	613b      	str	r3, [r7, #16]
 80038f0:	79fb      	ldrb	r3, [r7, #7]
 80038f2:	2b0f      	cmp	r3, #15
 80038f4:	f200 80c5 	bhi.w	8003a82 <ctlwizchip+0x1aa>
 80038f8:	a201      	add	r2, pc, #4	@ (adr r2, 8003900 <ctlwizchip+0x28>)
 80038fa:	f852 f023 	ldr.w	pc, [r2, r3, lsl #2]
 80038fe:	bf00      	nop
 8003900:	08003941 	.word	0x08003941
 8003904:	08003947 	.word	0x08003947
 8003908:	08003973 	.word	0x08003973
 800390c:	08003967 	.word	0x08003967
 8003910:	08003981 	.word	0x08003981
 8003914:	0800398d 	.word	0x0800398d
 8003918:	0800399b 	.word	0x0800399b
 800391c:	080039c1 	.word	0x080039c1
 8003920:	080039e3 	.word	0x080039e3
 8003924:	08003a27 	.word	0x08003a27
 8003928:	08003a2d 	.word	0x08003a2d
 800392c:	08003a35 	.word	0x08003a35
 8003930:	08003a89 	.word	0x08003a89
 8003934:	08003a3d 	.word	0x08003a3d
 8003938:	08003a4b 	.word	0x08003a4b
 800393c:	08003a67 	.word	0x08003a67
 8003940:	f000 f8e8 	bl	8003b14 <wizchip_sw_reset>
 8003944:	e0a1      	b.n	8003a8a <ctlwizchip+0x1b2>
 8003946:	683b      	ldr	r3, [r7, #0]
 8003948:	2b00      	cmp	r3, #0
 800394a:	d004      	beq.n	8003956 <ctlwizchip+0x7e>
 800394c:	683b      	ldr	r3, [r7, #0]
 800394e:	60fb      	str	r3, [r7, #12]
 8003950:	68fb      	ldr	r3, [r7, #12]
 8003952:	3308      	adds	r3, #8
 8003954:	613b      	str	r3, [r7, #16]
 8003956:	68fb      	ldr	r3, [r7, #12]
 8003958:	693a      	ldr	r2, [r7, #16]
 800395a:	4611      	mov	r1, r2
 800395c:	4618      	mov	r0, r3
 800395e:	f000 f925 	bl	8003bac <wizchip_init>
 8003962:	4603      	mov	r3, r0
 8003964:	e092      	b.n	8003a8c <ctlwizchip+0x1b4>
 8003966:	683b      	ldr	r3, [r7, #0]
 8003968:	881b      	ldrh	r3, [r3, #0]
 800396a:	4618      	mov	r0, r3
 800396c:	f000 f9aa 	bl	8003cc4 <wizchip_clrinterrupt>
 8003970:	e08b      	b.n	8003a8a <ctlwizchip+0x1b2>
 8003972:	f000 f9db 	bl	8003d2c <wizchip_getinterrupt>
 8003976:	4603      	mov	r3, r0
 8003978:	461a      	mov	r2, r3
 800397a:	683b      	ldr	r3, [r7, #0]
 800397c:	801a      	strh	r2, [r3, #0]
 800397e:	e084      	b.n	8003a8a <ctlwizchip+0x1b2>
 8003980:	683b      	ldr	r3, [r7, #0]
 8003982:	881b      	ldrh	r3, [r3, #0]
 8003984:	4618      	mov	r0, r3
 8003986:	f000 f9f6 	bl	8003d76 <wizchip_setinterruptmask>
 800398a:	e07e      	b.n	8003a8a <ctlwizchip+0x1b2>
 800398c:	f000 fa0e 	bl	8003dac <wizchip_getinterruptmask>
 8003990:	4603      	mov	r3, r0
 8003992:	461a      	mov	r2, r3
 8003994:	683b      	ldr	r3, [r7, #0]
 8003996:	801a      	strh	r2, [r3, #0]
 8003998:	e077      	b.n	8003a8a <ctlwizchip+0x1b2>
 800399a:	683b      	ldr	r3, [r7, #0]
 800399c:	881b      	ldrh	r3, [r3, #0]
 800399e:	0a1b      	lsrs	r3, r3, #8
 80039a0:	b29b      	uxth	r3, r3
 80039a2:	b2db      	uxtb	r3, r3
 80039a4:	4619      	mov	r1, r3
 80039a6:	f44f 5098 	mov.w	r0, #4864	@ 0x1300
 80039aa:	f7fe fecb 	bl	8002744 <WIZCHIP_WRITE>
 80039ae:	683b      	ldr	r3, [r7, #0]
 80039b0:	881b      	ldrh	r3, [r3, #0]
 80039b2:	b2db      	uxtb	r3, r3
 80039b4:	4619      	mov	r1, r3
 80039b6:	f44f 50a0 	mov.w	r0, #5120	@ 0x1400
 80039ba:	f7fe fec3 	bl	8002744 <WIZCHIP_WRITE>
 80039be:	e064      	b.n	8003a8a <ctlwizchip+0x1b2>
 80039c0:	f44f 5098 	mov.w	r0, #4864	@ 0x1300
 80039c4:	f7fe fe72 	bl	80026ac <WIZCHIP_READ>
 80039c8:	4603      	mov	r3, r0
 80039ca:	021b      	lsls	r3, r3, #8
 80039cc:	b29c      	uxth	r4, r3
 80039ce:	f44f 50a0 	mov.w	r0, #5120	@ 0x1400
 80039d2:	f7fe fe6b 	bl	80026ac <WIZCHIP_READ>
 80039d6:	4603      	mov	r3, r0
 80039d8:	4423      	add	r3, r4
 80039da:	b29a      	uxth	r2, r3
 80039dc:	683b      	ldr	r3, [r7, #0]
 80039de:	801a      	strh	r2, [r3, #0]
 80039e0:	e053      	b.n	8003a8a <ctlwizchip+0x1b2>
 80039e2:	4b2c      	ldr	r3, [pc, #176]	@ (8003a94 <ctlwizchip+0x1bc>)
 80039e4:	789a      	ldrb	r2, [r3, #2]
 80039e6:	683b      	ldr	r3, [r7, #0]
 80039e8:	701a      	strb	r2, [r3, #0]
 80039ea:	683b      	ldr	r3, [r7, #0]
 80039ec:	3301      	adds	r3, #1
 80039ee:	4a29      	ldr	r2, [pc, #164]	@ (8003a94 <ctlwizchip+0x1bc>)
 80039f0:	78d2      	ldrb	r2, [r2, #3]
 80039f2:	701a      	strb	r2, [r3, #0]
 80039f4:	683b      	ldr	r3, [r7, #0]
 80039f6:	3302      	adds	r3, #2
 80039f8:	4a26      	ldr	r2, [pc, #152]	@ (8003a94 <ctlwizchip+0x1bc>)
 80039fa:	7912      	ldrb	r2, [r2, #4]
 80039fc:	701a      	strb	r2, [r3, #0]
 80039fe:	683b      	ldr	r3, [r7, #0]
 8003a00:	3303      	adds	r3, #3
 8003a02:	4a24      	ldr	r2, [pc, #144]	@ (8003a94 <ctlwizchip+0x1bc>)
 8003a04:	7952      	ldrb	r2, [r2, #5]
 8003a06:	701a      	strb	r2, [r3, #0]
 8003a08:	683b      	ldr	r3, [r7, #0]
 8003a0a:	3304      	adds	r3, #4
 8003a0c:	4a21      	ldr	r2, [pc, #132]	@ (8003a94 <ctlwizchip+0x1bc>)
 8003a0e:	7992      	ldrb	r2, [r2, #6]
 8003a10:	701a      	strb	r2, [r3, #0]
 8003a12:	683b      	ldr	r3, [r7, #0]
 8003a14:	3305      	adds	r3, #5
 8003a16:	4a1f      	ldr	r2, [pc, #124]	@ (8003a94 <ctlwizchip+0x1bc>)
 8003a18:	79d2      	ldrb	r2, [r2, #7]
 8003a1a:	701a      	strb	r2, [r3, #0]
 8003a1c:	683b      	ldr	r3, [r7, #0]
 8003a1e:	3306      	adds	r3, #6
 8003a20:	2200      	movs	r2, #0
 8003a22:	701a      	strb	r2, [r3, #0]
 8003a24:	e031      	b.n	8003a8a <ctlwizchip+0x1b2>
 8003a26:	f000 fa13 	bl	8003e50 <wizphy_reset>
 8003a2a:	e02e      	b.n	8003a8a <ctlwizchip+0x1b2>
 8003a2c:	6838      	ldr	r0, [r7, #0]
 8003a2e:	f000 fa36 	bl	8003e9e <wizphy_setphyconf>
 8003a32:	e02a      	b.n	8003a8a <ctlwizchip+0x1b2>
 8003a34:	6838      	ldr	r0, [r7, #0]
 8003a36:	f000 fa75 	bl	8003f24 <wizphy_getphyconf>
 8003a3a:	e026      	b.n	8003a8a <ctlwizchip+0x1b2>
 8003a3c:	683b      	ldr	r3, [r7, #0]
 8003a3e:	781b      	ldrb	r3, [r3, #0]
 8003a40:	4618      	mov	r0, r3
 8003a42:	f000 fad9 	bl	8003ff8 <wizphy_setphypmode>
 8003a46:	4603      	mov	r3, r0
 8003a48:	e020      	b.n	8003a8c <ctlwizchip+0x1b4>
 8003a4a:	f000 f9e8 	bl	8003e1e <wizphy_getphypmode>
 8003a4e:	4603      	mov	r3, r0
 8003a50:	75fb      	strb	r3, [r7, #23]
 8003a52:	7dfb      	ldrb	r3, [r7, #23]
 8003a54:	2bff      	cmp	r3, #255	@ 0xff
 8003a56:	d102      	bne.n	8003a5e <ctlwizchip+0x186>
 8003a58:	f04f 33ff 	mov.w	r3, #4294967295
 8003a5c:	e016      	b.n	8003a8c <ctlwizchip+0x1b4>
 8003a5e:	683b      	ldr	r3, [r7, #0]
 8003a60:	7dfa      	ldrb	r2, [r7, #23]
 8003a62:	701a      	strb	r2, [r3, #0]
 8003a64:	e011      	b.n	8003a8a <ctlwizchip+0x1b2>
 8003a66:	f000 f9c4 	bl	8003df2 <wizphy_getphylink>
 8003a6a:	4603      	mov	r3, r0
 8003a6c:	75fb      	strb	r3, [r7, #23]
 8003a6e:	7dfb      	ldrb	r3, [r7, #23]
 8003a70:	2bff      	cmp	r3, #255	@ 0xff
 8003a72:	d102      	bne.n	8003a7a <ctlwizchip+0x1a2>
 8003a74:	f04f 33ff 	mov.w	r3, #4294967295
 8003a78:	e008      	b.n	8003a8c <ctlwizchip+0x1b4>
 8003a7a:	683b      	ldr	r3, [r7, #0]
 8003a7c:	7dfa      	ldrb	r2, [r7, #23]
 8003a7e:	701a      	strb	r2, [r3, #0]
 8003a80:	e003      	b.n	8003a8a <ctlwizchip+0x1b2>
 8003a82:	f04f 33ff 	mov.w	r3, #4294967295
 8003a86:	e001      	b.n	8003a8c <ctlwizchip+0x1b4>
 8003a88:	bf00      	nop
 8003a8a:	2300      	movs	r3, #0
 8003a8c:	4618      	mov	r0, r3
 8003a8e:	371c      	adds	r7, #28
 8003a90:	46bd      	mov	sp, r7
 8003a92:	bd90      	pop	{r4, r7, pc}
 8003a94:	20000090 	.word	0x20000090

08003a98 <ctlnetwork>:
 8003a98:	b580      	push	{r7, lr}
 8003a9a:	b082      	sub	sp, #8
 8003a9c:	af00      	add	r7, sp, #0
 8003a9e:	4603      	mov	r3, r0
 8003aa0:	6039      	str	r1, [r7, #0]
 8003aa2:	71fb      	strb	r3, [r7, #7]
 8003aa4:	79fb      	ldrb	r3, [r7, #7]
 8003aa6:	2b05      	cmp	r3, #5
 8003aa8:	d82c      	bhi.n	8003b04 <ctlnetwork+0x6c>
 8003aaa:	a201      	add	r2, pc, #4	@ (adr r2, 8003ab0 <ctlnetwork+0x18>)
 8003aac:	f852 f023 	ldr.w	pc, [r2, r3, lsl #2]
 8003ab0:	08003ac9 	.word	0x08003ac9
 8003ab4:	08003ad1 	.word	0x08003ad1
 8003ab8:	08003ad9 	.word	0x08003ad9
 8003abc:	08003ae7 	.word	0x08003ae7
 8003ac0:	08003af5 	.word	0x08003af5
 8003ac4:	08003afd 	.word	0x08003afd
 8003ac8:	6838      	ldr	r0, [r7, #0]
 8003aca:	f000 fadf 	bl	800408c <wizchip_setnetinfo>
 8003ace:	e01c      	b.n	8003b0a <ctlnetwork+0x72>
 8003ad0:	6838      	ldr	r0, [r7, #0]
 8003ad2:	f000 fb1b 	bl	800410c <wizchip_getnetinfo>
 8003ad6:	e018      	b.n	8003b0a <ctlnetwork+0x72>
 8003ad8:	683b      	ldr	r3, [r7, #0]
 8003ada:	781b      	ldrb	r3, [r3, #0]
 8003adc:	4618      	mov	r0, r3
 8003ade:	f000 fb55 	bl	800418c <wizchip_setnetmode>
 8003ae2:	4603      	mov	r3, r0
 8003ae4:	e012      	b.n	8003b0c <ctlnetwork+0x74>
 8003ae6:	f000 fb73 	bl	80041d0 <wizchip_getnetmode>
 8003aea:	4603      	mov	r3, r0
 8003aec:	461a      	mov	r2, r3
 8003aee:	683b      	ldr	r3, [r7, #0]
 8003af0:	701a      	strb	r2, [r3, #0]
 8003af2:	e00a      	b.n	8003b0a <ctlnetwork+0x72>
 8003af4:	6838      	ldr	r0, [r7, #0]
 8003af6:	f000 fb73 	bl	80041e0 <wizchip_settimeout>
 8003afa:	e006      	b.n	8003b0a <ctlnetwork+0x72>
 8003afc:	6838      	ldr	r0, [r7, #0]
 8003afe:	f000 fb90 	bl	8004222 <wizchip_gettimeout>
 8003b02:	e002      	b.n	8003b0a <ctlnetwork+0x72>
 8003b04:	f04f 33ff 	mov.w	r3, #4294967295
 8003b08:	e000      	b.n	8003b0c <ctlnetwork+0x74>
 8003b0a:	2300      	movs	r3, #0
 8003b0c:	4618      	mov	r0, r3
 8003b0e:	3708      	adds	r7, #8
 8003b10:	46bd      	mov	sp, r7
 8003b12:	bd80      	pop	{r7, pc}

08003b14 <wizchip_sw_reset>:
 8003b14:	b580      	push	{r7, lr}
 8003b16:	b086      	sub	sp, #24
 8003b18:	af00      	add	r7, sp, #0
 8003b1a:	1d3b      	adds	r3, r7, #4
 8003b1c:	2206      	movs	r2, #6
 8003b1e:	4619      	mov	r1, r3
 8003b20:	f44f 6010 	mov.w	r0, #2304	@ 0x900
 8003b24:	f7fe fe5c 	bl	80027e0 <WIZCHIP_READ_BUF>
 8003b28:	f107 0314 	add.w	r3, r7, #20
 8003b2c:	2204      	movs	r2, #4
 8003b2e:	4619      	mov	r1, r3
 8003b30:	f44f 7080 	mov.w	r0, #256	@ 0x100
 8003b34:	f7fe fe54 	bl	80027e0 <WIZCHIP_READ_BUF>
 8003b38:	f107 0310 	add.w	r3, r7, #16
 8003b3c:	2204      	movs	r2, #4
 8003b3e:	4619      	mov	r1, r3
 8003b40:	f44f 60a0 	mov.w	r0, #1280	@ 0x500
 8003b44:	f7fe fe4c 	bl	80027e0 <WIZCHIP_READ_BUF>
 8003b48:	f107 030c 	add.w	r3, r7, #12
 8003b4c:	2204      	movs	r2, #4
 8003b4e:	4619      	mov	r1, r3
 8003b50:	f44f 6070 	mov.w	r0, #3840	@ 0xf00
 8003b54:	f7fe fe44 	bl	80027e0 <WIZCHIP_READ_BUF>
 8003b58:	2180      	movs	r1, #128	@ 0x80
 8003b5a:	2000      	movs	r0, #0
 8003b5c:	f7fe fdf2 	bl	8002744 <WIZCHIP_WRITE>
 8003b60:	2000      	movs	r0, #0
 8003b62:	f7fe fda3 	bl	80026ac <WIZCHIP_READ>
 8003b66:	1d3b      	adds	r3, r7, #4
 8003b68:	2206      	movs	r2, #6
 8003b6a:	4619      	mov	r1, r3
 8003b6c:	f44f 6010 	mov.w	r0, #2304	@ 0x900
 8003b70:	f7fe fe96 	bl	80028a0 <WIZCHIP_WRITE_BUF>
 8003b74:	f107 0314 	add.w	r3, r7, #20
 8003b78:	2204      	movs	r2, #4
 8003b7a:	4619      	mov	r1, r3
 8003b7c:	f44f 7080 	mov.w	r0, #256	@ 0x100
 8003b80:	f7fe fe8e 	bl	80028a0 <WIZCHIP_WRITE_BUF>
 8003b84:	f107 0310 	add.w	r3, r7, #16
 8003b88:	2204      	movs	r2, #4
 8003b8a:	4619      	mov	r1, r3
 8003b8c:	f44f 60a0 	mov.w	r0, #1280	@ 0x500
 8003b90:	f7fe fe86 	bl	80028a0 <WIZCHIP_WRITE_BUF>
 8003b94:	f107 030c 	add.w	r3, r7, #12
 8003b98:	2204      	movs	r2, #4
 8003b9a:	4619      	mov	r1, r3
 8003b9c:	f44f 6070 	mov.w	r0, #3840	@ 0xf00
 8003ba0:	f7fe fe7e 	bl	80028a0 <WIZCHIP_WRITE_BUF>
 8003ba4:	bf00      	nop
 8003ba6:	3718      	adds	r7, #24
 8003ba8:	46bd      	mov	sp, r7
 8003baa:	bd80      	pop	{r7, pc}

08003bac <wizchip_init>:
 8003bac:	b580      	push	{r7, lr}
 8003bae:	b084      	sub	sp, #16
 8003bb0:	af00      	add	r7, sp, #0
 8003bb2:	6078      	str	r0, [r7, #4]
 8003bb4:	6039      	str	r1, [r7, #0]
 8003bb6:	2300      	movs	r3, #0
 8003bb8:	73bb      	strb	r3, [r7, #14]
 8003bba:	f7ff ffab 	bl	8003b14 <wizchip_sw_reset>
 8003bbe:	687b      	ldr	r3, [r7, #4]
 8003bc0:	2b00      	cmp	r3, #0
 8003bc2:	d03b      	beq.n	8003c3c <wizchip_init+0x90>
 8003bc4:	2300      	movs	r3, #0
 8003bc6:	73bb      	strb	r3, [r7, #14]
 8003bc8:	2300      	movs	r3, #0
 8003bca:	73fb      	strb	r3, [r7, #15]
 8003bcc:	e015      	b.n	8003bfa <wizchip_init+0x4e>
 8003bce:	f997 300f 	ldrsb.w	r3, [r7, #15]
 8003bd2:	687a      	ldr	r2, [r7, #4]
 8003bd4:	4413      	add	r3, r2
 8003bd6:	781a      	ldrb	r2, [r3, #0]
 8003bd8:	7bbb      	ldrb	r3, [r7, #14]
 8003bda:	4413      	add	r3, r2
 8003bdc:	b2db      	uxtb	r3, r3
 8003bde:	73bb      	strb	r3, [r7, #14]
 8003be0:	f997 300e 	ldrsb.w	r3, [r7, #14]
 8003be4:	2b10      	cmp	r3, #16
 8003be6:	dd02      	ble.n	8003bee <wizchip_init+0x42>
 8003be8:	f04f 33ff 	mov.w	r3, #4294967295
 8003bec:	e066      	b.n	8003cbc <wizchip_init+0x110>
 8003bee:	f997 300f 	ldrsb.w	r3, [r7, #15]
 8003bf2:	b2db      	uxtb	r3, r3
 8003bf4:	3301      	adds	r3, #1
 8003bf6:	b2db      	uxtb	r3, r3
 8003bf8:	73fb      	strb	r3, [r7, #15]
 8003bfa:	f997 300f 	ldrsb.w	r3, [r7, #15]
 8003bfe:	2b07      	cmp	r3, #7
 8003c00:	dde5      	ble.n	8003bce <wizchip_init+0x22>
 8003c02:	2300      	movs	r3, #0
 8003c04:	73fb      	strb	r3, [r7, #15]
 8003c06:	e015      	b.n	8003c34 <wizchip_init+0x88>
 8003c08:	f997 300f 	ldrsb.w	r3, [r7, #15]
 8003c0c:	009b      	lsls	r3, r3, #2
 8003c0e:	3301      	adds	r3, #1
 8003c10:	00db      	lsls	r3, r3, #3
 8003c12:	f503 53f8 	add.w	r3, r3, #7936	@ 0x1f00
 8003c16:	4618      	mov	r0, r3
 8003c18:	f997 300f 	ldrsb.w	r3, [r7, #15]
 8003c1c:	687a      	ldr	r2, [r7, #4]
 8003c1e:	4413      	add	r3, r2
 8003c20:	781b      	ldrb	r3, [r3, #0]
 8003c22:	4619      	mov	r1, r3
 8003c24:	f7fe fd8e 	bl	8002744 <WIZCHIP_WRITE>
 8003c28:	f997 300f 	ldrsb.w	r3, [r7, #15]
 8003c2c:	b2db      	uxtb	r3, r3
 8003c2e:	3301      	adds	r3, #1
 8003c30:	b2db      	uxtb	r3, r3
 8003c32:	73fb      	strb	r3, [r7, #15]
 8003c34:	f997 300f 	ldrsb.w	r3, [r7, #15]
 8003c38:	2b07      	cmp	r3, #7
 8003c3a:	dde5      	ble.n	8003c08 <wizchip_init+0x5c>
 8003c3c:	683b      	ldr	r3, [r7, #0]
 8003c3e:	2b00      	cmp	r3, #0
 8003c40:	d03b      	beq.n	8003cba <wizchip_init+0x10e>
 8003c42:	2300      	movs	r3, #0
 8003c44:	73bb      	strb	r3, [r7, #14]
 8003c46:	2300      	movs	r3, #0
 8003c48:	73fb      	strb	r3, [r7, #15]
 8003c4a:	e015      	b.n	8003c78 <wizchip_init+0xcc>
 8003c4c:	f997 300f 	ldrsb.w	r3, [r7, #15]
 8003c50:	683a      	ldr	r2, [r7, #0]
 8003c52:	4413      	add	r3, r2
 8003c54:	781a      	ldrb	r2, [r3, #0]
 8003c56:	7bbb      	ldrb	r3, [r7, #14]
 8003c58:	4413      	add	r3, r2
 8003c5a:	b2db      	uxtb	r3, r3
 8003c5c:	73bb      	strb	r3, [r7, #14]
 8003c5e:	f997 300e 	ldrsb.w	r3, [r7, #14]
 8003c62:	2b10      	cmp	r3, #16
 8003c64:	dd02      	ble.n	8003c6c <wizchip_init+0xc0>
 8003c66:	f04f 33ff 	mov.w	r3, #4294967295
 8003c6a:	e027      	b.n	8003cbc <wizchip_init+0x110>
 8003c6c:	f997 300f 	ldrsb.w	r3, [r7, #15]
 8003c70:	b2db      	uxtb	r3, r3
 8003c72:	3301      	adds	r3, #1
 8003c74:	b2db      	uxtb	r3, r3
 8003c76:	73fb      	strb	r3, [r7, #15]
 8003c78:	f997 300f 	ldrsb.w	r3, [r7, #15]
 8003c7c:	2b07      	cmp	r3, #7
 8003c7e:	dde5      	ble.n	8003c4c <wizchip_init+0xa0>
 8003c80:	2300      	movs	r3, #0
 8003c82:	73fb      	strb	r3, [r7, #15]
 8003c84:	e015      	b.n	8003cb2 <wizchip_init+0x106>
 8003c86:	f997 300f 	ldrsb.w	r3, [r7, #15]
 8003c8a:	009b      	lsls	r3, r3, #2
 8003c8c:	3301      	adds	r3, #1
 8003c8e:	00db      	lsls	r3, r3, #3
 8003c90:	f503 53f0 	add.w	r3, r3, #7680	@ 0x1e00
 8003c94:	4618      	mov	r0, r3
 8003c96:	f997 300f 	ldrsb.w	r3, [r7, #15]
 8003c9a:	683a      	ldr	r2, [r7, #0]
 8003c9c:	4413      	add	r3, r2
 8003c9e:	781b      	ldrb	r3, [r3, #0]
 8003ca0:	4619      	mov	r1, r3
 8003ca2:	f7fe fd4f 	bl	8002744 <WIZCHIP_WRITE>
 8003ca6:	f997 300f 	ldrsb.w	r3, [r7, #15]
 8003caa:	b2db      	uxtb	r3, r3
 8003cac:	3301      	adds	r3, #1
 8003cae:	b2db      	uxtb	r3, r3
 8003cb0:	73fb      	strb	r3, [r7, #15]
 8003cb2:	f997 300f 	ldrsb.w	r3, [r7, #15]
 8003cb6:	2b07      	cmp	r3, #7
 8003cb8:	dde5      	ble.n	8003c86 <wizchip_init+0xda>
 8003cba:	2300      	movs	r3, #0
 8003cbc:	4618      	mov	r0, r3
 8003cbe:	3710      	adds	r7, #16
 8003cc0:	46bd      	mov	sp, r7
 8003cc2:	bd80      	pop	{r7, pc}

08003cc4 <wizchip_clrinterrupt>:
 8003cc4:	b580      	push	{r7, lr}
 8003cc6:	b084      	sub	sp, #16
 8003cc8:	af00      	add	r7, sp, #0
 8003cca:	4603      	mov	r3, r0
 8003ccc:	80fb      	strh	r3, [r7, #6]
 8003cce:	88fb      	ldrh	r3, [r7, #6]
 8003cd0:	73fb      	strb	r3, [r7, #15]
 8003cd2:	88fb      	ldrh	r3, [r7, #6]
 8003cd4:	0a1b      	lsrs	r3, r3, #8
 8003cd6:	b29b      	uxth	r3, r3
 8003cd8:	73bb      	strb	r3, [r7, #14]
 8003cda:	7bfb      	ldrb	r3, [r7, #15]
 8003cdc:	f023 030f 	bic.w	r3, r3, #15
 8003ce0:	b2db      	uxtb	r3, r3
 8003ce2:	4619      	mov	r1, r3
 8003ce4:	f44f 50a8 	mov.w	r0, #5376	@ 0x1500
 8003ce8:	f7fe fd2c 	bl	8002744 <WIZCHIP_WRITE>
 8003cec:	2300      	movs	r3, #0
 8003cee:	73fb      	strb	r3, [r7, #15]
 8003cf0:	e014      	b.n	8003d1c <wizchip_clrinterrupt+0x58>
 8003cf2:	7bba      	ldrb	r2, [r7, #14]
 8003cf4:	7bfb      	ldrb	r3, [r7, #15]
 8003cf6:	fa42 f303 	asr.w	r3, r2, r3
 8003cfa:	f003 0301 	and.w	r3, r3, #1
 8003cfe:	2b00      	cmp	r3, #0
 8003d00:	d009      	beq.n	8003d16 <wizchip_clrinterrupt+0x52>
 8003d02:	7bfb      	ldrb	r3, [r7, #15]
 8003d04:	009b      	lsls	r3, r3, #2
 8003d06:	3301      	adds	r3, #1
 8003d08:	00db      	lsls	r3, r3, #3
 8003d0a:	f503 7300 	add.w	r3, r3, #512	@ 0x200
 8003d0e:	211f      	movs	r1, #31
 8003d10:	4618      	mov	r0, r3
 8003d12:	f7fe fd17 	bl	8002744 <WIZCHIP_WRITE>
 8003d16:	7bfb      	ldrb	r3, [r7, #15]
 8003d18:	3301      	adds	r3, #1
 8003d1a:	73fb      	strb	r3, [r7, #15]
 8003d1c:	7bfb      	ldrb	r3, [r7, #15]
 8003d1e:	2b07      	cmp	r3, #7
 8003d20:	d9e7      	bls.n	8003cf2 <wizchip_clrinterrupt+0x2e>
 8003d22:	bf00      	nop
 8003d24:	bf00      	nop
 8003d26:	3710      	adds	r7, #16
 8003d28:	46bd      	mov	sp, r7
 8003d2a:	bd80      	pop	{r7, pc}

08003d2c <wizchip_getinterrupt>:
 8003d2c:	b580      	push	{r7, lr}
 8003d2e:	b082      	sub	sp, #8
 8003d30:	af00      	add	r7, sp, #0
 8003d32:	2300      	movs	r3, #0
 8003d34:	71fb      	strb	r3, [r7, #7]
 8003d36:	2300      	movs	r3, #0
 8003d38:	71bb      	strb	r3, [r7, #6]
 8003d3a:	2300      	movs	r3, #0
 8003d3c:	80bb      	strh	r3, [r7, #4]
 8003d3e:	f44f 50a8 	mov.w	r0, #5376	@ 0x1500
 8003d42:	f7fe fcb3 	bl	80026ac <WIZCHIP_READ>
 8003d46:	4603      	mov	r3, r0
 8003d48:	f023 030f 	bic.w	r3, r3, #15
 8003d4c:	71fb      	strb	r3, [r7, #7]
 8003d4e:	f44f 50b8 	mov.w	r0, #5888	@ 0x1700
 8003d52:	f7fe fcab 	bl	80026ac <WIZCHIP_READ>
 8003d56:	4603      	mov	r3, r0
 8003d58:	71bb      	strb	r3, [r7, #6]
 8003d5a:	79bb      	ldrb	r3, [r7, #6]
 8003d5c:	80bb      	strh	r3, [r7, #4]
 8003d5e:	88bb      	ldrh	r3, [r7, #4]
 8003d60:	021b      	lsls	r3, r3, #8
 8003d62:	b29a      	uxth	r2, r3
 8003d64:	79fb      	ldrb	r3, [r7, #7]
 8003d66:	b29b      	uxth	r3, r3
 8003d68:	4413      	add	r3, r2
 8003d6a:	80bb      	strh	r3, [r7, #4]
 8003d6c:	88bb      	ldrh	r3, [r7, #4]
 8003d6e:	4618      	mov	r0, r3
 8003d70:	3708      	adds	r7, #8
 8003d72:	46bd      	mov	sp, r7
 8003d74:	bd80      	pop	{r7, pc}

08003d76 <wizchip_setinterruptmask>:
 8003d76:	b580      	push	{r7, lr}
 8003d78:	b084      	sub	sp, #16
 8003d7a:	af00      	add	r7, sp, #0
 8003d7c:	4603      	mov	r3, r0
 8003d7e:	80fb      	strh	r3, [r7, #6]
 8003d80:	88fb      	ldrh	r3, [r7, #6]
 8003d82:	73fb      	strb	r3, [r7, #15]
 8003d84:	88fb      	ldrh	r3, [r7, #6]
 8003d86:	0a1b      	lsrs	r3, r3, #8
 8003d88:	b29b      	uxth	r3, r3
 8003d8a:	73bb      	strb	r3, [r7, #14]
 8003d8c:	7bfb      	ldrb	r3, [r7, #15]
 8003d8e:	4619      	mov	r1, r3
 8003d90:	f44f 50b0 	mov.w	r0, #5632	@ 0x1600
 8003d94:	f7fe fcd6 	bl	8002744 <WIZCHIP_WRITE>
 8003d98:	7bbb      	ldrb	r3, [r7, #14]
 8003d9a:	4619      	mov	r1, r3
 8003d9c:	f44f 50c0 	mov.w	r0, #6144	@ 0x1800
 8003da0:	f7fe fcd0 	bl	8002744 <WIZCHIP_WRITE>
 8003da4:	bf00      	nop
 8003da6:	3710      	adds	r7, #16
 8003da8:	46bd      	mov	sp, r7
 8003daa:	bd80      	pop	{r7, pc}

08003dac <wizchip_getinterruptmask>:
 8003dac:	b580      	push	{r7, lr}
 8003dae:	b082      	sub	sp, #8
 8003db0:	af00      	add	r7, sp, #0
 8003db2:	2300      	movs	r3, #0
 8003db4:	71fb      	strb	r3, [r7, #7]
 8003db6:	2300      	movs	r3, #0
 8003db8:	71bb      	strb	r3, [r7, #6]
 8003dba:	2300      	movs	r3, #0
 8003dbc:	80bb      	strh	r3, [r7, #4]
 8003dbe:	f44f 50b0 	mov.w	r0, #5632	@ 0x1600
 8003dc2:	f7fe fc73 	bl	80026ac <WIZCHIP_READ>
 8003dc6:	4603      	mov	r3, r0
 8003dc8:	71fb      	strb	r3, [r7, #7]
 8003dca:	f44f 50c0 	mov.w	r0, #6144	@ 0x1800
 8003dce:	f7fe fc6d 	bl	80026ac <WIZCHIP_READ>
 8003dd2:	4603      	mov	r3, r0
 8003dd4:	71bb      	strb	r3, [r7, #6]
 8003dd6:	79bb      	ldrb	r3, [r7, #6]
 8003dd8:	80bb      	strh	r3, [r7, #4]
 8003dda:	88bb      	ldrh	r3, [r7, #4]
 8003ddc:	021b      	lsls	r3, r3, #8
 8003dde:	b29a      	uxth	r2, r3
 8003de0:	79fb      	ldrb	r3, [r7, #7]
 8003de2:	b29b      	uxth	r3, r3
 8003de4:	4413      	add	r3, r2
 8003de6:	80bb      	strh	r3, [r7, #4]
 8003de8:	88bb      	ldrh	r3, [r7, #4]
 8003dea:	4618      	mov	r0, r3
 8003dec:	3708      	adds	r7, #8
 8003dee:	46bd      	mov	sp, r7
 8003df0:	bd80      	pop	{r7, pc}

08003df2 <wizphy_getphylink>:
 8003df2:	b580      	push	{r7, lr}
 8003df4:	b082      	sub	sp, #8
 8003df6:	af00      	add	r7, sp, #0
 8003df8:	2300      	movs	r3, #0
 8003dfa:	71fb      	strb	r3, [r7, #7]
 8003dfc:	f44f 5038 	mov.w	r0, #11776	@ 0x2e00
 8003e00:	f7fe fc54 	bl	80026ac <WIZCHIP_READ>
 8003e04:	4603      	mov	r3, r0
 8003e06:	f003 0301 	and.w	r3, r3, #1
 8003e0a:	2b00      	cmp	r3, #0
 8003e0c:	d001      	beq.n	8003e12 <wizphy_getphylink+0x20>
 8003e0e:	2301      	movs	r3, #1
 8003e10:	71fb      	strb	r3, [r7, #7]
 8003e12:	f997 3007 	ldrsb.w	r3, [r7, #7]
 8003e16:	4618      	mov	r0, r3
 8003e18:	3708      	adds	r7, #8
 8003e1a:	46bd      	mov	sp, r7
 8003e1c:	bd80      	pop	{r7, pc}

08003e1e <wizphy_getphypmode>:
 8003e1e:	b580      	push	{r7, lr}
 8003e20:	b082      	sub	sp, #8
 8003e22:	af00      	add	r7, sp, #0
 8003e24:	2300      	movs	r3, #0
 8003e26:	71fb      	strb	r3, [r7, #7]
 8003e28:	f44f 5038 	mov.w	r0, #11776	@ 0x2e00
 8003e2c:	f7fe fc3e 	bl	80026ac <WIZCHIP_READ>
 8003e30:	4603      	mov	r3, r0
 8003e32:	f003 0338 	and.w	r3, r3, #56	@ 0x38
 8003e36:	2b30      	cmp	r3, #48	@ 0x30
 8003e38:	d102      	bne.n	8003e40 <wizphy_getphypmode+0x22>
 8003e3a:	2301      	movs	r3, #1
 8003e3c:	71fb      	strb	r3, [r7, #7]
 8003e3e:	e001      	b.n	8003e44 <wizphy_getphypmode+0x26>
 8003e40:	2300      	movs	r3, #0
 8003e42:	71fb      	strb	r3, [r7, #7]
 8003e44:	f997 3007 	ldrsb.w	r3, [r7, #7]
 8003e48:	4618      	mov	r0, r3
 8003e4a:	3708      	adds	r7, #8
 8003e4c:	46bd      	mov	sp, r7
 8003e4e:	bd80      	pop	{r7, pc}

08003e50 <wizphy_reset>:
 8003e50:	b580      	push	{r7, lr}
 8003e52:	b082      	sub	sp, #8
 8003e54:	af00      	add	r7, sp, #0
 8003e56:	f44f 5038 	mov.w	r0, #11776	@ 0x2e00
 8003e5a:	f7fe fc27 	bl	80026ac <WIZCHIP_READ>
 8003e5e:	4603      	mov	r3, r0
 8003e60:	71fb      	strb	r3, [r7, #7]
 8003e62:	79fb      	ldrb	r3, [r7, #7]
 8003e64:	f003 037f 	and.w	r3, r3, #127	@ 0x7f
 8003e68:	71fb      	strb	r3, [r7, #7]
 8003e6a:	79fb      	ldrb	r3, [r7, #7]
 8003e6c:	4619      	mov	r1, r3
 8003e6e:	f44f 5038 	mov.w	r0, #11776	@ 0x2e00
 8003e72:	f7fe fc67 	bl	8002744 <WIZCHIP_WRITE>
 8003e76:	f44f 5038 	mov.w	r0, #11776	@ 0x2e00
 8003e7a:	f7fe fc17 	bl	80026ac <WIZCHIP_READ>
 8003e7e:	4603      	mov	r3, r0
 8003e80:	71fb      	strb	r3, [r7, #7]
 8003e82:	79fb      	ldrb	r3, [r7, #7]
 8003e84:	f063 037f 	orn	r3, r3, #127	@ 0x7f
 8003e88:	71fb      	strb	r3, [r7, #7]
 8003e8a:	79fb      	ldrb	r3, [r7, #7]
 8003e8c:	4619      	mov	r1, r3
 8003e8e:	f44f 5038 	mov.w	r0, #11776	@ 0x2e00
 8003e92:	f7fe fc57 	bl	8002744 <WIZCHIP_WRITE>
 8003e96:	bf00      	nop
 8003e98:	3708      	adds	r7, #8
 8003e9a:	46bd      	mov	sp, r7
 8003e9c:	bd80      	pop	{r7, pc}

08003e9e <wizphy_setphyconf>:
 8003e9e:	b580      	push	{r7, lr}
 8003ea0:	b084      	sub	sp, #16
 8003ea2:	af00      	add	r7, sp, #0
 8003ea4:	6078      	str	r0, [r7, #4]
 8003ea6:	2300      	movs	r3, #0
 8003ea8:	73fb      	strb	r3, [r7, #15]
 8003eaa:	687b      	ldr	r3, [r7, #4]
 8003eac:	781b      	ldrb	r3, [r3, #0]
 8003eae:	2b01      	cmp	r3, #1
 8003eb0:	d104      	bne.n	8003ebc <wizphy_setphyconf+0x1e>
 8003eb2:	7bfb      	ldrb	r3, [r7, #15]
 8003eb4:	f043 0340 	orr.w	r3, r3, #64	@ 0x40
 8003eb8:	73fb      	strb	r3, [r7, #15]
 8003eba:	e003      	b.n	8003ec4 <wizphy_setphyconf+0x26>
 8003ebc:	7bfb      	ldrb	r3, [r7, #15]
 8003ebe:	f023 0340 	bic.w	r3, r3, #64	@ 0x40
 8003ec2:	73fb      	strb	r3, [r7, #15]
 8003ec4:	687b      	ldr	r3, [r7, #4]
 8003ec6:	785b      	ldrb	r3, [r3, #1]
 8003ec8:	2b01      	cmp	r3, #1
 8003eca:	d104      	bne.n	8003ed6 <wizphy_setphyconf+0x38>
 8003ecc:	7bfb      	ldrb	r3, [r7, #15]
 8003ece:	f043 0338 	orr.w	r3, r3, #56	@ 0x38
 8003ed2:	73fb      	strb	r3, [r7, #15]
 8003ed4:	e019      	b.n	8003f0a <wizphy_setphyconf+0x6c>
 8003ed6:	687b      	ldr	r3, [r7, #4]
 8003ed8:	78db      	ldrb	r3, [r3, #3]
 8003eda:	2b01      	cmp	r3, #1
 8003edc:	d10d      	bne.n	8003efa <wizphy_setphyconf+0x5c>
 8003ede:	687b      	ldr	r3, [r7, #4]
 8003ee0:	789b      	ldrb	r3, [r3, #2]
 8003ee2:	2b01      	cmp	r3, #1
 8003ee4:	d104      	bne.n	8003ef0 <wizphy_setphyconf+0x52>
 8003ee6:	7bfb      	ldrb	r3, [r7, #15]
 8003ee8:	f043 0318 	orr.w	r3, r3, #24
 8003eec:	73fb      	strb	r3, [r7, #15]
 8003eee:	e00c      	b.n	8003f0a <wizphy_setphyconf+0x6c>
 8003ef0:	7bfb      	ldrb	r3, [r7, #15]
 8003ef2:	f043 0308 	orr.w	r3, r3, #8
 8003ef6:	73fb      	strb	r3, [r7, #15]
 8003ef8:	e007      	b.n	8003f0a <wizphy_setphyconf+0x6c>
 8003efa:	687b      	ldr	r3, [r7, #4]
 8003efc:	789b      	ldrb	r3, [r3, #2]
 8003efe:	2b01      	cmp	r3, #1
 8003f00:	d103      	bne.n	8003f0a <wizphy_setphyconf+0x6c>
 8003f02:	7bfb      	ldrb	r3, [r7, #15]
 8003f04:	f043 0310 	orr.w	r3, r3, #16
 8003f08:	73fb      	strb	r3, [r7, #15]
 8003f0a:	7bfb      	ldrb	r3, [r7, #15]
 8003f0c:	4619      	mov	r1, r3
 8003f0e:	f44f 5038 	mov.w	r0, #11776	@ 0x2e00
 8003f12:	f7fe fc17 	bl	8002744 <WIZCHIP_WRITE>
 8003f16:	f7ff ff9b 	bl	8003e50 <wizphy_reset>
 8003f1a:	bf00      	nop
 8003f1c:	3710      	adds	r7, #16
 8003f1e:	46bd      	mov	sp, r7
 8003f20:	bd80      	pop	{r7, pc}
	...

08003f24 <wizphy_getphyconf>:
 8003f24:	b580      	push	{r7, lr}
 8003f26:	b084      	sub	sp, #16
 8003f28:	af00      	add	r7, sp, #0
 8003f2a:	6078      	str	r0, [r7, #4]
 8003f2c:	2300      	movs	r3, #0
 8003f2e:	73fb      	strb	r3, [r7, #15]
 8003f30:	f44f 5038 	mov.w	r0, #11776	@ 0x2e00
 8003f34:	f7fe fbba 	bl	80026ac <WIZCHIP_READ>
 8003f38:	4603      	mov	r3, r0
 8003f3a:	73fb      	strb	r3, [r7, #15]
 8003f3c:	7bfb      	ldrb	r3, [r7, #15]
 8003f3e:	119b      	asrs	r3, r3, #6
 8003f40:	b2db      	uxtb	r3, r3
 8003f42:	f003 0301 	and.w	r3, r3, #1
 8003f46:	b2da      	uxtb	r2, r3
 8003f48:	687b      	ldr	r3, [r7, #4]
 8003f4a:	701a      	strb	r2, [r3, #0]
 8003f4c:	7bfb      	ldrb	r3, [r7, #15]
 8003f4e:	f003 0338 	and.w	r3, r3, #56	@ 0x38
 8003f52:	2b20      	cmp	r3, #32
 8003f54:	d001      	beq.n	8003f5a <wizphy_getphyconf+0x36>
 8003f56:	2b38      	cmp	r3, #56	@ 0x38
 8003f58:	d103      	bne.n	8003f62 <wizphy_getphyconf+0x3e>
 8003f5a:	687b      	ldr	r3, [r7, #4]
 8003f5c:	2201      	movs	r2, #1
 8003f5e:	705a      	strb	r2, [r3, #1]
 8003f60:	e003      	b.n	8003f6a <wizphy_getphyconf+0x46>
 8003f62:	687b      	ldr	r3, [r7, #4]
 8003f64:	2200      	movs	r2, #0
 8003f66:	705a      	strb	r2, [r3, #1]
 8003f68:	bf00      	nop
 8003f6a:	7bfb      	ldrb	r3, [r7, #15]
 8003f6c:	f003 0338 	and.w	r3, r3, #56	@ 0x38
 8003f70:	3b10      	subs	r3, #16
 8003f72:	2b10      	cmp	r3, #16
 8003f74:	bf8c      	ite	hi
 8003f76:	2201      	movhi	r2, #1
 8003f78:	2200      	movls	r2, #0
 8003f7a:	b2d2      	uxtb	r2, r2
 8003f7c:	2a00      	cmp	r2, #0
 8003f7e:	d10f      	bne.n	8003fa0 <wizphy_getphyconf+0x7c>
 8003f80:	4a1b      	ldr	r2, [pc, #108]	@ (8003ff0 <wizphy_getphyconf+0xcc>)
 8003f82:	fa22 f303 	lsr.w	r3, r2, r3
 8003f86:	f003 0301 	and.w	r3, r3, #1
 8003f8a:	2b00      	cmp	r3, #0
 8003f8c:	bf14      	ite	ne
 8003f8e:	2301      	movne	r3, #1
 8003f90:	2300      	moveq	r3, #0
 8003f92:	b2db      	uxtb	r3, r3
 8003f94:	2b00      	cmp	r3, #0
 8003f96:	d003      	beq.n	8003fa0 <wizphy_getphyconf+0x7c>
 8003f98:	687b      	ldr	r3, [r7, #4]
 8003f9a:	2201      	movs	r2, #1
 8003f9c:	709a      	strb	r2, [r3, #2]
 8003f9e:	e003      	b.n	8003fa8 <wizphy_getphyconf+0x84>
 8003fa0:	687b      	ldr	r3, [r7, #4]
 8003fa2:	2200      	movs	r2, #0
 8003fa4:	709a      	strb	r2, [r3, #2]
 8003fa6:	bf00      	nop
 8003fa8:	7bfb      	ldrb	r3, [r7, #15]
 8003faa:	f003 0338 	and.w	r3, r3, #56	@ 0x38
 8003fae:	3b08      	subs	r3, #8
 8003fb0:	2b18      	cmp	r3, #24
 8003fb2:	bf8c      	ite	hi
 8003fb4:	2201      	movhi	r2, #1
 8003fb6:	2200      	movls	r2, #0
 8003fb8:	b2d2      	uxtb	r2, r2
 8003fba:	2a00      	cmp	r2, #0
 8003fbc:	d10f      	bne.n	8003fde <wizphy_getphyconf+0xba>
 8003fbe:	4a0d      	ldr	r2, [pc, #52]	@ (8003ff4 <wizphy_getphyconf+0xd0>)
 8003fc0:	fa22 f303 	lsr.w	r3, r2, r3
 8003fc4:	f003 0301 	and.w	r3, r3, #1
 8003fc8:	2b00      	cmp	r3, #0
 8003fca:	bf14      	ite	ne
 8003fcc:	2301      	movne	r3, #1
 8003fce:	2300      	moveq	r3, #0
 8003fd0:	b2db      	uxtb	r3, r3
 8003fd2:	2b00      	cmp	r3, #0
 8003fd4:	d003      	beq.n	8003fde <wizphy_getphyconf+0xba>
 8003fd6:	687b      	ldr	r3, [r7, #4]
 8003fd8:	2201      	movs	r2, #1
 8003fda:	70da      	strb	r2, [r3, #3]
 8003fdc:	e003      	b.n	8003fe6 <wizphy_getphyconf+0xc2>
 8003fde:	687b      	ldr	r3, [r7, #4]
 8003fe0:	2200      	movs	r2, #0
 8003fe2:	70da      	strb	r2, [r3, #3]
 8003fe4:	bf00      	nop
 8003fe6:	bf00      	nop
 8003fe8:	3710      	adds	r7, #16
 8003fea:	46bd      	mov	sp, r7
 8003fec:	bd80      	pop	{r7, pc}
 8003fee:	bf00      	nop
 8003ff0:	00010101 	.word	0x00010101
 8003ff4:	01010001 	.word	0x01010001

08003ff8 <wizphy_setphypmode>:
 8003ff8:	b580      	push	{r7, lr}
 8003ffa:	b084      	sub	sp, #16
 8003ffc:	af00      	add	r7, sp, #0
 8003ffe:	4603      	mov	r3, r0
 8004000:	71fb      	strb	r3, [r7, #7]
 8004002:	2300      	movs	r3, #0
 8004004:	73fb      	strb	r3, [r7, #15]
 8004006:	f44f 5038 	mov.w	r0, #11776	@ 0x2e00
 800400a:	f7fe fb4f 	bl	80026ac <WIZCHIP_READ>
 800400e:	4603      	mov	r3, r0
 8004010:	73fb      	strb	r3, [r7, #15]
 8004012:	7bfb      	ldrb	r3, [r7, #15]
 8004014:	f003 0340 	and.w	r3, r3, #64	@ 0x40
 8004018:	2b00      	cmp	r3, #0
 800401a:	d102      	bne.n	8004022 <wizphy_setphypmode+0x2a>
 800401c:	f04f 33ff 	mov.w	r3, #4294967295
 8004020:	e030      	b.n	8004084 <wizphy_setphypmode+0x8c>
 8004022:	7bfb      	ldrb	r3, [r7, #15]
 8004024:	f023 0338 	bic.w	r3, r3, #56	@ 0x38
 8004028:	73fb      	strb	r3, [r7, #15]
 800402a:	79fb      	ldrb	r3, [r7, #7]
 800402c:	2b01      	cmp	r3, #1
 800402e:	d104      	bne.n	800403a <wizphy_setphypmode+0x42>
 8004030:	7bfb      	ldrb	r3, [r7, #15]
 8004032:	f043 0330 	orr.w	r3, r3, #48	@ 0x30
 8004036:	73fb      	strb	r3, [r7, #15]
 8004038:	e003      	b.n	8004042 <wizphy_setphypmode+0x4a>
 800403a:	7bfb      	ldrb	r3, [r7, #15]
 800403c:	f043 0338 	orr.w	r3, r3, #56	@ 0x38
 8004040:	73fb      	strb	r3, [r7, #15]
 8004042:	7bfb      	ldrb	r3, [r7, #15]
 8004044:	4619      	mov	r1, r3
 8004046:	f44f 5038 	mov.w	r0, #11776	@ 0x2e00
 800404a:	f7fe fb7b 	bl	8002744 <WIZCHIP_WRITE>
 800404e:	f7ff feff 	bl	8003e50 <wizphy_reset>
 8004052:	f44f 5038 	mov.w	r0, #11776	@ 0x2e00
 8004056:	f7fe fb29 	bl	80026ac <WIZCHIP_READ>
 800405a:	4603      	mov	r3, r0
 800405c:	73fb      	strb	r3, [r7, #15]
 800405e:	79fb      	ldrb	r3, [r7, #7]
 8004060:	2b01      	cmp	r3, #1
 8004062:	d106      	bne.n	8004072 <wizphy_setphypmode+0x7a>
 8004064:	7bfb      	ldrb	r3, [r7, #15]
 8004066:	f003 0330 	and.w	r3, r3, #48	@ 0x30
 800406a:	2b00      	cmp	r3, #0
 800406c:	d008      	beq.n	8004080 <wizphy_setphypmode+0x88>
 800406e:	2300      	movs	r3, #0
 8004070:	e008      	b.n	8004084 <wizphy_setphypmode+0x8c>
 8004072:	7bfb      	ldrb	r3, [r7, #15]
 8004074:	f003 0338 	and.w	r3, r3, #56	@ 0x38
 8004078:	2b00      	cmp	r3, #0
 800407a:	d001      	beq.n	8004080 <wizphy_setphypmode+0x88>
 800407c:	2300      	movs	r3, #0
 800407e:	e001      	b.n	8004084 <wizphy_setphypmode+0x8c>
 8004080:	f04f 33ff 	mov.w	r3, #4294967295
 8004084:	4618      	mov	r0, r3
 8004086:	3710      	adds	r7, #16
 8004088:	46bd      	mov	sp, r7
 800408a:	bd80      	pop	{r7, pc}

0800408c <wizchip_setnetinfo>:
 800408c:	b580      	push	{r7, lr}
 800408e:	b082      	sub	sp, #8
 8004090:	af00      	add	r7, sp, #0
 8004092:	6078      	str	r0, [r7, #4]
 8004094:	687b      	ldr	r3, [r7, #4]
 8004096:	2206      	movs	r2, #6
 8004098:	4619      	mov	r1, r3
 800409a:	f44f 6010 	mov.w	r0, #2304	@ 0x900
 800409e:	f7fe fbff 	bl	80028a0 <WIZCHIP_WRITE_BUF>
 80040a2:	687b      	ldr	r3, [r7, #4]
 80040a4:	330e      	adds	r3, #14
 80040a6:	2204      	movs	r2, #4
 80040a8:	4619      	mov	r1, r3
 80040aa:	f44f 7080 	mov.w	r0, #256	@ 0x100
 80040ae:	f7fe fbf7 	bl	80028a0 <WIZCHIP_WRITE_BUF>
 80040b2:	687b      	ldr	r3, [r7, #4]
 80040b4:	330a      	adds	r3, #10
 80040b6:	2204      	movs	r2, #4
 80040b8:	4619      	mov	r1, r3
 80040ba:	f44f 60a0 	mov.w	r0, #1280	@ 0x500
 80040be:	f7fe fbef 	bl	80028a0 <WIZCHIP_WRITE_BUF>
 80040c2:	687b      	ldr	r3, [r7, #4]
 80040c4:	3306      	adds	r3, #6
 80040c6:	2204      	movs	r2, #4
 80040c8:	4619      	mov	r1, r3
 80040ca:	f44f 6070 	mov.w	r0, #3840	@ 0xf00
 80040ce:	f7fe fbe7 	bl	80028a0 <WIZCHIP_WRITE_BUF>
 80040d2:	687b      	ldr	r3, [r7, #4]
 80040d4:	7c9a      	ldrb	r2, [r3, #18]
 80040d6:	4b0b      	ldr	r3, [pc, #44]	@ (8004104 <wizchip_setnetinfo+0x78>)
 80040d8:	701a      	strb	r2, [r3, #0]
 80040da:	687b      	ldr	r3, [r7, #4]
 80040dc:	7cda      	ldrb	r2, [r3, #19]
 80040de:	4b09      	ldr	r3, [pc, #36]	@ (8004104 <wizchip_setnetinfo+0x78>)
 80040e0:	705a      	strb	r2, [r3, #1]
 80040e2:	687b      	ldr	r3, [r7, #4]
 80040e4:	7d1a      	ldrb	r2, [r3, #20]
 80040e6:	4b07      	ldr	r3, [pc, #28]	@ (8004104 <wizchip_setnetinfo+0x78>)
 80040e8:	709a      	strb	r2, [r3, #2]
 80040ea:	687b      	ldr	r3, [r7, #4]
 80040ec:	7d5a      	ldrb	r2, [r3, #21]
 80040ee:	4b05      	ldr	r3, [pc, #20]	@ (8004104 <wizchip_setnetinfo+0x78>)
 80040f0:	70da      	strb	r2, [r3, #3]
 80040f2:	687b      	ldr	r3, [r7, #4]
 80040f4:	7d9a      	ldrb	r2, [r3, #22]
 80040f6:	4b04      	ldr	r3, [pc, #16]	@ (8004108 <wizchip_setnetinfo+0x7c>)
 80040f8:	701a      	strb	r2, [r3, #0]
 80040fa:	bf00      	nop
 80040fc:	3708      	adds	r7, #8
 80040fe:	46bd      	mov	sp, r7
 8004100:	bd80      	pop	{r7, pc}
 8004102:	bf00      	nop
 8004104:	200004d8 	.word	0x200004d8
 8004108:	200004dc 	.word	0x200004dc

0800410c <wizchip_getnetinfo>:
 800410c:	b580      	push	{r7, lr}
 800410e:	b082      	sub	sp, #8
 8004110:	af00      	add	r7, sp, #0
 8004112:	6078      	str	r0, [r7, #4]
 8004114:	687b      	ldr	r3, [r7, #4]
 8004116:	2206      	movs	r2, #6
 8004118:	4619      	mov	r1, r3
 800411a:	f44f 6010 	mov.w	r0, #2304	@ 0x900
 800411e:	f7fe fb5f 	bl	80027e0 <WIZCHIP_READ_BUF>
 8004122:	687b      	ldr	r3, [r7, #4]
 8004124:	330e      	adds	r3, #14
 8004126:	2204      	movs	r2, #4
 8004128:	4619      	mov	r1, r3
 800412a:	f44f 7080 	mov.w	r0, #256	@ 0x100
 800412e:	f7fe fb57 	bl	80027e0 <WIZCHIP_READ_BUF>
 8004132:	687b      	ldr	r3, [r7, #4]
 8004134:	330a      	adds	r3, #10
 8004136:	2204      	movs	r2, #4
 8004138:	4619      	mov	r1, r3
 800413a:	f44f 60a0 	mov.w	r0, #1280	@ 0x500
 800413e:	f7fe fb4f 	bl	80027e0 <WIZCHIP_READ_BUF>
 8004142:	687b      	ldr	r3, [r7, #4]
 8004144:	3306      	adds	r3, #6
 8004146:	2204      	movs	r2, #4
 8004148:	4619      	mov	r1, r3
 800414a:	f44f 6070 	mov.w	r0, #3840	@ 0xf00
 800414e:	f7fe fb47 	bl	80027e0 <WIZCHIP_READ_BUF>
 8004152:	4b0c      	ldr	r3, [pc, #48]	@ (8004184 <wizchip_getnetinfo+0x78>)
 8004154:	781a      	ldrb	r2, [r3, #0]
 8004156:	687b      	ldr	r3, [r7, #4]
 8004158:	749a      	strb	r2, [r3, #18]
 800415a:	4b0a      	ldr	r3, [pc, #40]	@ (8004184 <wizchip_getnetinfo+0x78>)
 800415c:	785a      	ldrb	r2, [r3, #1]
 800415e:	687b      	ldr	r3, [r7, #4]
 8004160:	74da      	strb	r2, [r3, #19]
 8004162:	4b08      	ldr	r3, [pc, #32]	@ (8004184 <wizchip_getnetinfo+0x78>)
 8004164:	789a      	ldrb	r2, [r3, #2]
 8004166:	687b      	ldr	r3, [r7, #4]
 8004168:	751a      	strb	r2, [r3, #20]
 800416a:	4b06      	ldr	r3, [pc, #24]	@ (8004184 <wizchip_getnetinfo+0x78>)
 800416c:	78da      	ldrb	r2, [r3, #3]
 800416e:	687b      	ldr	r3, [r7, #4]
 8004170:	755a      	strb	r2, [r3, #21]
 8004172:	4b05      	ldr	r3, [pc, #20]	@ (8004188 <wizchip_getnetinfo+0x7c>)
 8004174:	781a      	ldrb	r2, [r3, #0]
 8004176:	687b      	ldr	r3, [r7, #4]
 8004178:	759a      	strb	r2, [r3, #22]
 800417a:	bf00      	nop
 800417c:	3708      	adds	r7, #8
 800417e:	46bd      	mov	sp, r7
 8004180:	bd80      	pop	{r7, pc}
 8004182:	bf00      	nop
 8004184:	200004d8 	.word	0x200004d8
 8004188:	200004dc 	.word	0x200004dc

0800418c <wizchip_setnetmode>:
 800418c:	b580      	push	{r7, lr}
 800418e:	b084      	sub	sp, #16
 8004190:	af00      	add	r7, sp, #0
 8004192:	4603      	mov	r3, r0
 8004194:	71fb      	strb	r3, [r7, #7]
 8004196:	2300      	movs	r3, #0
 8004198:	73fb      	strb	r3, [r7, #15]
 800419a:	79fb      	ldrb	r3, [r7, #7]
 800419c:	f023 033a 	bic.w	r3, r3, #58	@ 0x3a
 80041a0:	2b00      	cmp	r3, #0
 80041a2:	d002      	beq.n	80041aa <wizchip_setnetmode+0x1e>
 80041a4:	f04f 33ff 	mov.w	r3, #4294967295
 80041a8:	e00e      	b.n	80041c8 <wizchip_setnetmode+0x3c>
 80041aa:	2000      	movs	r0, #0
 80041ac:	f7fe fa7e 	bl	80026ac <WIZCHIP_READ>
 80041b0:	4603      	mov	r3, r0
 80041b2:	73fb      	strb	r3, [r7, #15]
 80041b4:	7bfa      	ldrb	r2, [r7, #15]
 80041b6:	79fb      	ldrb	r3, [r7, #7]
 80041b8:	4313      	orrs	r3, r2
 80041ba:	73fb      	strb	r3, [r7, #15]
 80041bc:	7bfb      	ldrb	r3, [r7, #15]
 80041be:	4619      	mov	r1, r3
 80041c0:	2000      	movs	r0, #0
 80041c2:	f7fe fabf 	bl	8002744 <WIZCHIP_WRITE>
 80041c6:	2300      	movs	r3, #0
 80041c8:	4618      	mov	r0, r3
 80041ca:	3710      	adds	r7, #16
 80041cc:	46bd      	mov	sp, r7
 80041ce:	bd80      	pop	{r7, pc}

080041d0 <wizchip_getnetmode>:
 80041d0:	b580      	push	{r7, lr}
 80041d2:	af00      	add	r7, sp, #0
 80041d4:	2000      	movs	r0, #0
 80041d6:	f7fe fa69 	bl	80026ac <WIZCHIP_READ>
 80041da:	4603      	mov	r3, r0
 80041dc:	4618      	mov	r0, r3
 80041de:	bd80      	pop	{r7, pc}

080041e0 <wizchip_settimeout>:
 80041e0:	b580      	push	{r7, lr}
 80041e2:	b082      	sub	sp, #8
 80041e4:	af00      	add	r7, sp, #0
 80041e6:	6078      	str	r0, [r7, #4]
 80041e8:	687b      	ldr	r3, [r7, #4]
 80041ea:	781b      	ldrb	r3, [r3, #0]
 80041ec:	4619      	mov	r1, r3
 80041ee:	f44f 50d8 	mov.w	r0, #6912	@ 0x1b00
 80041f2:	f7fe faa7 	bl	8002744 <WIZCHIP_WRITE>
 80041f6:	687b      	ldr	r3, [r7, #4]
 80041f8:	885b      	ldrh	r3, [r3, #2]
 80041fa:	0a1b      	lsrs	r3, r3, #8
 80041fc:	b29b      	uxth	r3, r3
 80041fe:	b2db      	uxtb	r3, r3
 8004200:	4619      	mov	r1, r3
 8004202:	f44f 50c8 	mov.w	r0, #6400	@ 0x1900
 8004206:	f7fe fa9d 	bl	8002744 <WIZCHIP_WRITE>
 800420a:	687b      	ldr	r3, [r7, #4]
 800420c:	885b      	ldrh	r3, [r3, #2]
 800420e:	b2db      	uxtb	r3, r3
 8004210:	4619      	mov	r1, r3
 8004212:	f44f 50d0 	mov.w	r0, #6656	@ 0x1a00
 8004216:	f7fe fa95 	bl	8002744 <WIZCHIP_WRITE>
 800421a:	bf00      	nop
 800421c:	3708      	adds	r7, #8
 800421e:	46bd      	mov	sp, r7
 8004220:	bd80      	pop	{r7, pc}

08004222 <wizchip_gettimeout>:
 8004222:	b590      	push	{r4, r7, lr}
 8004224:	b083      	sub	sp, #12
 8004226:	af00      	add	r7, sp, #0
 8004228:	6078      	str	r0, [r7, #4]
 800422a:	f44f 50d8 	mov.w	r0, #6912	@ 0x1b00
 800422e:	f7fe fa3d 	bl	80026ac <WIZCHIP_READ>
 8004232:	4603      	mov	r3, r0
 8004234:	461a      	mov	r2, r3
 8004236:	687b      	ldr	r3, [r7, #4]
 8004238:	701a      	strb	r2, [r3, #0]
 800423a:	f44f 50c8 	mov.w	r0, #6400	@ 0x1900
 800423e:	f7fe fa35 	bl	80026ac <WIZCHIP_READ>
 8004242:	4603      	mov	r3, r0
 8004244:	021b      	lsls	r3, r3, #8
 8004246:	b29c      	uxth	r4, r3
 8004248:	f44f 50d0 	mov.w	r0, #6656	@ 0x1a00
 800424c:	f7fe fa2e 	bl	80026ac <WIZCHIP_READ>
 8004250:	4603      	mov	r3, r0
 8004252:	4423      	add	r3, r4
 8004254:	b29a      	uxth	r2, r3
 8004256:	687b      	ldr	r3, [r7, #4]
 8004258:	805a      	strh	r2, [r3, #2]
 800425a:	bf00      	nop
 800425c:	370c      	adds	r7, #12
 800425e:	46bd      	mov	sp, r7
 8004260:	bd90      	pop	{r4, r7, pc}
	...

08004264 <Reset_Handler>:
 8004264:	480d      	ldr	r0, [pc, #52]	@ (800429c <LoopForever+0x2>)
 8004266:	4685      	mov	sp, r0
 8004268:	f7fc fdfa 	bl	8000e60 <SystemInit>
 800426c:	480c      	ldr	r0, [pc, #48]	@ (80042a0 <LoopForever+0x6>)
 800426e:	490d      	ldr	r1, [pc, #52]	@ (80042a4 <LoopForever+0xa>)
 8004270:	4a0d      	ldr	r2, [pc, #52]	@ (80042a8 <LoopForever+0xe>)
 8004272:	2300      	movs	r3, #0
 8004274:	e002      	b.n	800427c <LoopCopyDataInit>

08004276 <CopyDataInit>:
 8004276:	58d4      	ldr	r4, [r2, r3]
 8004278:	50c4      	str	r4, [r0, r3]
 800427a:	3304      	adds	r3, #4

0800427c <LoopCopyDataInit>:
 800427c:	18c4      	adds	r4, r0, r3
 800427e:	428c      	cmp	r4, r1
 8004280:	d3f9      	bcc.n	8004276 <CopyDataInit>
 8004282:	4a0a      	ldr	r2, [pc, #40]	@ (80042ac <LoopForever+0x12>)
 8004284:	4c0a      	ldr	r4, [pc, #40]	@ (80042b0 <LoopForever+0x16>)
 8004286:	2300      	movs	r3, #0
 8004288:	e001      	b.n	800428e <LoopFillZerobss>

0800428a <FillZerobss>:
 800428a:	6013      	str	r3, [r2, #0]
 800428c:	3204      	adds	r2, #4

0800428e <LoopFillZerobss>:
 800428e:	42a2      	cmp	r2, r4
 8004290:	d3fb      	bcc.n	800428a <FillZerobss>
 8004292:	f002 fd97 	bl	8006dc4 <__libc_init_array>
 8004296:	f7fc f993 	bl	80005c0 <main>

0800429a <LoopForever>:
 800429a:	e7fe      	b.n	800429a <LoopForever>
 800429c:	20020000 	.word	0x20020000
 80042a0:	20000000 	.word	0x20000000
 80042a4:	20000120 	.word	0x20000120
 80042a8:	08007bf8 	.word	0x08007bf8
 80042ac:	20000120 	.word	0x20000120
 80042b0:	20000630 	.word	0x20000630

080042b4 <ADC1_2_IRQHandler>:
 80042b4:	e7fe      	b.n	80042b4 <ADC1_2_IRQHandler>

080042b6 <HAL_Init>:
 80042b6:	b580      	push	{r7, lr}
 80042b8:	b082      	sub	sp, #8
 80042ba:	af00      	add	r7, sp, #0
 80042bc:	2300      	movs	r3, #0
 80042be:	71fb      	strb	r3, [r7, #7]
 80042c0:	2003      	movs	r0, #3
 80042c2:	f000 f93d 	bl	8004540 <HAL_NVIC_SetPriorityGrouping>
 80042c6:	2000      	movs	r0, #0
 80042c8:	f000 f80e 	bl	80042e8 <HAL_InitTick>
 80042cc:	4603      	mov	r3, r0
 80042ce:	2b00      	cmp	r3, #0
 80042d0:	d002      	beq.n	80042d8 <HAL_Init+0x22>
 80042d2:	2301      	movs	r3, #1
 80042d4:	71fb      	strb	r3, [r7, #7]
 80042d6:	e001      	b.n	80042dc <HAL_Init+0x26>
 80042d8:	f7fc fc0a 	bl	8000af0 <HAL_MspInit>
 80042dc:	79fb      	ldrb	r3, [r7, #7]
 80042de:	4618      	mov	r0, r3
 80042e0:	3708      	adds	r7, #8
 80042e2:	46bd      	mov	sp, r7
 80042e4:	bd80      	pop	{r7, pc}
	...

080042e8 <HAL_InitTick>:
 80042e8:	b580      	push	{r7, lr}
 80042ea:	b084      	sub	sp, #16
 80042ec:	af00      	add	r7, sp, #0
 80042ee:	6078      	str	r0, [r7, #4]
 80042f0:	2300      	movs	r3, #0
 80042f2:	73fb      	strb	r3, [r7, #15]
 80042f4:	4b16      	ldr	r3, [pc, #88]	@ (8004350 <HAL_InitTick+0x68>)
 80042f6:	681b      	ldr	r3, [r3, #0]
 80042f8:	2b00      	cmp	r3, #0
 80042fa:	d022      	beq.n	8004342 <HAL_InitTick+0x5a>
 80042fc:	4b15      	ldr	r3, [pc, #84]	@ (8004354 <HAL_InitTick+0x6c>)
 80042fe:	681a      	ldr	r2, [r3, #0]
 8004300:	4b13      	ldr	r3, [pc, #76]	@ (8004350 <HAL_InitTick+0x68>)
 8004302:	681b      	ldr	r3, [r3, #0]
 8004304:	f44f 717a 	mov.w	r1, #1000	@ 0x3e8
 8004308:	fbb1 f3f3 	udiv	r3, r1, r3
 800430c:	fbb2 f3f3 	udiv	r3, r2, r3
 8004310:	4618      	mov	r0, r3
 8004312:	f000 f93a 	bl	800458a <HAL_SYSTICK_Config>
 8004316:	4603      	mov	r3, r0
 8004318:	2b00      	cmp	r3, #0
 800431a:	d10f      	bne.n	800433c <HAL_InitTick+0x54>
 800431c:	687b      	ldr	r3, [r7, #4]
 800431e:	2b0f      	cmp	r3, #15
 8004320:	d809      	bhi.n	8004336 <HAL_InitTick+0x4e>
 8004322:	2200      	movs	r2, #0
 8004324:	6879      	ldr	r1, [r7, #4]
 8004326:	f04f 30ff 	mov.w	r0, #4294967295
 800432a:	f000 f914 	bl	8004556 <HAL_NVIC_SetPriority>
 800432e:	4a0a      	ldr	r2, [pc, #40]	@ (8004358 <HAL_InitTick+0x70>)
 8004330:	687b      	ldr	r3, [r7, #4]
 8004332:	6013      	str	r3, [r2, #0]
 8004334:	e007      	b.n	8004346 <HAL_InitTick+0x5e>
 8004336:	2301      	movs	r3, #1
 8004338:	73fb      	strb	r3, [r7, #15]
 800433a:	e004      	b.n	8004346 <HAL_InitTick+0x5e>
 800433c:	2301      	movs	r3, #1
 800433e:	73fb      	strb	r3, [r7, #15]
 8004340:	e001      	b.n	8004346 <HAL_InitTick+0x5e>
 8004342:	2301      	movs	r3, #1
 8004344:	73fb      	strb	r3, [r7, #15]
 8004346:	7bfb      	ldrb	r3, [r7, #15]
 8004348:	4618      	mov	r0, r3
 800434a:	3710      	adds	r7, #16
 800434c:	46bd      	mov	sp, r7
 800434e:	bd80      	pop	{r7, pc}
 8004350:	200000c0 	.word	0x200000c0
 8004354:	20000088 	.word	0x20000088
 8004358:	200000bc 	.word	0x200000bc

0800435c <HAL_IncTick>:
 800435c:	b480      	push	{r7}
 800435e:	af00      	add	r7, sp, #0
 8004360:	4b05      	ldr	r3, [pc, #20]	@ (8004378 <HAL_IncTick+0x1c>)
 8004362:	681a      	ldr	r2, [r3, #0]
 8004364:	4b05      	ldr	r3, [pc, #20]	@ (800437c <HAL_IncTick+0x20>)
 8004366:	681b      	ldr	r3, [r3, #0]
 8004368:	4413      	add	r3, r2
 800436a:	4a03      	ldr	r2, [pc, #12]	@ (8004378 <HAL_IncTick+0x1c>)
 800436c:	6013      	str	r3, [r2, #0]
 800436e:	bf00      	nop
 8004370:	46bd      	mov	sp, r7
 8004372:	f85d 7b04 	ldr.w	r7, [sp], #4
 8004376:	4770      	bx	lr
 8004378:	200004e0 	.word	0x200004e0
 800437c:	200000c0 	.word	0x200000c0

08004380 <HAL_GetTick>:
 8004380:	b480      	push	{r7}
 8004382:	af00      	add	r7, sp, #0
 8004384:	4b03      	ldr	r3, [pc, #12]	@ (8004394 <HAL_GetTick+0x14>)
 8004386:	681b      	ldr	r3, [r3, #0]
 8004388:	4618      	mov	r0, r3
 800438a:	46bd      	mov	sp, r7
 800438c:	f85d 7b04 	ldr.w	r7, [sp], #4
 8004390:	4770      	bx	lr
 8004392:	bf00      	nop
 8004394:	200004e0 	.word	0x200004e0

08004398 <HAL_Delay>:
 8004398:	b580      	push	{r7, lr}
 800439a:	b084      	sub	sp, #16
 800439c:	af00      	add	r7, sp, #0
 800439e:	6078      	str	r0, [r7, #4]
 80043a0:	f7ff ffee 	bl	8004380 <HAL_GetTick>
 80043a4:	60b8      	str	r0, [r7, #8]
 80043a6:	687b      	ldr	r3, [r7, #4]
 80043a8:	60fb      	str	r3, [r7, #12]
 80043aa:	68fb      	ldr	r3, [r7, #12]
 80043ac:	f1b3 3fff 	cmp.w	r3, #4294967295
 80043b0:	d004      	beq.n	80043bc <HAL_Delay+0x24>
 80043b2:	4b09      	ldr	r3, [pc, #36]	@ (80043d8 <HAL_Delay+0x40>)
 80043b4:	681b      	ldr	r3, [r3, #0]
 80043b6:	68fa      	ldr	r2, [r7, #12]
 80043b8:	4413      	add	r3, r2
 80043ba:	60fb      	str	r3, [r7, #12]
 80043bc:	bf00      	nop
 80043be:	f7ff ffdf 	bl	8004380 <HAL_GetTick>
 80043c2:	4602      	mov	r2, r0
 80043c4:	68bb      	ldr	r3, [r7, #8]
 80043c6:	1ad3      	subs	r3, r2, r3
 80043c8:	68fa      	ldr	r2, [r7, #12]
 80043ca:	429a      	cmp	r2, r3
 80043cc:	d8f7      	bhi.n	80043be <HAL_Delay+0x26>
 80043ce:	bf00      	nop
 80043d0:	bf00      	nop
 80043d2:	3710      	adds	r7, #16
 80043d4:	46bd      	mov	sp, r7
 80043d6:	bd80      	pop	{r7, pc}
 80043d8:	200000c0 	.word	0x200000c0

080043dc <__NVIC_SetPriorityGrouping>:
 80043dc:	b480      	push	{r7}
 80043de:	b085      	sub	sp, #20
 80043e0:	af00      	add	r7, sp, #0
 80043e2:	6078      	str	r0, [r7, #4]
 80043e4:	687b      	ldr	r3, [r7, #4]
 80043e6:	f003 0307 	and.w	r3, r3, #7
 80043ea:	60fb      	str	r3, [r7, #12]
 80043ec:	4b0c      	ldr	r3, [pc, #48]	@ (8004420 <__NVIC_SetPriorityGrouping+0x44>)
 80043ee:	68db      	ldr	r3, [r3, #12]
 80043f0:	60bb      	str	r3, [r7, #8]
 80043f2:	68ba      	ldr	r2, [r7, #8]
 80043f4:	f64f 03ff 	movw	r3, #63743	@ 0xf8ff
 80043f8:	4013      	ands	r3, r2
 80043fa:	60bb      	str	r3, [r7, #8]
 80043fc:	68fb      	ldr	r3, [r7, #12]
 80043fe:	021a      	lsls	r2, r3, #8
 8004400:	68bb      	ldr	r3, [r7, #8]
 8004402:	4313      	orrs	r3, r2
 8004404:	f043 63bf 	orr.w	r3, r3, #100139008	@ 0x5f80000
 8004408:	f443 3300 	orr.w	r3, r3, #131072	@ 0x20000
 800440c:	60bb      	str	r3, [r7, #8]
 800440e:	4a04      	ldr	r2, [pc, #16]	@ (8004420 <__NVIC_SetPriorityGrouping+0x44>)
 8004410:	68bb      	ldr	r3, [r7, #8]
 8004412:	60d3      	str	r3, [r2, #12]
 8004414:	bf00      	nop
 8004416:	3714      	adds	r7, #20
 8004418:	46bd      	mov	sp, r7
 800441a:	f85d 7b04 	ldr.w	r7, [sp], #4
 800441e:	4770      	bx	lr
 8004420:	e000ed00 	.word	0xe000ed00

08004424 <__NVIC_GetPriorityGrouping>:
 8004424:	b480      	push	{r7}
 8004426:	af00      	add	r7, sp, #0
 8004428:	4b04      	ldr	r3, [pc, #16]	@ (800443c <__NVIC_GetPriorityGrouping+0x18>)
 800442a:	68db      	ldr	r3, [r3, #12]
 800442c:	0a1b      	lsrs	r3, r3, #8
 800442e:	f003 0307 	and.w	r3, r3, #7
 8004432:	4618      	mov	r0, r3
 8004434:	46bd      	mov	sp, r7
 8004436:	f85d 7b04 	ldr.w	r7, [sp], #4
 800443a:	4770      	bx	lr
 800443c:	e000ed00 	.word	0xe000ed00

08004440 <__NVIC_SetPriority>:
 8004440:	b480      	push	{r7}
 8004442:	b083      	sub	sp, #12
 8004444:	af00      	add	r7, sp, #0
 8004446:	4603      	mov	r3, r0
 8004448:	6039      	str	r1, [r7, #0]
 800444a:	71fb      	strb	r3, [r7, #7]
 800444c:	f997 3007 	ldrsb.w	r3, [r7, #7]
 8004450:	2b00      	cmp	r3, #0
 8004452:	db0a      	blt.n	800446a <__NVIC_SetPriority+0x2a>
 8004454:	683b      	ldr	r3, [r7, #0]
 8004456:	b2da      	uxtb	r2, r3
 8004458:	490c      	ldr	r1, [pc, #48]	@ (800448c <__NVIC_SetPriority+0x4c>)
 800445a:	f997 3007 	ldrsb.w	r3, [r7, #7]
 800445e:	0112      	lsls	r2, r2, #4
 8004460:	b2d2      	uxtb	r2, r2
 8004462:	440b      	add	r3, r1
 8004464:	f883 2300 	strb.w	r2, [r3, #768]	@ 0x300
 8004468:	e00a      	b.n	8004480 <__NVIC_SetPriority+0x40>
 800446a:	683b      	ldr	r3, [r7, #0]
 800446c:	b2da      	uxtb	r2, r3
 800446e:	4908      	ldr	r1, [pc, #32]	@ (8004490 <__NVIC_SetPriority+0x50>)
 8004470:	79fb      	ldrb	r3, [r7, #7]
 8004472:	f003 030f 	and.w	r3, r3, #15
 8004476:	3b04      	subs	r3, #4
 8004478:	0112      	lsls	r2, r2, #4
 800447a:	b2d2      	uxtb	r2, r2
 800447c:	440b      	add	r3, r1
 800447e:	761a      	strb	r2, [r3, #24]
 8004480:	bf00      	nop
 8004482:	370c      	adds	r7, #12
 8004484:	46bd      	mov	sp, r7
 8004486:	f85d 7b04 	ldr.w	r7, [sp], #4
 800448a:	4770      	bx	lr
 800448c:	e000e100 	.word	0xe000e100
 8004490:	e000ed00 	.word	0xe000ed00

08004494 <NVIC_EncodePriority>:
 8004494:	b480      	push	{r7}
 8004496:	b089      	sub	sp, #36	@ 0x24
 8004498:	af00      	add	r7, sp, #0
 800449a:	60f8      	str	r0, [r7, #12]
 800449c:	60b9      	str	r1, [r7, #8]
 800449e:	607a      	str	r2, [r7, #4]
 80044a0:	68fb      	ldr	r3, [r7, #12]
 80044a2:	f003 0307 	and.w	r3, r3, #7
 80044a6:	61fb      	str	r3, [r7, #28]
 80044a8:	69fb      	ldr	r3, [r7, #28]
 80044aa:	f1c3 0307 	rsb	r3, r3, #7
 80044ae:	2b04      	cmp	r3, #4
 80044b0:	bf28      	it	cs
 80044b2:	2304      	movcs	r3, #4
 80044b4:	61bb      	str	r3, [r7, #24]
 80044b6:	69fb      	ldr	r3, [r7, #28]
 80044b8:	3304      	adds	r3, #4
 80044ba:	2b06      	cmp	r3, #6
 80044bc:	d902      	bls.n	80044c4 <NVIC_EncodePriority+0x30>
 80044be:	69fb      	ldr	r3, [r7, #28]
 80044c0:	3b03      	subs	r3, #3
 80044c2:	e000      	b.n	80044c6 <NVIC_EncodePriority+0x32>
 80044c4:	2300      	movs	r3, #0
 80044c6:	617b      	str	r3, [r7, #20]
 80044c8:	f04f 32ff 	mov.w	r2, #4294967295
 80044cc:	69bb      	ldr	r3, [r7, #24]
 80044ce:	fa02 f303 	lsl.w	r3, r2, r3
 80044d2:	43da      	mvns	r2, r3
 80044d4:	68bb      	ldr	r3, [r7, #8]
 80044d6:	401a      	ands	r2, r3
 80044d8:	697b      	ldr	r3, [r7, #20]
 80044da:	409a      	lsls	r2, r3
 80044dc:	f04f 31ff 	mov.w	r1, #4294967295
 80044e0:	697b      	ldr	r3, [r7, #20]
 80044e2:	fa01 f303 	lsl.w	r3, r1, r3
 80044e6:	43d9      	mvns	r1, r3
 80044e8:	687b      	ldr	r3, [r7, #4]
 80044ea:	400b      	ands	r3, r1
 80044ec:	4313      	orrs	r3, r2
 80044ee:	4618      	mov	r0, r3
 80044f0:	3724      	adds	r7, #36	@ 0x24
 80044f2:	46bd      	mov	sp, r7
 80044f4:	f85d 7b04 	ldr.w	r7, [sp], #4
 80044f8:	4770      	bx	lr
	...

080044fc <SysTick_Config>:
 80044fc:	b580      	push	{r7, lr}
 80044fe:	b082      	sub	sp, #8
 8004500:	af00      	add	r7, sp, #0
 8004502:	6078      	str	r0, [r7, #4]
 8004504:	687b      	ldr	r3, [r7, #4]
 8004506:	3b01      	subs	r3, #1
 8004508:	f1b3 7f80 	cmp.w	r3, #16777216	@ 0x1000000
 800450c:	d301      	bcc.n	8004512 <SysTick_Config+0x16>
 800450e:	2301      	movs	r3, #1
 8004510:	e00f      	b.n	8004532 <SysTick_Config+0x36>
 8004512:	4a0a      	ldr	r2, [pc, #40]	@ (800453c <SysTick_Config+0x40>)
 8004514:	687b      	ldr	r3, [r7, #4]
 8004516:	3b01      	subs	r3, #1
 8004518:	6053      	str	r3, [r2, #4]
 800451a:	210f      	movs	r1, #15
 800451c:	f04f 30ff 	mov.w	r0, #4294967295
 8004520:	f7ff ff8e 	bl	8004440 <__NVIC_SetPriority>
 8004524:	4b05      	ldr	r3, [pc, #20]	@ (800453c <SysTick_Config+0x40>)
 8004526:	2200      	movs	r2, #0
 8004528:	609a      	str	r2, [r3, #8]
 800452a:	4b04      	ldr	r3, [pc, #16]	@ (800453c <SysTick_Config+0x40>)
 800452c:	2207      	movs	r2, #7
 800452e:	601a      	str	r2, [r3, #0]
 8004530:	2300      	movs	r3, #0
 8004532:	4618      	mov	r0, r3
 8004534:	3708      	adds	r7, #8
 8004536:	46bd      	mov	sp, r7
 8004538:	bd80      	pop	{r7, pc}
 800453a:	bf00      	nop
 800453c:	e000e010 	.word	0xe000e010

08004540 <HAL_NVIC_SetPriorityGrouping>:
 8004540:	b580      	push	{r7, lr}
 8004542:	b082      	sub	sp, #8
 8004544:	af00      	add	r7, sp, #0
 8004546:	6078      	str	r0, [r7, #4]
 8004548:	6878      	ldr	r0, [r7, #4]
 800454a:	f7ff ff47 	bl	80043dc <__NVIC_SetPriorityGrouping>
 800454e:	bf00      	nop
 8004550:	3708      	adds	r7, #8
 8004552:	46bd      	mov	sp, r7
 8004554:	bd80      	pop	{r7, pc}

08004556 <HAL_NVIC_SetPriority>:
 8004556:	b580      	push	{r7, lr}
 8004558:	b086      	sub	sp, #24
 800455a:	af00      	add	r7, sp, #0
 800455c:	4603      	mov	r3, r0
 800455e:	60b9      	str	r1, [r7, #8]
 8004560:	607a      	str	r2, [r7, #4]
 8004562:	73fb      	strb	r3, [r7, #15]
 8004564:	f7ff ff5e 	bl	8004424 <__NVIC_GetPriorityGrouping>
 8004568:	6178      	str	r0, [r7, #20]
 800456a:	687a      	ldr	r2, [r7, #4]
 800456c:	68b9      	ldr	r1, [r7, #8]
 800456e:	6978      	ldr	r0, [r7, #20]
 8004570:	f7ff ff90 	bl	8004494 <NVIC_EncodePriority>
 8004574:	4602      	mov	r2, r0
 8004576:	f997 300f 	ldrsb.w	r3, [r7, #15]
 800457a:	4611      	mov	r1, r2
 800457c:	4618      	mov	r0, r3
 800457e:	f7ff ff5f 	bl	8004440 <__NVIC_SetPriority>
 8004582:	bf00      	nop
 8004584:	3718      	adds	r7, #24
 8004586:	46bd      	mov	sp, r7
 8004588:	bd80      	pop	{r7, pc}

0800458a <HAL_SYSTICK_Config>:
 800458a:	b580      	push	{r7, lr}
 800458c:	b082      	sub	sp, #8
 800458e:	af00      	add	r7, sp, #0
 8004590:	6078      	str	r0, [r7, #4]
 8004592:	6878      	ldr	r0, [r7, #4]
 8004594:	f7ff ffb2 	bl	80044fc <SysTick_Config>
 8004598:	4603      	mov	r3, r0
 800459a:	4618      	mov	r0, r3
 800459c:	3708      	adds	r7, #8
 800459e:	46bd      	mov	sp, r7
 80045a0:	bd80      	pop	{r7, pc}
	...

080045a4 <HAL_GPIO_Init>:
 80045a4:	b480      	push	{r7}
 80045a6:	b087      	sub	sp, #28
 80045a8:	af00      	add	r7, sp, #0
 80045aa:	6078      	str	r0, [r7, #4]
 80045ac:	6039      	str	r1, [r7, #0]
 80045ae:	2300      	movs	r3, #0
 80045b0:	617b      	str	r3, [r7, #20]
 80045b2:	e15a      	b.n	800486a <HAL_GPIO_Init+0x2c6>
 80045b4:	683b      	ldr	r3, [r7, #0]
 80045b6:	681a      	ldr	r2, [r3, #0]
 80045b8:	2101      	movs	r1, #1
 80045ba:	697b      	ldr	r3, [r7, #20]
 80045bc:	fa01 f303 	lsl.w	r3, r1, r3
 80045c0:	4013      	ands	r3, r2
 80045c2:	60fb      	str	r3, [r7, #12]
 80045c4:	68fb      	ldr	r3, [r7, #12]
 80045c6:	2b00      	cmp	r3, #0
 80045c8:	f000 814c 	beq.w	8004864 <HAL_GPIO_Init+0x2c0>
 80045cc:	683b      	ldr	r3, [r7, #0]
 80045ce:	685b      	ldr	r3, [r3, #4]
 80045d0:	f003 0303 	and.w	r3, r3, #3
 80045d4:	2b01      	cmp	r3, #1
 80045d6:	d005      	beq.n	80045e4 <HAL_GPIO_Init+0x40>
 80045d8:	683b      	ldr	r3, [r7, #0]
 80045da:	685b      	ldr	r3, [r3, #4]
 80045dc:	f003 0303 	and.w	r3, r3, #3
 80045e0:	2b02      	cmp	r3, #2
 80045e2:	d130      	bne.n	8004646 <HAL_GPIO_Init+0xa2>
 80045e4:	687b      	ldr	r3, [r7, #4]
 80045e6:	689b      	ldr	r3, [r3, #8]
 80045e8:	613b      	str	r3, [r7, #16]
 80045ea:	697b      	ldr	r3, [r7, #20]
 80045ec:	005b      	lsls	r3, r3, #1
 80045ee:	2203      	movs	r2, #3
 80045f0:	fa02 f303 	lsl.w	r3, r2, r3
 80045f4:	43db      	mvns	r3, r3
 80045f6:	693a      	ldr	r2, [r7, #16]
 80045f8:	4013      	ands	r3, r2
 80045fa:	613b      	str	r3, [r7, #16]
 80045fc:	683b      	ldr	r3, [r7, #0]
 80045fe:	68da      	ldr	r2, [r3, #12]
 8004600:	697b      	ldr	r3, [r7, #20]
 8004602:	005b      	lsls	r3, r3, #1
 8004604:	fa02 f303 	lsl.w	r3, r2, r3
 8004608:	693a      	ldr	r2, [r7, #16]
 800460a:	4313      	orrs	r3, r2
 800460c:	613b      	str	r3, [r7, #16]
 800460e:	687b      	ldr	r3, [r7, #4]
 8004610:	693a      	ldr	r2, [r7, #16]
 8004612:	609a      	str	r2, [r3, #8]
 8004614:	687b      	ldr	r3, [r7, #4]
 8004616:	685b      	ldr	r3, [r3, #4]
 8004618:	613b      	str	r3, [r7, #16]
 800461a:	2201      	movs	r2, #1
 800461c:	697b      	ldr	r3, [r7, #20]
 800461e:	fa02 f303 	lsl.w	r3, r2, r3
 8004622:	43db      	mvns	r3, r3
 8004624:	693a      	ldr	r2, [r7, #16]
 8004626:	4013      	ands	r3, r2
 8004628:	613b      	str	r3, [r7, #16]
 800462a:	683b      	ldr	r3, [r7, #0]
 800462c:	685b      	ldr	r3, [r3, #4]
 800462e:	091b      	lsrs	r3, r3, #4
 8004630:	f003 0201 	and.w	r2, r3, #1
 8004634:	697b      	ldr	r3, [r7, #20]
 8004636:	fa02 f303 	lsl.w	r3, r2, r3
 800463a:	693a      	ldr	r2, [r7, #16]
 800463c:	4313      	orrs	r3, r2
 800463e:	613b      	str	r3, [r7, #16]
 8004640:	687b      	ldr	r3, [r7, #4]
 8004642:	693a      	ldr	r2, [r7, #16]
 8004644:	605a      	str	r2, [r3, #4]
 8004646:	683b      	ldr	r3, [r7, #0]
 8004648:	685b      	ldr	r3, [r3, #4]
 800464a:	f003 0303 	and.w	r3, r3, #3
 800464e:	2b03      	cmp	r3, #3
 8004650:	d017      	beq.n	8004682 <HAL_GPIO_Init+0xde>
 8004652:	687b      	ldr	r3, [r7, #4]
 8004654:	68db      	ldr	r3, [r3, #12]
 8004656:	613b      	str	r3, [r7, #16]
 8004658:	697b      	ldr	r3, [r7, #20]
 800465a:	005b      	lsls	r3, r3, #1
 800465c:	2203      	movs	r2, #3
 800465e:	fa02 f303 	lsl.w	r3, r2, r3
 8004662:	43db      	mvns	r3, r3
 8004664:	693a      	ldr	r2, [r7, #16]
 8004666:	4013      	ands	r3, r2
 8004668:	613b      	str	r3, [r7, #16]
 800466a:	683b      	ldr	r3, [r7, #0]
 800466c:	689a      	ldr	r2, [r3, #8]
 800466e:	697b      	ldr	r3, [r7, #20]
 8004670:	005b      	lsls	r3, r3, #1
 8004672:	fa02 f303 	lsl.w	r3, r2, r3
 8004676:	693a      	ldr	r2, [r7, #16]
 8004678:	4313      	orrs	r3, r2
 800467a:	613b      	str	r3, [r7, #16]
 800467c:	687b      	ldr	r3, [r7, #4]
 800467e:	693a      	ldr	r2, [r7, #16]
 8004680:	60da      	str	r2, [r3, #12]
 8004682:	683b      	ldr	r3, [r7, #0]
 8004684:	685b      	ldr	r3, [r3, #4]
 8004686:	f003 0303 	and.w	r3, r3, #3
 800468a:	2b02      	cmp	r3, #2
 800468c:	d123      	bne.n	80046d6 <HAL_GPIO_Init+0x132>
 800468e:	697b      	ldr	r3, [r7, #20]
 8004690:	08da      	lsrs	r2, r3, #3
 8004692:	687b      	ldr	r3, [r7, #4]
 8004694:	3208      	adds	r2, #8
 8004696:	f853 3022 	ldr.w	r3, [r3, r2, lsl #2]
 800469a:	613b      	str	r3, [r7, #16]
 800469c:	697b      	ldr	r3, [r7, #20]
 800469e:	f003 0307 	and.w	r3, r3, #7
 80046a2:	009b      	lsls	r3, r3, #2
 80046a4:	220f      	movs	r2, #15
 80046a6:	fa02 f303 	lsl.w	r3, r2, r3
 80046aa:	43db      	mvns	r3, r3
 80046ac:	693a      	ldr	r2, [r7, #16]
 80046ae:	4013      	ands	r3, r2
 80046b0:	613b      	str	r3, [r7, #16]
 80046b2:	683b      	ldr	r3, [r7, #0]
 80046b4:	691a      	ldr	r2, [r3, #16]
 80046b6:	697b      	ldr	r3, [r7, #20]
 80046b8:	f003 0307 	and.w	r3, r3, #7
 80046bc:	009b      	lsls	r3, r3, #2
 80046be:	fa02 f303 	lsl.w	r3, r2, r3
 80046c2:	693a      	ldr	r2, [r7, #16]
 80046c4:	4313      	orrs	r3, r2
 80046c6:	613b      	str	r3, [r7, #16]
 80046c8:	697b      	ldr	r3, [r7, #20]
 80046ca:	08da      	lsrs	r2, r3, #3
 80046cc:	687b      	ldr	r3, [r7, #4]
 80046ce:	3208      	adds	r2, #8
 80046d0:	6939      	ldr	r1, [r7, #16]
 80046d2:	f843 1022 	str.w	r1, [r3, r2, lsl #2]
 80046d6:	687b      	ldr	r3, [r7, #4]
 80046d8:	681b      	ldr	r3, [r3, #0]
 80046da:	613b      	str	r3, [r7, #16]
 80046dc:	697b      	ldr	r3, [r7, #20]
 80046de:	005b      	lsls	r3, r3, #1
 80046e0:	2203      	movs	r2, #3
 80046e2:	fa02 f303 	lsl.w	r3, r2, r3
 80046e6:	43db      	mvns	r3, r3
 80046e8:	693a      	ldr	r2, [r7, #16]
 80046ea:	4013      	ands	r3, r2
 80046ec:	613b      	str	r3, [r7, #16]
 80046ee:	683b      	ldr	r3, [r7, #0]
 80046f0:	685b      	ldr	r3, [r3, #4]
 80046f2:	f003 0203 	and.w	r2, r3, #3
 80046f6:	697b      	ldr	r3, [r7, #20]
 80046f8:	005b      	lsls	r3, r3, #1
 80046fa:	fa02 f303 	lsl.w	r3, r2, r3
 80046fe:	693a      	ldr	r2, [r7, #16]
 8004700:	4313      	orrs	r3, r2
 8004702:	613b      	str	r3, [r7, #16]
 8004704:	687b      	ldr	r3, [r7, #4]
 8004706:	693a      	ldr	r2, [r7, #16]
 8004708:	601a      	str	r2, [r3, #0]
 800470a:	683b      	ldr	r3, [r7, #0]
 800470c:	685b      	ldr	r3, [r3, #4]
 800470e:	f403 3340 	and.w	r3, r3, #196608	@ 0x30000
 8004712:	2b00      	cmp	r3, #0
 8004714:	f000 80a6 	beq.w	8004864 <HAL_GPIO_Init+0x2c0>
 8004718:	4b5b      	ldr	r3, [pc, #364]	@ (8004888 <HAL_GPIO_Init+0x2e4>)
 800471a:	6e1b      	ldr	r3, [r3, #96]	@ 0x60
 800471c:	4a5a      	ldr	r2, [pc, #360]	@ (8004888 <HAL_GPIO_Init+0x2e4>)
 800471e:	f043 0301 	orr.w	r3, r3, #1
 8004722:	6613      	str	r3, [r2, #96]	@ 0x60
 8004724:	4b58      	ldr	r3, [pc, #352]	@ (8004888 <HAL_GPIO_Init+0x2e4>)
 8004726:	6e1b      	ldr	r3, [r3, #96]	@ 0x60
 8004728:	f003 0301 	and.w	r3, r3, #1
 800472c:	60bb      	str	r3, [r7, #8]
 800472e:	68bb      	ldr	r3, [r7, #8]
 8004730:	4a56      	ldr	r2, [pc, #344]	@ (800488c <HAL_GPIO_Init+0x2e8>)
 8004732:	697b      	ldr	r3, [r7, #20]
 8004734:	089b      	lsrs	r3, r3, #2
 8004736:	3302      	adds	r3, #2
 8004738:	f852 3023 	ldr.w	r3, [r2, r3, lsl #2]
 800473c:	613b      	str	r3, [r7, #16]
 800473e:	697b      	ldr	r3, [r7, #20]
 8004740:	f003 0303 	and.w	r3, r3, #3
 8004744:	009b      	lsls	r3, r3, #2
 8004746:	220f      	movs	r2, #15
 8004748:	fa02 f303 	lsl.w	r3, r2, r3
 800474c:	43db      	mvns	r3, r3
 800474e:	693a      	ldr	r2, [r7, #16]
 8004750:	4013      	ands	r3, r2
 8004752:	613b      	str	r3, [r7, #16]
 8004754:	687b      	ldr	r3, [r7, #4]
 8004756:	f1b3 4f90 	cmp.w	r3, #1207959552	@ 0x48000000
 800475a:	d01f      	beq.n	800479c <HAL_GPIO_Init+0x1f8>
 800475c:	687b      	ldr	r3, [r7, #4]
 800475e:	4a4c      	ldr	r2, [pc, #304]	@ (8004890 <HAL_GPIO_Init+0x2ec>)
 8004760:	4293      	cmp	r3, r2
 8004762:	d019      	beq.n	8004798 <HAL_GPIO_Init+0x1f4>
 8004764:	687b      	ldr	r3, [r7, #4]
 8004766:	4a4b      	ldr	r2, [pc, #300]	@ (8004894 <HAL_GPIO_Init+0x2f0>)
 8004768:	4293      	cmp	r3, r2
 800476a:	d013      	beq.n	8004794 <HAL_GPIO_Init+0x1f0>
 800476c:	687b      	ldr	r3, [r7, #4]
 800476e:	4a4a      	ldr	r2, [pc, #296]	@ (8004898 <HAL_GPIO_Init+0x2f4>)
 8004770:	4293      	cmp	r3, r2
 8004772:	d00d      	beq.n	8004790 <HAL_GPIO_Init+0x1ec>
 8004774:	687b      	ldr	r3, [r7, #4]
 8004776:	4a49      	ldr	r2, [pc, #292]	@ (800489c <HAL_GPIO_Init+0x2f8>)
 8004778:	4293      	cmp	r3, r2
 800477a:	d007      	beq.n	800478c <HAL_GPIO_Init+0x1e8>
 800477c:	687b      	ldr	r3, [r7, #4]
 800477e:	4a48      	ldr	r2, [pc, #288]	@ (80048a0 <HAL_GPIO_Init+0x2fc>)
 8004780:	4293      	cmp	r3, r2
 8004782:	d101      	bne.n	8004788 <HAL_GPIO_Init+0x1e4>
 8004784:	2305      	movs	r3, #5
 8004786:	e00a      	b.n	800479e <HAL_GPIO_Init+0x1fa>
 8004788:	2306      	movs	r3, #6
 800478a:	e008      	b.n	800479e <HAL_GPIO_Init+0x1fa>
 800478c:	2304      	movs	r3, #4
 800478e:	e006      	b.n	800479e <HAL_GPIO_Init+0x1fa>
 8004790:	2303      	movs	r3, #3
 8004792:	e004      	b.n	800479e <HAL_GPIO_Init+0x1fa>
 8004794:	2302      	movs	r3, #2
 8004796:	e002      	b.n	800479e <HAL_GPIO_Init+0x1fa>
 8004798:	2301      	movs	r3, #1
 800479a:	e000      	b.n	800479e <HAL_GPIO_Init+0x1fa>
 800479c:	2300      	movs	r3, #0
 800479e:	697a      	ldr	r2, [r7, #20]
 80047a0:	f002 0203 	and.w	r2, r2, #3
 80047a4:	0092      	lsls	r2, r2, #2
 80047a6:	4093      	lsls	r3, r2
 80047a8:	693a      	ldr	r2, [r7, #16]
 80047aa:	4313      	orrs	r3, r2
 80047ac:	613b      	str	r3, [r7, #16]
 80047ae:	4937      	ldr	r1, [pc, #220]	@ (800488c <HAL_GPIO_Init+0x2e8>)
 80047b0:	697b      	ldr	r3, [r7, #20]
 80047b2:	089b      	lsrs	r3, r3, #2
 80047b4:	3302      	adds	r3, #2
 80047b6:	693a      	ldr	r2, [r7, #16]
 80047b8:	f841 2023 	str.w	r2, [r1, r3, lsl #2]
 80047bc:	4b39      	ldr	r3, [pc, #228]	@ (80048a4 <HAL_GPIO_Init+0x300>)
 80047be:	689b      	ldr	r3, [r3, #8]
 80047c0:	613b      	str	r3, [r7, #16]
 80047c2:	68fb      	ldr	r3, [r7, #12]
 80047c4:	43db      	mvns	r3, r3
 80047c6:	693a      	ldr	r2, [r7, #16]
 80047c8:	4013      	ands	r3, r2
 80047ca:	613b      	str	r3, [r7, #16]
 80047cc:	683b      	ldr	r3, [r7, #0]
 80047ce:	685b      	ldr	r3, [r3, #4]
 80047d0:	f403 1380 	and.w	r3, r3, #1048576	@ 0x100000
 80047d4:	2b00      	cmp	r3, #0
 80047d6:	d003      	beq.n	80047e0 <HAL_GPIO_Init+0x23c>
 80047d8:	693a      	ldr	r2, [r7, #16]
 80047da:	68fb      	ldr	r3, [r7, #12]
 80047dc:	4313      	orrs	r3, r2
 80047de:	613b      	str	r3, [r7, #16]
 80047e0:	4a30      	ldr	r2, [pc, #192]	@ (80048a4 <HAL_GPIO_Init+0x300>)
 80047e2:	693b      	ldr	r3, [r7, #16]
 80047e4:	6093      	str	r3, [r2, #8]
 80047e6:	4b2f      	ldr	r3, [pc, #188]	@ (80048a4 <HAL_GPIO_Init+0x300>)
 80047e8:	68db      	ldr	r3, [r3, #12]
 80047ea:	613b      	str	r3, [r7, #16]
 80047ec:	68fb      	ldr	r3, [r7, #12]
 80047ee:	43db      	mvns	r3, r3
 80047f0:	693a      	ldr	r2, [r7, #16]
 80047f2:	4013      	ands	r3, r2
 80047f4:	613b      	str	r3, [r7, #16]
 80047f6:	683b      	ldr	r3, [r7, #0]
 80047f8:	685b      	ldr	r3, [r3, #4]
 80047fa:	f403 1300 	and.w	r3, r3, #2097152	@ 0x200000
 80047fe:	2b00      	cmp	r3, #0
 8004800:	d003      	beq.n	800480a <HAL_GPIO_Init+0x266>
 8004802:	693a      	ldr	r2, [r7, #16]
 8004804:	68fb      	ldr	r3, [r7, #12]
 8004806:	4313      	orrs	r3, r2
 8004808:	613b      	str	r3, [r7, #16]
 800480a:	4a26      	ldr	r2, [pc, #152]	@ (80048a4 <HAL_GPIO_Init+0x300>)
 800480c:	693b      	ldr	r3, [r7, #16]
 800480e:	60d3      	str	r3, [r2, #12]
 8004810:	4b24      	ldr	r3, [pc, #144]	@ (80048a4 <HAL_GPIO_Init+0x300>)
 8004812:	685b      	ldr	r3, [r3, #4]
 8004814:	613b      	str	r3, [r7, #16]
 8004816:	68fb      	ldr	r3, [r7, #12]
 8004818:	43db      	mvns	r3, r3
 800481a:	693a      	ldr	r2, [r7, #16]
 800481c:	4013      	ands	r3, r2
 800481e:	613b      	str	r3, [r7, #16]
 8004820:	683b      	ldr	r3, [r7, #0]
 8004822:	685b      	ldr	r3, [r3, #4]
 8004824:	f403 3300 	and.w	r3, r3, #131072	@ 0x20000
 8004828:	2b00      	cmp	r3, #0
 800482a:	d003      	beq.n	8004834 <HAL_GPIO_Init+0x290>
 800482c:	693a      	ldr	r2, [r7, #16]
 800482e:	68fb      	ldr	r3, [r7, #12]
 8004830:	4313      	orrs	r3, r2
 8004832:	613b      	str	r3, [r7, #16]
 8004834:	4a1b      	ldr	r2, [pc, #108]	@ (80048a4 <HAL_GPIO_Init+0x300>)
 8004836:	693b      	ldr	r3, [r7, #16]
 8004838:	6053      	str	r3, [r2, #4]
 800483a:	4b1a      	ldr	r3, [pc, #104]	@ (80048a4 <HAL_GPIO_Init+0x300>)
 800483c:	681b      	ldr	r3, [r3, #0]
 800483e:	613b      	str	r3, [r7, #16]
 8004840:	68fb      	ldr	r3, [r7, #12]
 8004842:	43db      	mvns	r3, r3
 8004844:	693a      	ldr	r2, [r7, #16]
 8004846:	4013      	ands	r3, r2
 8004848:	613b      	str	r3, [r7, #16]
 800484a:	683b      	ldr	r3, [r7, #0]
 800484c:	685b      	ldr	r3, [r3, #4]
 800484e:	f403 3380 	and.w	r3, r3, #65536	@ 0x10000
 8004852:	2b00      	cmp	r3, #0
 8004854:	d003      	beq.n	800485e <HAL_GPIO_Init+0x2ba>
 8004856:	693a      	ldr	r2, [r7, #16]
 8004858:	68fb      	ldr	r3, [r7, #12]
 800485a:	4313      	orrs	r3, r2
 800485c:	613b      	str	r3, [r7, #16]
 800485e:	4a11      	ldr	r2, [pc, #68]	@ (80048a4 <HAL_GPIO_Init+0x300>)
 8004860:	693b      	ldr	r3, [r7, #16]
 8004862:	6013      	str	r3, [r2, #0]
 8004864:	697b      	ldr	r3, [r7, #20]
 8004866:	3301      	adds	r3, #1
 8004868:	617b      	str	r3, [r7, #20]
 800486a:	683b      	ldr	r3, [r7, #0]
 800486c:	681a      	ldr	r2, [r3, #0]
 800486e:	697b      	ldr	r3, [r7, #20]
 8004870:	fa22 f303 	lsr.w	r3, r2, r3
 8004874:	2b00      	cmp	r3, #0
 8004876:	f47f ae9d 	bne.w	80045b4 <HAL_GPIO_Init+0x10>
 800487a:	bf00      	nop
 800487c:	bf00      	nop
 800487e:	371c      	adds	r7, #28
 8004880:	46bd      	mov	sp, r7
 8004882:	f85d 7b04 	ldr.w	r7, [sp], #4
 8004886:	4770      	bx	lr
 8004888:	40021000 	.word	0x40021000
 800488c:	40010000 	.word	0x40010000
 8004890:	48000400 	.word	0x48000400
 8004894:	48000800 	.word	0x48000800
 8004898:	48000c00 	.word	0x48000c00
 800489c:	48001000 	.word	0x48001000
 80048a0:	48001400 	.word	0x48001400
 80048a4:	40010400 	.word	0x40010400

080048a8 <HAL_GPIO_WritePin>:
 80048a8:	b480      	push	{r7}
 80048aa:	b083      	sub	sp, #12
 80048ac:	af00      	add	r7, sp, #0
 80048ae:	6078      	str	r0, [r7, #4]
 80048b0:	460b      	mov	r3, r1
 80048b2:	807b      	strh	r3, [r7, #2]
 80048b4:	4613      	mov	r3, r2
 80048b6:	707b      	strb	r3, [r7, #1]
 80048b8:	787b      	ldrb	r3, [r7, #1]
 80048ba:	2b00      	cmp	r3, #0
 80048bc:	d003      	beq.n	80048c6 <HAL_GPIO_WritePin+0x1e>
 80048be:	887a      	ldrh	r2, [r7, #2]
 80048c0:	687b      	ldr	r3, [r7, #4]
 80048c2:	619a      	str	r2, [r3, #24]
 80048c4:	e002      	b.n	80048cc <HAL_GPIO_WritePin+0x24>
 80048c6:	887a      	ldrh	r2, [r7, #2]
 80048c8:	687b      	ldr	r3, [r7, #4]
 80048ca:	629a      	str	r2, [r3, #40]	@ 0x28
 80048cc:	bf00      	nop
 80048ce:	370c      	adds	r7, #12
 80048d0:	46bd      	mov	sp, r7
 80048d2:	f85d 7b04 	ldr.w	r7, [sp], #4
 80048d6:	4770      	bx	lr

080048d8 <HAL_PWREx_ControlVoltageScaling>:
 80048d8:	b480      	push	{r7}
 80048da:	b085      	sub	sp, #20
 80048dc:	af00      	add	r7, sp, #0
 80048de:	6078      	str	r0, [r7, #4]
 80048e0:	687b      	ldr	r3, [r7, #4]
 80048e2:	2b00      	cmp	r3, #0
 80048e4:	d141      	bne.n	800496a <HAL_PWREx_ControlVoltageScaling+0x92>
 80048e6:	4b4b      	ldr	r3, [pc, #300]	@ (8004a14 <HAL_PWREx_ControlVoltageScaling+0x13c>)
 80048e8:	681b      	ldr	r3, [r3, #0]
 80048ea:	f403 63c0 	and.w	r3, r3, #1536	@ 0x600
 80048ee:	f5b3 6f80 	cmp.w	r3, #1024	@ 0x400
 80048f2:	d131      	bne.n	8004958 <HAL_PWREx_ControlVoltageScaling+0x80>
 80048f4:	4b47      	ldr	r3, [pc, #284]	@ (8004a14 <HAL_PWREx_ControlVoltageScaling+0x13c>)
 80048f6:	f8d3 3080 	ldr.w	r3, [r3, #128]	@ 0x80
 80048fa:	4a46      	ldr	r2, [pc, #280]	@ (8004a14 <HAL_PWREx_ControlVoltageScaling+0x13c>)
 80048fc:	f423 7380 	bic.w	r3, r3, #256	@ 0x100
 8004900:	f8c2 3080 	str.w	r3, [r2, #128]	@ 0x80
 8004904:	4b43      	ldr	r3, [pc, #268]	@ (8004a14 <HAL_PWREx_ControlVoltageScaling+0x13c>)
 8004906:	681b      	ldr	r3, [r3, #0]
 8004908:	f423 63c0 	bic.w	r3, r3, #1536	@ 0x600
 800490c:	4a41      	ldr	r2, [pc, #260]	@ (8004a14 <HAL_PWREx_ControlVoltageScaling+0x13c>)
 800490e:	f443 7300 	orr.w	r3, r3, #512	@ 0x200
 8004912:	6013      	str	r3, [r2, #0]
 8004914:	4b40      	ldr	r3, [pc, #256]	@ (8004a18 <HAL_PWREx_ControlVoltageScaling+0x140>)
 8004916:	681b      	ldr	r3, [r3, #0]
 8004918:	2232      	movs	r2, #50	@ 0x32
 800491a:	fb02 f303 	mul.w	r3, r2, r3
 800491e:	4a3f      	ldr	r2, [pc, #252]	@ (8004a1c <HAL_PWREx_ControlVoltageScaling+0x144>)
 8004920:	fba2 2303 	umull	r2, r3, r2, r3
 8004924:	0c9b      	lsrs	r3, r3, #18
 8004926:	3301      	adds	r3, #1
 8004928:	60fb      	str	r3, [r7, #12]
 800492a:	e002      	b.n	8004932 <HAL_PWREx_ControlVoltageScaling+0x5a>
 800492c:	68fb      	ldr	r3, [r7, #12]
 800492e:	3b01      	subs	r3, #1
 8004930:	60fb      	str	r3, [r7, #12]
 8004932:	4b38      	ldr	r3, [pc, #224]	@ (8004a14 <HAL_PWREx_ControlVoltageScaling+0x13c>)
 8004934:	695b      	ldr	r3, [r3, #20]
 8004936:	f403 6380 	and.w	r3, r3, #1024	@ 0x400
 800493a:	f5b3 6f80 	cmp.w	r3, #1024	@ 0x400
 800493e:	d102      	bne.n	8004946 <HAL_PWREx_ControlVoltageScaling+0x6e>
 8004940:	68fb      	ldr	r3, [r7, #12]
 8004942:	2b00      	cmp	r3, #0
 8004944:	d1f2      	bne.n	800492c <HAL_PWREx_ControlVoltageScaling+0x54>
 8004946:	4b33      	ldr	r3, [pc, #204]	@ (8004a14 <HAL_PWREx_ControlVoltageScaling+0x13c>)
 8004948:	695b      	ldr	r3, [r3, #20]
 800494a:	f403 6380 	and.w	r3, r3, #1024	@ 0x400
 800494e:	f5b3 6f80 	cmp.w	r3, #1024	@ 0x400
 8004952:	d158      	bne.n	8004a06 <HAL_PWREx_ControlVoltageScaling+0x12e>
 8004954:	2303      	movs	r3, #3
 8004956:	e057      	b.n	8004a08 <HAL_PWREx_ControlVoltageScaling+0x130>
 8004958:	4b2e      	ldr	r3, [pc, #184]	@ (8004a14 <HAL_PWREx_ControlVoltageScaling+0x13c>)
 800495a:	f8d3 3080 	ldr.w	r3, [r3, #128]	@ 0x80
 800495e:	4a2d      	ldr	r2, [pc, #180]	@ (8004a14 <HAL_PWREx_ControlVoltageScaling+0x13c>)
 8004960:	f423 7380 	bic.w	r3, r3, #256	@ 0x100
 8004964:	f8c2 3080 	str.w	r3, [r2, #128]	@ 0x80
 8004968:	e04d      	b.n	8004a06 <HAL_PWREx_ControlVoltageScaling+0x12e>
 800496a:	687b      	ldr	r3, [r7, #4]
 800496c:	f5b3 7f00 	cmp.w	r3, #512	@ 0x200
 8004970:	d141      	bne.n	80049f6 <HAL_PWREx_ControlVoltageScaling+0x11e>
 8004972:	4b28      	ldr	r3, [pc, #160]	@ (8004a14 <HAL_PWREx_ControlVoltageScaling+0x13c>)
 8004974:	681b      	ldr	r3, [r3, #0]
 8004976:	f403 63c0 	and.w	r3, r3, #1536	@ 0x600
 800497a:	f5b3 6f80 	cmp.w	r3, #1024	@ 0x400
 800497e:	d131      	bne.n	80049e4 <HAL_PWREx_ControlVoltageScaling+0x10c>
 8004980:	4b24      	ldr	r3, [pc, #144]	@ (8004a14 <HAL_PWREx_ControlVoltageScaling+0x13c>)
 8004982:	f8d3 3080 	ldr.w	r3, [r3, #128]	@ 0x80
 8004986:	4a23      	ldr	r2, [pc, #140]	@ (8004a14 <HAL_PWREx_ControlVoltageScaling+0x13c>)
 8004988:	f443 7380 	orr.w	r3, r3, #256	@ 0x100
 800498c:	f8c2 3080 	str.w	r3, [r2, #128]	@ 0x80
 8004990:	4b20      	ldr	r3, [pc, #128]	@ (8004a14 <HAL_PWREx_ControlVoltageScaling+0x13c>)
 8004992:	681b      	ldr	r3, [r3, #0]
 8004994:	f423 63c0 	bic.w	r3, r3, #1536	@ 0x600
 8004998:	4a1e      	ldr	r2, [pc, #120]	@ (8004a14 <HAL_PWREx_ControlVoltageScaling+0x13c>)
 800499a:	f443 7300 	orr.w	r3, r3, #512	@ 0x200
 800499e:	6013      	str	r3, [r2, #0]
 80049a0:	4b1d      	ldr	r3, [pc, #116]	@ (8004a18 <HAL_PWREx_ControlVoltageScaling+0x140>)
 80049a2:	681b      	ldr	r3, [r3, #0]
 80049a4:	2232      	movs	r2, #50	@ 0x32
 80049a6:	fb02 f303 	mul.w	r3, r2, r3
 80049aa:	4a1c      	ldr	r2, [pc, #112]	@ (8004a1c <HAL_PWREx_ControlVoltageScaling+0x144>)
 80049ac:	fba2 2303 	umull	r2, r3, r2, r3
 80049b0:	0c9b      	lsrs	r3, r3, #18
 80049b2:	3301      	adds	r3, #1
 80049b4:	60fb      	str	r3, [r7, #12]
 80049b6:	e002      	b.n	80049be <HAL_PWREx_ControlVoltageScaling+0xe6>
 80049b8:	68fb      	ldr	r3, [r7, #12]
 80049ba:	3b01      	subs	r3, #1
 80049bc:	60fb      	str	r3, [r7, #12]
 80049be:	4b15      	ldr	r3, [pc, #84]	@ (8004a14 <HAL_PWREx_ControlVoltageScaling+0x13c>)
 80049c0:	695b      	ldr	r3, [r3, #20]
 80049c2:	f403 6380 	and.w	r3, r3, #1024	@ 0x400
 80049c6:	f5b3 6f80 	cmp.w	r3, #1024	@ 0x400
 80049ca:	d102      	bne.n	80049d2 <HAL_PWREx_ControlVoltageScaling+0xfa>
 80049cc:	68fb      	ldr	r3, [r7, #12]
 80049ce:	2b00      	cmp	r3, #0
 80049d0:	d1f2      	bne.n	80049b8 <HAL_PWREx_ControlVoltageScaling+0xe0>
 80049d2:	4b10      	ldr	r3, [pc, #64]	@ (8004a14 <HAL_PWREx_ControlVoltageScaling+0x13c>)
 80049d4:	695b      	ldr	r3, [r3, #20]
 80049d6:	f403 6380 	and.w	r3, r3, #1024	@ 0x400
 80049da:	f5b3 6f80 	cmp.w	r3, #1024	@ 0x400
 80049de:	d112      	bne.n	8004a06 <HAL_PWREx_ControlVoltageScaling+0x12e>
 80049e0:	2303      	movs	r3, #3
 80049e2:	e011      	b.n	8004a08 <HAL_PWREx_ControlVoltageScaling+0x130>
 80049e4:	4b0b      	ldr	r3, [pc, #44]	@ (8004a14 <HAL_PWREx_ControlVoltageScaling+0x13c>)
 80049e6:	f8d3 3080 	ldr.w	r3, [r3, #128]	@ 0x80
 80049ea:	4a0a      	ldr	r2, [pc, #40]	@ (8004a14 <HAL_PWREx_ControlVoltageScaling+0x13c>)
 80049ec:	f443 7380 	orr.w	r3, r3, #256	@ 0x100
 80049f0:	f8c2 3080 	str.w	r3, [r2, #128]	@ 0x80
 80049f4:	e007      	b.n	8004a06 <HAL_PWREx_ControlVoltageScaling+0x12e>
 80049f6:	4b07      	ldr	r3, [pc, #28]	@ (8004a14 <HAL_PWREx_ControlVoltageScaling+0x13c>)
 80049f8:	681b      	ldr	r3, [r3, #0]
 80049fa:	f423 63c0 	bic.w	r3, r3, #1536	@ 0x600
 80049fe:	4a05      	ldr	r2, [pc, #20]	@ (8004a14 <HAL_PWREx_ControlVoltageScaling+0x13c>)
 8004a00:	f443 6380 	orr.w	r3, r3, #1024	@ 0x400
 8004a04:	6013      	str	r3, [r2, #0]
 8004a06:	2300      	movs	r3, #0
 8004a08:	4618      	mov	r0, r3
 8004a0a:	3714      	adds	r7, #20
 8004a0c:	46bd      	mov	sp, r7
 8004a0e:	f85d 7b04 	ldr.w	r7, [sp], #4
 8004a12:	4770      	bx	lr
 8004a14:	40007000 	.word	0x40007000
 8004a18:	20000088 	.word	0x20000088
 8004a1c:	431bde83 	.word	0x431bde83

08004a20 <HAL_PWREx_DisableUCPDDeadBattery>:
 8004a20:	b480      	push	{r7}
 8004a22:	af00      	add	r7, sp, #0
 8004a24:	4b05      	ldr	r3, [pc, #20]	@ (8004a3c <HAL_PWREx_DisableUCPDDeadBattery+0x1c>)
 8004a26:	689b      	ldr	r3, [r3, #8]
 8004a28:	4a04      	ldr	r2, [pc, #16]	@ (8004a3c <HAL_PWREx_DisableUCPDDeadBattery+0x1c>)
 8004a2a:	f443 4380 	orr.w	r3, r3, #16384	@ 0x4000
 8004a2e:	6093      	str	r3, [r2, #8]
 8004a30:	bf00      	nop
 8004a32:	46bd      	mov	sp, r7
 8004a34:	f85d 7b04 	ldr.w	r7, [sp], #4
 8004a38:	4770      	bx	lr
 8004a3a:	bf00      	nop
 8004a3c:	40007000 	.word	0x40007000

08004a40 <HAL_RCC_OscConfig>:
 8004a40:	b580      	push	{r7, lr}
 8004a42:	b088      	sub	sp, #32
 8004a44:	af00      	add	r7, sp, #0
 8004a46:	6078      	str	r0, [r7, #4]
 8004a48:	687b      	ldr	r3, [r7, #4]
 8004a4a:	2b00      	cmp	r3, #0
 8004a4c:	d101      	bne.n	8004a52 <HAL_RCC_OscConfig+0x12>
 8004a4e:	2301      	movs	r3, #1
 8004a50:	e2fe      	b.n	8005050 <HAL_RCC_OscConfig+0x610>
 8004a52:	687b      	ldr	r3, [r7, #4]
 8004a54:	681b      	ldr	r3, [r3, #0]
 8004a56:	f003 0301 	and.w	r3, r3, #1
 8004a5a:	2b00      	cmp	r3, #0
 8004a5c:	d075      	beq.n	8004b4a <HAL_RCC_OscConfig+0x10a>
 8004a5e:	4b97      	ldr	r3, [pc, #604]	@ (8004cbc <HAL_RCC_OscConfig+0x27c>)
 8004a60:	689b      	ldr	r3, [r3, #8]
 8004a62:	f003 030c 	and.w	r3, r3, #12
 8004a66:	61bb      	str	r3, [r7, #24]
 8004a68:	4b94      	ldr	r3, [pc, #592]	@ (8004cbc <HAL_RCC_OscConfig+0x27c>)
 8004a6a:	68db      	ldr	r3, [r3, #12]
 8004a6c:	f003 0303 	and.w	r3, r3, #3
 8004a70:	617b      	str	r3, [r7, #20]
 8004a72:	69bb      	ldr	r3, [r7, #24]
 8004a74:	2b0c      	cmp	r3, #12
 8004a76:	d102      	bne.n	8004a7e <HAL_RCC_OscConfig+0x3e>
 8004a78:	697b      	ldr	r3, [r7, #20]
 8004a7a:	2b03      	cmp	r3, #3
 8004a7c:	d002      	beq.n	8004a84 <HAL_RCC_OscConfig+0x44>
 8004a7e:	69bb      	ldr	r3, [r7, #24]
 8004a80:	2b08      	cmp	r3, #8
 8004a82:	d10b      	bne.n	8004a9c <HAL_RCC_OscConfig+0x5c>
 8004a84:	4b8d      	ldr	r3, [pc, #564]	@ (8004cbc <HAL_RCC_OscConfig+0x27c>)
 8004a86:	681b      	ldr	r3, [r3, #0]
 8004a88:	f403 3300 	and.w	r3, r3, #131072	@ 0x20000
 8004a8c:	2b00      	cmp	r3, #0
 8004a8e:	d05b      	beq.n	8004b48 <HAL_RCC_OscConfig+0x108>
 8004a90:	687b      	ldr	r3, [r7, #4]
 8004a92:	685b      	ldr	r3, [r3, #4]
 8004a94:	2b00      	cmp	r3, #0
 8004a96:	d157      	bne.n	8004b48 <HAL_RCC_OscConfig+0x108>
 8004a98:	2301      	movs	r3, #1
 8004a9a:	e2d9      	b.n	8005050 <HAL_RCC_OscConfig+0x610>
 8004a9c:	687b      	ldr	r3, [r7, #4]
 8004a9e:	685b      	ldr	r3, [r3, #4]
 8004aa0:	f5b3 3f80 	cmp.w	r3, #65536	@ 0x10000
 8004aa4:	d106      	bne.n	8004ab4 <HAL_RCC_OscConfig+0x74>
 8004aa6:	4b85      	ldr	r3, [pc, #532]	@ (8004cbc <HAL_RCC_OscConfig+0x27c>)
 8004aa8:	681b      	ldr	r3, [r3, #0]
 8004aaa:	4a84      	ldr	r2, [pc, #528]	@ (8004cbc <HAL_RCC_OscConfig+0x27c>)
 8004aac:	f443 3380 	orr.w	r3, r3, #65536	@ 0x10000
 8004ab0:	6013      	str	r3, [r2, #0]
 8004ab2:	e01d      	b.n	8004af0 <HAL_RCC_OscConfig+0xb0>
 8004ab4:	687b      	ldr	r3, [r7, #4]
 8004ab6:	685b      	ldr	r3, [r3, #4]
 8004ab8:	f5b3 2fa0 	cmp.w	r3, #327680	@ 0x50000
 8004abc:	d10c      	bne.n	8004ad8 <HAL_RCC_OscConfig+0x98>
 8004abe:	4b7f      	ldr	r3, [pc, #508]	@ (8004cbc <HAL_RCC_OscConfig+0x27c>)
 8004ac0:	681b      	ldr	r3, [r3, #0]
 8004ac2:	4a7e      	ldr	r2, [pc, #504]	@ (8004cbc <HAL_RCC_OscConfig+0x27c>)
 8004ac4:	f443 2380 	orr.w	r3, r3, #262144	@ 0x40000
 8004ac8:	6013      	str	r3, [r2, #0]
 8004aca:	4b7c      	ldr	r3, [pc, #496]	@ (8004cbc <HAL_RCC_OscConfig+0x27c>)
 8004acc:	681b      	ldr	r3, [r3, #0]
 8004ace:	4a7b      	ldr	r2, [pc, #492]	@ (8004cbc <HAL_RCC_OscConfig+0x27c>)
 8004ad0:	f443 3380 	orr.w	r3, r3, #65536	@ 0x10000
 8004ad4:	6013      	str	r3, [r2, #0]
 8004ad6:	e00b      	b.n	8004af0 <HAL_RCC_OscConfig+0xb0>
 8004ad8:	4b78      	ldr	r3, [pc, #480]	@ (8004cbc <HAL_RCC_OscConfig+0x27c>)
 8004ada:	681b      	ldr	r3, [r3, #0]
 8004adc:	4a77      	ldr	r2, [pc, #476]	@ (8004cbc <HAL_RCC_OscConfig+0x27c>)
 8004ade:	f423 3380 	bic.w	r3, r3, #65536	@ 0x10000
 8004ae2:	6013      	str	r3, [r2, #0]
 8004ae4:	4b75      	ldr	r3, [pc, #468]	@ (8004cbc <HAL_RCC_OscConfig+0x27c>)
 8004ae6:	681b      	ldr	r3, [r3, #0]
 8004ae8:	4a74      	ldr	r2, [pc, #464]	@ (8004cbc <HAL_RCC_OscConfig+0x27c>)
 8004aea:	f423 2380 	bic.w	r3, r3, #262144	@ 0x40000
 8004aee:	6013      	str	r3, [r2, #0]
 8004af0:	687b      	ldr	r3, [r7, #4]
 8004af2:	685b      	ldr	r3, [r3, #4]
 8004af4:	2b00      	cmp	r3, #0
 8004af6:	d013      	beq.n	8004b20 <HAL_RCC_OscConfig+0xe0>
 8004af8:	f7ff fc42 	bl	8004380 <HAL_GetTick>
 8004afc:	6138      	str	r0, [r7, #16]
 8004afe:	e008      	b.n	8004b12 <HAL_RCC_OscConfig+0xd2>
 8004b00:	f7ff fc3e 	bl	8004380 <HAL_GetTick>
 8004b04:	4602      	mov	r2, r0
 8004b06:	693b      	ldr	r3, [r7, #16]
 8004b08:	1ad3      	subs	r3, r2, r3
 8004b0a:	2b64      	cmp	r3, #100	@ 0x64
 8004b0c:	d901      	bls.n	8004b12 <HAL_RCC_OscConfig+0xd2>
 8004b0e:	2303      	movs	r3, #3
 8004b10:	e29e      	b.n	8005050 <HAL_RCC_OscConfig+0x610>
 8004b12:	4b6a      	ldr	r3, [pc, #424]	@ (8004cbc <HAL_RCC_OscConfig+0x27c>)
 8004b14:	681b      	ldr	r3, [r3, #0]
 8004b16:	f403 3300 	and.w	r3, r3, #131072	@ 0x20000
 8004b1a:	2b00      	cmp	r3, #0
 8004b1c:	d0f0      	beq.n	8004b00 <HAL_RCC_OscConfig+0xc0>
 8004b1e:	e014      	b.n	8004b4a <HAL_RCC_OscConfig+0x10a>
 8004b20:	f7ff fc2e 	bl	8004380 <HAL_GetTick>
 8004b24:	6138      	str	r0, [r7, #16]
 8004b26:	e008      	b.n	8004b3a <HAL_RCC_OscConfig+0xfa>
 8004b28:	f7ff fc2a 	bl	8004380 <HAL_GetTick>
 8004b2c:	4602      	mov	r2, r0
 8004b2e:	693b      	ldr	r3, [r7, #16]
 8004b30:	1ad3      	subs	r3, r2, r3
 8004b32:	2b64      	cmp	r3, #100	@ 0x64
 8004b34:	d901      	bls.n	8004b3a <HAL_RCC_OscConfig+0xfa>
 8004b36:	2303      	movs	r3, #3
 8004b38:	e28a      	b.n	8005050 <HAL_RCC_OscConfig+0x610>
 8004b3a:	4b60      	ldr	r3, [pc, #384]	@ (8004cbc <HAL_RCC_OscConfig+0x27c>)
 8004b3c:	681b      	ldr	r3, [r3, #0]
 8004b3e:	f403 3300 	and.w	r3, r3, #131072	@ 0x20000
 8004b42:	2b00      	cmp	r3, #0
 8004b44:	d1f0      	bne.n	8004b28 <HAL_RCC_OscConfig+0xe8>
 8004b46:	e000      	b.n	8004b4a <HAL_RCC_OscConfig+0x10a>
 8004b48:	bf00      	nop
 8004b4a:	687b      	ldr	r3, [r7, #4]
 8004b4c:	681b      	ldr	r3, [r3, #0]
 8004b4e:	f003 0302 	and.w	r3, r3, #2
 8004b52:	2b00      	cmp	r3, #0
 8004b54:	d075      	beq.n	8004c42 <HAL_RCC_OscConfig+0x202>
 8004b56:	4b59      	ldr	r3, [pc, #356]	@ (8004cbc <HAL_RCC_OscConfig+0x27c>)
 8004b58:	689b      	ldr	r3, [r3, #8]
 8004b5a:	f003 030c 	and.w	r3, r3, #12
 8004b5e:	61bb      	str	r3, [r7, #24]
 8004b60:	4b56      	ldr	r3, [pc, #344]	@ (8004cbc <HAL_RCC_OscConfig+0x27c>)
 8004b62:	68db      	ldr	r3, [r3, #12]
 8004b64:	f003 0303 	and.w	r3, r3, #3
 8004b68:	617b      	str	r3, [r7, #20]
 8004b6a:	69bb      	ldr	r3, [r7, #24]
 8004b6c:	2b0c      	cmp	r3, #12
 8004b6e:	d102      	bne.n	8004b76 <HAL_RCC_OscConfig+0x136>
 8004b70:	697b      	ldr	r3, [r7, #20]
 8004b72:	2b02      	cmp	r3, #2
 8004b74:	d002      	beq.n	8004b7c <HAL_RCC_OscConfig+0x13c>
 8004b76:	69bb      	ldr	r3, [r7, #24]
 8004b78:	2b04      	cmp	r3, #4
 8004b7a:	d11f      	bne.n	8004bbc <HAL_RCC_OscConfig+0x17c>
 8004b7c:	4b4f      	ldr	r3, [pc, #316]	@ (8004cbc <HAL_RCC_OscConfig+0x27c>)
 8004b7e:	681b      	ldr	r3, [r3, #0]
 8004b80:	f403 6380 	and.w	r3, r3, #1024	@ 0x400
 8004b84:	2b00      	cmp	r3, #0
 8004b86:	d005      	beq.n	8004b94 <HAL_RCC_OscConfig+0x154>
 8004b88:	687b      	ldr	r3, [r7, #4]
 8004b8a:	68db      	ldr	r3, [r3, #12]
 8004b8c:	2b00      	cmp	r3, #0
 8004b8e:	d101      	bne.n	8004b94 <HAL_RCC_OscConfig+0x154>
 8004b90:	2301      	movs	r3, #1
 8004b92:	e25d      	b.n	8005050 <HAL_RCC_OscConfig+0x610>
 8004b94:	4b49      	ldr	r3, [pc, #292]	@ (8004cbc <HAL_RCC_OscConfig+0x27c>)
 8004b96:	685b      	ldr	r3, [r3, #4]
 8004b98:	f023 42fe 	bic.w	r2, r3, #2130706432	@ 0x7f000000
 8004b9c:	687b      	ldr	r3, [r7, #4]
 8004b9e:	691b      	ldr	r3, [r3, #16]
 8004ba0:	061b      	lsls	r3, r3, #24
 8004ba2:	4946      	ldr	r1, [pc, #280]	@ (8004cbc <HAL_RCC_OscConfig+0x27c>)
 8004ba4:	4313      	orrs	r3, r2
 8004ba6:	604b      	str	r3, [r1, #4]
 8004ba8:	4b45      	ldr	r3, [pc, #276]	@ (8004cc0 <HAL_RCC_OscConfig+0x280>)
 8004baa:	681b      	ldr	r3, [r3, #0]
 8004bac:	4618      	mov	r0, r3
 8004bae:	f7ff fb9b 	bl	80042e8 <HAL_InitTick>
 8004bb2:	4603      	mov	r3, r0
 8004bb4:	2b00      	cmp	r3, #0
 8004bb6:	d043      	beq.n	8004c40 <HAL_RCC_OscConfig+0x200>
 8004bb8:	2301      	movs	r3, #1
 8004bba:	e249      	b.n	8005050 <HAL_RCC_OscConfig+0x610>
 8004bbc:	687b      	ldr	r3, [r7, #4]
 8004bbe:	68db      	ldr	r3, [r3, #12]
 8004bc0:	2b00      	cmp	r3, #0
 8004bc2:	d023      	beq.n	8004c0c <HAL_RCC_OscConfig+0x1cc>
 8004bc4:	4b3d      	ldr	r3, [pc, #244]	@ (8004cbc <HAL_RCC_OscConfig+0x27c>)
 8004bc6:	681b      	ldr	r3, [r3, #0]
 8004bc8:	4a3c      	ldr	r2, [pc, #240]	@ (8004cbc <HAL_RCC_OscConfig+0x27c>)
 8004bca:	f443 7380 	orr.w	r3, r3, #256	@ 0x100
 8004bce:	6013      	str	r3, [r2, #0]
 8004bd0:	f7ff fbd6 	bl	8004380 <HAL_GetTick>
 8004bd4:	6138      	str	r0, [r7, #16]
 8004bd6:	e008      	b.n	8004bea <HAL_RCC_OscConfig+0x1aa>
 8004bd8:	f7ff fbd2 	bl	8004380 <HAL_GetTick>
 8004bdc:	4602      	mov	r2, r0
 8004bde:	693b      	ldr	r3, [r7, #16]
 8004be0:	1ad3      	subs	r3, r2, r3
 8004be2:	2b02      	cmp	r3, #2
 8004be4:	d901      	bls.n	8004bea <HAL_RCC_OscConfig+0x1aa>
 8004be6:	2303      	movs	r3, #3
 8004be8:	e232      	b.n	8005050 <HAL_RCC_OscConfig+0x610>
 8004bea:	4b34      	ldr	r3, [pc, #208]	@ (8004cbc <HAL_RCC_OscConfig+0x27c>)
 8004bec:	681b      	ldr	r3, [r3, #0]
 8004bee:	f403 6380 	and.w	r3, r3, #1024	@ 0x400
 8004bf2:	2b00      	cmp	r3, #0
 8004bf4:	d0f0      	beq.n	8004bd8 <HAL_RCC_OscConfig+0x198>
 8004bf6:	4b31      	ldr	r3, [pc, #196]	@ (8004cbc <HAL_RCC_OscConfig+0x27c>)
 8004bf8:	685b      	ldr	r3, [r3, #4]
 8004bfa:	f023 42fe 	bic.w	r2, r3, #2130706432	@ 0x7f000000
 8004bfe:	687b      	ldr	r3, [r7, #4]
 8004c00:	691b      	ldr	r3, [r3, #16]
 8004c02:	061b      	lsls	r3, r3, #24
 8004c04:	492d      	ldr	r1, [pc, #180]	@ (8004cbc <HAL_RCC_OscConfig+0x27c>)
 8004c06:	4313      	orrs	r3, r2
 8004c08:	604b      	str	r3, [r1, #4]
 8004c0a:	e01a      	b.n	8004c42 <HAL_RCC_OscConfig+0x202>
 8004c0c:	4b2b      	ldr	r3, [pc, #172]	@ (8004cbc <HAL_RCC_OscConfig+0x27c>)
 8004c0e:	681b      	ldr	r3, [r3, #0]
 8004c10:	4a2a      	ldr	r2, [pc, #168]	@ (8004cbc <HAL_RCC_OscConfig+0x27c>)
 8004c12:	f423 7380 	bic.w	r3, r3, #256	@ 0x100
 8004c16:	6013      	str	r3, [r2, #0]
 8004c18:	f7ff fbb2 	bl	8004380 <HAL_GetTick>
 8004c1c:	6138      	str	r0, [r7, #16]
 8004c1e:	e008      	b.n	8004c32 <HAL_RCC_OscConfig+0x1f2>
 8004c20:	f7ff fbae 	bl	8004380 <HAL_GetTick>
 8004c24:	4602      	mov	r2, r0
 8004c26:	693b      	ldr	r3, [r7, #16]
 8004c28:	1ad3      	subs	r3, r2, r3
 8004c2a:	2b02      	cmp	r3, #2
 8004c2c:	d901      	bls.n	8004c32 <HAL_RCC_OscConfig+0x1f2>
 8004c2e:	2303      	movs	r3, #3
 8004c30:	e20e      	b.n	8005050 <HAL_RCC_OscConfig+0x610>
 8004c32:	4b22      	ldr	r3, [pc, #136]	@ (8004cbc <HAL_RCC_OscConfig+0x27c>)
 8004c34:	681b      	ldr	r3, [r3, #0]
 8004c36:	f403 6380 	and.w	r3, r3, #1024	@ 0x400
 8004c3a:	2b00      	cmp	r3, #0
 8004c3c:	d1f0      	bne.n	8004c20 <HAL_RCC_OscConfig+0x1e0>
 8004c3e:	e000      	b.n	8004c42 <HAL_RCC_OscConfig+0x202>
 8004c40:	bf00      	nop
 8004c42:	687b      	ldr	r3, [r7, #4]
 8004c44:	681b      	ldr	r3, [r3, #0]
 8004c46:	f003 0308 	and.w	r3, r3, #8
 8004c4a:	2b00      	cmp	r3, #0
 8004c4c:	d041      	beq.n	8004cd2 <HAL_RCC_OscConfig+0x292>
 8004c4e:	687b      	ldr	r3, [r7, #4]
 8004c50:	695b      	ldr	r3, [r3, #20]
 8004c52:	2b00      	cmp	r3, #0
 8004c54:	d01c      	beq.n	8004c90 <HAL_RCC_OscConfig+0x250>
 8004c56:	4b19      	ldr	r3, [pc, #100]	@ (8004cbc <HAL_RCC_OscConfig+0x27c>)
 8004c58:	f8d3 3094 	ldr.w	r3, [r3, #148]	@ 0x94
 8004c5c:	4a17      	ldr	r2, [pc, #92]	@ (8004cbc <HAL_RCC_OscConfig+0x27c>)
 8004c5e:	f043 0301 	orr.w	r3, r3, #1
 8004c62:	f8c2 3094 	str.w	r3, [r2, #148]	@ 0x94
 8004c66:	f7ff fb8b 	bl	8004380 <HAL_GetTick>
 8004c6a:	6138      	str	r0, [r7, #16]
 8004c6c:	e008      	b.n	8004c80 <HAL_RCC_OscConfig+0x240>
 8004c6e:	f7ff fb87 	bl	8004380 <HAL_GetTick>
 8004c72:	4602      	mov	r2, r0
 8004c74:	693b      	ldr	r3, [r7, #16]
 8004c76:	1ad3      	subs	r3, r2, r3
 8004c78:	2b02      	cmp	r3, #2
 8004c7a:	d901      	bls.n	8004c80 <HAL_RCC_OscConfig+0x240>
 8004c7c:	2303      	movs	r3, #3
 8004c7e:	e1e7      	b.n	8005050 <HAL_RCC_OscConfig+0x610>
 8004c80:	4b0e      	ldr	r3, [pc, #56]	@ (8004cbc <HAL_RCC_OscConfig+0x27c>)
 8004c82:	f8d3 3094 	ldr.w	r3, [r3, #148]	@ 0x94
 8004c86:	f003 0302 	and.w	r3, r3, #2
 8004c8a:	2b00      	cmp	r3, #0
 8004c8c:	d0ef      	beq.n	8004c6e <HAL_RCC_OscConfig+0x22e>
 8004c8e:	e020      	b.n	8004cd2 <HAL_RCC_OscConfig+0x292>
 8004c90:	4b0a      	ldr	r3, [pc, #40]	@ (8004cbc <HAL_RCC_OscConfig+0x27c>)
 8004c92:	f8d3 3094 	ldr.w	r3, [r3, #148]	@ 0x94
 8004c96:	4a09      	ldr	r2, [pc, #36]	@ (8004cbc <HAL_RCC_OscConfig+0x27c>)
 8004c98:	f023 0301 	bic.w	r3, r3, #1
 8004c9c:	f8c2 3094 	str.w	r3, [r2, #148]	@ 0x94
 8004ca0:	f7ff fb6e 	bl	8004380 <HAL_GetTick>
 8004ca4:	6138      	str	r0, [r7, #16]
 8004ca6:	e00d      	b.n	8004cc4 <HAL_RCC_OscConfig+0x284>
 8004ca8:	f7ff fb6a 	bl	8004380 <HAL_GetTick>
 8004cac:	4602      	mov	r2, r0
 8004cae:	693b      	ldr	r3, [r7, #16]
 8004cb0:	1ad3      	subs	r3, r2, r3
 8004cb2:	2b02      	cmp	r3, #2
 8004cb4:	d906      	bls.n	8004cc4 <HAL_RCC_OscConfig+0x284>
 8004cb6:	2303      	movs	r3, #3
 8004cb8:	e1ca      	b.n	8005050 <HAL_RCC_OscConfig+0x610>
 8004cba:	bf00      	nop
 8004cbc:	40021000 	.word	0x40021000
 8004cc0:	200000bc 	.word	0x200000bc
 8004cc4:	4b8c      	ldr	r3, [pc, #560]	@ (8004ef8 <HAL_RCC_OscConfig+0x4b8>)
 8004cc6:	f8d3 3094 	ldr.w	r3, [r3, #148]	@ 0x94
 8004cca:	f003 0302 	and.w	r3, r3, #2
 8004cce:	2b00      	cmp	r3, #0
 8004cd0:	d1ea      	bne.n	8004ca8 <HAL_RCC_OscConfig+0x268>
 8004cd2:	687b      	ldr	r3, [r7, #4]
 8004cd4:	681b      	ldr	r3, [r3, #0]
 8004cd6:	f003 0304 	and.w	r3, r3, #4
 8004cda:	2b00      	cmp	r3, #0
 8004cdc:	f000 80a6 	beq.w	8004e2c <HAL_RCC_OscConfig+0x3ec>
 8004ce0:	2300      	movs	r3, #0
 8004ce2:	77fb      	strb	r3, [r7, #31]
 8004ce4:	4b84      	ldr	r3, [pc, #528]	@ (8004ef8 <HAL_RCC_OscConfig+0x4b8>)
 8004ce6:	6d9b      	ldr	r3, [r3, #88]	@ 0x58
 8004ce8:	f003 5380 	and.w	r3, r3, #268435456	@ 0x10000000
 8004cec:	2b00      	cmp	r3, #0
 8004cee:	d101      	bne.n	8004cf4 <HAL_RCC_OscConfig+0x2b4>
 8004cf0:	2301      	movs	r3, #1
 8004cf2:	e000      	b.n	8004cf6 <HAL_RCC_OscConfig+0x2b6>
 8004cf4:	2300      	movs	r3, #0
 8004cf6:	2b00      	cmp	r3, #0
 8004cf8:	d00d      	beq.n	8004d16 <HAL_RCC_OscConfig+0x2d6>
 8004cfa:	4b7f      	ldr	r3, [pc, #508]	@ (8004ef8 <HAL_RCC_OscConfig+0x4b8>)
 8004cfc:	6d9b      	ldr	r3, [r3, #88]	@ 0x58
 8004cfe:	4a7e      	ldr	r2, [pc, #504]	@ (8004ef8 <HAL_RCC_OscConfig+0x4b8>)
 8004d00:	f043 5380 	orr.w	r3, r3, #268435456	@ 0x10000000
 8004d04:	6593      	str	r3, [r2, #88]	@ 0x58
 8004d06:	4b7c      	ldr	r3, [pc, #496]	@ (8004ef8 <HAL_RCC_OscConfig+0x4b8>)
 8004d08:	6d9b      	ldr	r3, [r3, #88]	@ 0x58
 8004d0a:	f003 5380 	and.w	r3, r3, #268435456	@ 0x10000000
 8004d0e:	60fb      	str	r3, [r7, #12]
 8004d10:	68fb      	ldr	r3, [r7, #12]
 8004d12:	2301      	movs	r3, #1
 8004d14:	77fb      	strb	r3, [r7, #31]
 8004d16:	4b79      	ldr	r3, [pc, #484]	@ (8004efc <HAL_RCC_OscConfig+0x4bc>)
 8004d18:	681b      	ldr	r3, [r3, #0]
 8004d1a:	f403 7380 	and.w	r3, r3, #256	@ 0x100
 8004d1e:	2b00      	cmp	r3, #0
 8004d20:	d118      	bne.n	8004d54 <HAL_RCC_OscConfig+0x314>
 8004d22:	4b76      	ldr	r3, [pc, #472]	@ (8004efc <HAL_RCC_OscConfig+0x4bc>)
 8004d24:	681b      	ldr	r3, [r3, #0]
 8004d26:	4a75      	ldr	r2, [pc, #468]	@ (8004efc <HAL_RCC_OscConfig+0x4bc>)
 8004d28:	f443 7380 	orr.w	r3, r3, #256	@ 0x100
 8004d2c:	6013      	str	r3, [r2, #0]
 8004d2e:	f7ff fb27 	bl	8004380 <HAL_GetTick>
 8004d32:	6138      	str	r0, [r7, #16]
 8004d34:	e008      	b.n	8004d48 <HAL_RCC_OscConfig+0x308>
 8004d36:	f7ff fb23 	bl	8004380 <HAL_GetTick>
 8004d3a:	4602      	mov	r2, r0
 8004d3c:	693b      	ldr	r3, [r7, #16]
 8004d3e:	1ad3      	subs	r3, r2, r3
 8004d40:	2b02      	cmp	r3, #2
 8004d42:	d901      	bls.n	8004d48 <HAL_RCC_OscConfig+0x308>
 8004d44:	2303      	movs	r3, #3
 8004d46:	e183      	b.n	8005050 <HAL_RCC_OscConfig+0x610>
 8004d48:	4b6c      	ldr	r3, [pc, #432]	@ (8004efc <HAL_RCC_OscConfig+0x4bc>)
 8004d4a:	681b      	ldr	r3, [r3, #0]
 8004d4c:	f403 7380 	and.w	r3, r3, #256	@ 0x100
 8004d50:	2b00      	cmp	r3, #0
 8004d52:	d0f0      	beq.n	8004d36 <HAL_RCC_OscConfig+0x2f6>
 8004d54:	687b      	ldr	r3, [r7, #4]
 8004d56:	689b      	ldr	r3, [r3, #8]
 8004d58:	2b01      	cmp	r3, #1
 8004d5a:	d108      	bne.n	8004d6e <HAL_RCC_OscConfig+0x32e>
 8004d5c:	4b66      	ldr	r3, [pc, #408]	@ (8004ef8 <HAL_RCC_OscConfig+0x4b8>)
 8004d5e:	f8d3 3090 	ldr.w	r3, [r3, #144]	@ 0x90
 8004d62:	4a65      	ldr	r2, [pc, #404]	@ (8004ef8 <HAL_RCC_OscConfig+0x4b8>)
 8004d64:	f043 0301 	orr.w	r3, r3, #1
 8004d68:	f8c2 3090 	str.w	r3, [r2, #144]	@ 0x90
 8004d6c:	e024      	b.n	8004db8 <HAL_RCC_OscConfig+0x378>
 8004d6e:	687b      	ldr	r3, [r7, #4]
 8004d70:	689b      	ldr	r3, [r3, #8]
 8004d72:	2b05      	cmp	r3, #5
 8004d74:	d110      	bne.n	8004d98 <HAL_RCC_OscConfig+0x358>
 8004d76:	4b60      	ldr	r3, [pc, #384]	@ (8004ef8 <HAL_RCC_OscConfig+0x4b8>)
 8004d78:	f8d3 3090 	ldr.w	r3, [r3, #144]	@ 0x90
 8004d7c:	4a5e      	ldr	r2, [pc, #376]	@ (8004ef8 <HAL_RCC_OscConfig+0x4b8>)
 8004d7e:	f043 0304 	orr.w	r3, r3, #4
 8004d82:	f8c2 3090 	str.w	r3, [r2, #144]	@ 0x90
 8004d86:	4b5c      	ldr	r3, [pc, #368]	@ (8004ef8 <HAL_RCC_OscConfig+0x4b8>)
 8004d88:	f8d3 3090 	ldr.w	r3, [r3, #144]	@ 0x90
 8004d8c:	4a5a      	ldr	r2, [pc, #360]	@ (8004ef8 <HAL_RCC_OscConfig+0x4b8>)
 8004d8e:	f043 0301 	orr.w	r3, r3, #1
 8004d92:	f8c2 3090 	str.w	r3, [r2, #144]	@ 0x90
 8004d96:	e00f      	b.n	8004db8 <HAL_RCC_OscConfig+0x378>
 8004d98:	4b57      	ldr	r3, [pc, #348]	@ (8004ef8 <HAL_RCC_OscConfig+0x4b8>)
 8004d9a:	f8d3 3090 	ldr.w	r3, [r3, #144]	@ 0x90
 8004d9e:	4a56      	ldr	r2, [pc, #344]	@ (8004ef8 <HAL_RCC_OscConfig+0x4b8>)
 8004da0:	f023 0301 	bic.w	r3, r3, #1
 8004da4:	f8c2 3090 	str.w	r3, [r2, #144]	@ 0x90
 8004da8:	4b53      	ldr	r3, [pc, #332]	@ (8004ef8 <HAL_RCC_OscConfig+0x4b8>)
 8004daa:	f8d3 3090 	ldr.w	r3, [r3, #144]	@ 0x90
 8004dae:	4a52      	ldr	r2, [pc, #328]	@ (8004ef8 <HAL_RCC_OscConfig+0x4b8>)
 8004db0:	f023 0304 	bic.w	r3, r3, #4
 8004db4:	f8c2 3090 	str.w	r3, [r2, #144]	@ 0x90
 8004db8:	687b      	ldr	r3, [r7, #4]
 8004dba:	689b      	ldr	r3, [r3, #8]
 8004dbc:	2b00      	cmp	r3, #0
 8004dbe:	d016      	beq.n	8004dee <HAL_RCC_OscConfig+0x3ae>
 8004dc0:	f7ff fade 	bl	8004380 <HAL_GetTick>
 8004dc4:	6138      	str	r0, [r7, #16]
 8004dc6:	e00a      	b.n	8004dde <HAL_RCC_OscConfig+0x39e>
 8004dc8:	f7ff fada 	bl	8004380 <HAL_GetTick>
 8004dcc:	4602      	mov	r2, r0
 8004dce:	693b      	ldr	r3, [r7, #16]
 8004dd0:	1ad3      	subs	r3, r2, r3
 8004dd2:	f241 3288 	movw	r2, #5000	@ 0x1388
 8004dd6:	4293      	cmp	r3, r2
 8004dd8:	d901      	bls.n	8004dde <HAL_RCC_OscConfig+0x39e>
 8004dda:	2303      	movs	r3, #3
 8004ddc:	e138      	b.n	8005050 <HAL_RCC_OscConfig+0x610>
 8004dde:	4b46      	ldr	r3, [pc, #280]	@ (8004ef8 <HAL_RCC_OscConfig+0x4b8>)
 8004de0:	f8d3 3090 	ldr.w	r3, [r3, #144]	@ 0x90
 8004de4:	f003 0302 	and.w	r3, r3, #2
 8004de8:	2b00      	cmp	r3, #0
 8004dea:	d0ed      	beq.n	8004dc8 <HAL_RCC_OscConfig+0x388>
 8004dec:	e015      	b.n	8004e1a <HAL_RCC_OscConfig+0x3da>
 8004dee:	f7ff fac7 	bl	8004380 <HAL_GetTick>
 8004df2:	6138      	str	r0, [r7, #16]
 8004df4:	e00a      	b.n	8004e0c <HAL_RCC_OscConfig+0x3cc>
 8004df6:	f7ff fac3 	bl	8004380 <HAL_GetTick>
 8004dfa:	4602      	mov	r2, r0
 8004dfc:	693b      	ldr	r3, [r7, #16]
 8004dfe:	1ad3      	subs	r3, r2, r3
 8004e00:	f241 3288 	movw	r2, #5000	@ 0x1388
 8004e04:	4293      	cmp	r3, r2
 8004e06:	d901      	bls.n	8004e0c <HAL_RCC_OscConfig+0x3cc>
 8004e08:	2303      	movs	r3, #3
 8004e0a:	e121      	b.n	8005050 <HAL_RCC_OscConfig+0x610>
 8004e0c:	4b3a      	ldr	r3, [pc, #232]	@ (8004ef8 <HAL_RCC_OscConfig+0x4b8>)
 8004e0e:	f8d3 3090 	ldr.w	r3, [r3, #144]	@ 0x90
 8004e12:	f003 0302 	and.w	r3, r3, #2
 8004e16:	2b00      	cmp	r3, #0
 8004e18:	d1ed      	bne.n	8004df6 <HAL_RCC_OscConfig+0x3b6>
 8004e1a:	7ffb      	ldrb	r3, [r7, #31]
 8004e1c:	2b01      	cmp	r3, #1
 8004e1e:	d105      	bne.n	8004e2c <HAL_RCC_OscConfig+0x3ec>
 8004e20:	4b35      	ldr	r3, [pc, #212]	@ (8004ef8 <HAL_RCC_OscConfig+0x4b8>)
 8004e22:	6d9b      	ldr	r3, [r3, #88]	@ 0x58
 8004e24:	4a34      	ldr	r2, [pc, #208]	@ (8004ef8 <HAL_RCC_OscConfig+0x4b8>)
 8004e26:	f023 5380 	bic.w	r3, r3, #268435456	@ 0x10000000
 8004e2a:	6593      	str	r3, [r2, #88]	@ 0x58
 8004e2c:	687b      	ldr	r3, [r7, #4]
 8004e2e:	681b      	ldr	r3, [r3, #0]
 8004e30:	f003 0320 	and.w	r3, r3, #32
 8004e34:	2b00      	cmp	r3, #0
 8004e36:	d03c      	beq.n	8004eb2 <HAL_RCC_OscConfig+0x472>
 8004e38:	687b      	ldr	r3, [r7, #4]
 8004e3a:	699b      	ldr	r3, [r3, #24]
 8004e3c:	2b00      	cmp	r3, #0
 8004e3e:	d01c      	beq.n	8004e7a <HAL_RCC_OscConfig+0x43a>
 8004e40:	4b2d      	ldr	r3, [pc, #180]	@ (8004ef8 <HAL_RCC_OscConfig+0x4b8>)
 8004e42:	f8d3 3098 	ldr.w	r3, [r3, #152]	@ 0x98
 8004e46:	4a2c      	ldr	r2, [pc, #176]	@ (8004ef8 <HAL_RCC_OscConfig+0x4b8>)
 8004e48:	f043 0301 	orr.w	r3, r3, #1
 8004e4c:	f8c2 3098 	str.w	r3, [r2, #152]	@ 0x98
 8004e50:	f7ff fa96 	bl	8004380 <HAL_GetTick>
 8004e54:	6138      	str	r0, [r7, #16]
 8004e56:	e008      	b.n	8004e6a <HAL_RCC_OscConfig+0x42a>
 8004e58:	f7ff fa92 	bl	8004380 <HAL_GetTick>
 8004e5c:	4602      	mov	r2, r0
 8004e5e:	693b      	ldr	r3, [r7, #16]
 8004e60:	1ad3      	subs	r3, r2, r3
 8004e62:	2b02      	cmp	r3, #2
 8004e64:	d901      	bls.n	8004e6a <HAL_RCC_OscConfig+0x42a>
 8004e66:	2303      	movs	r3, #3
 8004e68:	e0f2      	b.n	8005050 <HAL_RCC_OscConfig+0x610>
 8004e6a:	4b23      	ldr	r3, [pc, #140]	@ (8004ef8 <HAL_RCC_OscConfig+0x4b8>)
 8004e6c:	f8d3 3098 	ldr.w	r3, [r3, #152]	@ 0x98
 8004e70:	f003 0302 	and.w	r3, r3, #2
 8004e74:	2b00      	cmp	r3, #0
 8004e76:	d0ef      	beq.n	8004e58 <HAL_RCC_OscConfig+0x418>
 8004e78:	e01b      	b.n	8004eb2 <HAL_RCC_OscConfig+0x472>
 8004e7a:	4b1f      	ldr	r3, [pc, #124]	@ (8004ef8 <HAL_RCC_OscConfig+0x4b8>)
 8004e7c:	f8d3 3098 	ldr.w	r3, [r3, #152]	@ 0x98
 8004e80:	4a1d      	ldr	r2, [pc, #116]	@ (8004ef8 <HAL_RCC_OscConfig+0x4b8>)
 8004e82:	f023 0301 	bic.w	r3, r3, #1
 8004e86:	f8c2 3098 	str.w	r3, [r2, #152]	@ 0x98
 8004e8a:	f7ff fa79 	bl	8004380 <HAL_GetTick>
 8004e8e:	6138      	str	r0, [r7, #16]
 8004e90:	e008      	b.n	8004ea4 <HAL_RCC_OscConfig+0x464>
 8004e92:	f7ff fa75 	bl	8004380 <HAL_GetTick>
 8004e96:	4602      	mov	r2, r0
 8004e98:	693b      	ldr	r3, [r7, #16]
 8004e9a:	1ad3      	subs	r3, r2, r3
 8004e9c:	2b02      	cmp	r3, #2
 8004e9e:	d901      	bls.n	8004ea4 <HAL_RCC_OscConfig+0x464>
 8004ea0:	2303      	movs	r3, #3
 8004ea2:	e0d5      	b.n	8005050 <HAL_RCC_OscConfig+0x610>
 8004ea4:	4b14      	ldr	r3, [pc, #80]	@ (8004ef8 <HAL_RCC_OscConfig+0x4b8>)
 8004ea6:	f8d3 3098 	ldr.w	r3, [r3, #152]	@ 0x98
 8004eaa:	f003 0302 	and.w	r3, r3, #2
 8004eae:	2b00      	cmp	r3, #0
 8004eb0:	d1ef      	bne.n	8004e92 <HAL_RCC_OscConfig+0x452>
 8004eb2:	687b      	ldr	r3, [r7, #4]
 8004eb4:	69db      	ldr	r3, [r3, #28]
 8004eb6:	2b00      	cmp	r3, #0
 8004eb8:	f000 80c9 	beq.w	800504e <HAL_RCC_OscConfig+0x60e>
 8004ebc:	4b0e      	ldr	r3, [pc, #56]	@ (8004ef8 <HAL_RCC_OscConfig+0x4b8>)
 8004ebe:	689b      	ldr	r3, [r3, #8]
 8004ec0:	f003 030c 	and.w	r3, r3, #12
 8004ec4:	2b0c      	cmp	r3, #12
 8004ec6:	f000 8083 	beq.w	8004fd0 <HAL_RCC_OscConfig+0x590>
 8004eca:	687b      	ldr	r3, [r7, #4]
 8004ecc:	69db      	ldr	r3, [r3, #28]
 8004ece:	2b02      	cmp	r3, #2
 8004ed0:	d15e      	bne.n	8004f90 <HAL_RCC_OscConfig+0x550>
 8004ed2:	4b09      	ldr	r3, [pc, #36]	@ (8004ef8 <HAL_RCC_OscConfig+0x4b8>)
 8004ed4:	681b      	ldr	r3, [r3, #0]
 8004ed6:	4a08      	ldr	r2, [pc, #32]	@ (8004ef8 <HAL_RCC_OscConfig+0x4b8>)
 8004ed8:	f023 7380 	bic.w	r3, r3, #16777216	@ 0x1000000
 8004edc:	6013      	str	r3, [r2, #0]
 8004ede:	f7ff fa4f 	bl	8004380 <HAL_GetTick>
 8004ee2:	6138      	str	r0, [r7, #16]
 8004ee4:	e00c      	b.n	8004f00 <HAL_RCC_OscConfig+0x4c0>
 8004ee6:	f7ff fa4b 	bl	8004380 <HAL_GetTick>
 8004eea:	4602      	mov	r2, r0
 8004eec:	693b      	ldr	r3, [r7, #16]
 8004eee:	1ad3      	subs	r3, r2, r3
 8004ef0:	2b02      	cmp	r3, #2
 8004ef2:	d905      	bls.n	8004f00 <HAL_RCC_OscConfig+0x4c0>
 8004ef4:	2303      	movs	r3, #3
 8004ef6:	e0ab      	b.n	8005050 <HAL_RCC_OscConfig+0x610>
 8004ef8:	40021000 	.word	0x40021000
 8004efc:	40007000 	.word	0x40007000
 8004f00:	4b55      	ldr	r3, [pc, #340]	@ (8005058 <HAL_RCC_OscConfig+0x618>)
 8004f02:	681b      	ldr	r3, [r3, #0]
 8004f04:	f003 7300 	and.w	r3, r3, #33554432	@ 0x2000000
 8004f08:	2b00      	cmp	r3, #0
 8004f0a:	d1ec      	bne.n	8004ee6 <HAL_RCC_OscConfig+0x4a6>
 8004f0c:	4b52      	ldr	r3, [pc, #328]	@ (8005058 <HAL_RCC_OscConfig+0x618>)
 8004f0e:	68da      	ldr	r2, [r3, #12]
 8004f10:	4b52      	ldr	r3, [pc, #328]	@ (800505c <HAL_RCC_OscConfig+0x61c>)
 8004f12:	4013      	ands	r3, r2
 8004f14:	687a      	ldr	r2, [r7, #4]
 8004f16:	6a11      	ldr	r1, [r2, #32]
 8004f18:	687a      	ldr	r2, [r7, #4]
 8004f1a:	6a52      	ldr	r2, [r2, #36]	@ 0x24
 8004f1c:	3a01      	subs	r2, #1
 8004f1e:	0112      	lsls	r2, r2, #4
 8004f20:	4311      	orrs	r1, r2
 8004f22:	687a      	ldr	r2, [r7, #4]
 8004f24:	6a92      	ldr	r2, [r2, #40]	@ 0x28
 8004f26:	0212      	lsls	r2, r2, #8
 8004f28:	4311      	orrs	r1, r2
 8004f2a:	687a      	ldr	r2, [r7, #4]
 8004f2c:	6b12      	ldr	r2, [r2, #48]	@ 0x30
 8004f2e:	0852      	lsrs	r2, r2, #1
 8004f30:	3a01      	subs	r2, #1
 8004f32:	0552      	lsls	r2, r2, #21
 8004f34:	4311      	orrs	r1, r2
 8004f36:	687a      	ldr	r2, [r7, #4]
 8004f38:	6b52      	ldr	r2, [r2, #52]	@ 0x34
 8004f3a:	0852      	lsrs	r2, r2, #1
 8004f3c:	3a01      	subs	r2, #1
 8004f3e:	0652      	lsls	r2, r2, #25
 8004f40:	4311      	orrs	r1, r2
 8004f42:	687a      	ldr	r2, [r7, #4]
 8004f44:	6ad2      	ldr	r2, [r2, #44]	@ 0x2c
 8004f46:	06d2      	lsls	r2, r2, #27
 8004f48:	430a      	orrs	r2, r1
 8004f4a:	4943      	ldr	r1, [pc, #268]	@ (8005058 <HAL_RCC_OscConfig+0x618>)
 8004f4c:	4313      	orrs	r3, r2
 8004f4e:	60cb      	str	r3, [r1, #12]
 8004f50:	4b41      	ldr	r3, [pc, #260]	@ (8005058 <HAL_RCC_OscConfig+0x618>)
 8004f52:	681b      	ldr	r3, [r3, #0]
 8004f54:	4a40      	ldr	r2, [pc, #256]	@ (8005058 <HAL_RCC_OscConfig+0x618>)
 8004f56:	f043 7380 	orr.w	r3, r3, #16777216	@ 0x1000000
 8004f5a:	6013      	str	r3, [r2, #0]
 8004f5c:	4b3e      	ldr	r3, [pc, #248]	@ (8005058 <HAL_RCC_OscConfig+0x618>)
 8004f5e:	68db      	ldr	r3, [r3, #12]
 8004f60:	4a3d      	ldr	r2, [pc, #244]	@ (8005058 <HAL_RCC_OscConfig+0x618>)
 8004f62:	f043 7380 	orr.w	r3, r3, #16777216	@ 0x1000000
 8004f66:	60d3      	str	r3, [r2, #12]
 8004f68:	f7ff fa0a 	bl	8004380 <HAL_GetTick>
 8004f6c:	6138      	str	r0, [r7, #16]
 8004f6e:	e008      	b.n	8004f82 <HAL_RCC_OscConfig+0x542>
 8004f70:	f7ff fa06 	bl	8004380 <HAL_GetTick>
 8004f74:	4602      	mov	r2, r0
 8004f76:	693b      	ldr	r3, [r7, #16]
 8004f78:	1ad3      	subs	r3, r2, r3
 8004f7a:	2b02      	cmp	r3, #2
 8004f7c:	d901      	bls.n	8004f82 <HAL_RCC_OscConfig+0x542>
 8004f7e:	2303      	movs	r3, #3
 8004f80:	e066      	b.n	8005050 <HAL_RCC_OscConfig+0x610>
 8004f82:	4b35      	ldr	r3, [pc, #212]	@ (8005058 <HAL_RCC_OscConfig+0x618>)
 8004f84:	681b      	ldr	r3, [r3, #0]
 8004f86:	f003 7300 	and.w	r3, r3, #33554432	@ 0x2000000
 8004f8a:	2b00      	cmp	r3, #0
 8004f8c:	d0f0      	beq.n	8004f70 <HAL_RCC_OscConfig+0x530>
 8004f8e:	e05e      	b.n	800504e <HAL_RCC_OscConfig+0x60e>
 8004f90:	4b31      	ldr	r3, [pc, #196]	@ (8005058 <HAL_RCC_OscConfig+0x618>)
 8004f92:	681b      	ldr	r3, [r3, #0]
 8004f94:	4a30      	ldr	r2, [pc, #192]	@ (8005058 <HAL_RCC_OscConfig+0x618>)
 8004f96:	f023 7380 	bic.w	r3, r3, #16777216	@ 0x1000000
 8004f9a:	6013      	str	r3, [r2, #0]
 8004f9c:	f7ff f9f0 	bl	8004380 <HAL_GetTick>
 8004fa0:	6138      	str	r0, [r7, #16]
 8004fa2:	e008      	b.n	8004fb6 <HAL_RCC_OscConfig+0x576>
 8004fa4:	f7ff f9ec 	bl	8004380 <HAL_GetTick>
 8004fa8:	4602      	mov	r2, r0
 8004faa:	693b      	ldr	r3, [r7, #16]
 8004fac:	1ad3      	subs	r3, r2, r3
 8004fae:	2b02      	cmp	r3, #2
 8004fb0:	d901      	bls.n	8004fb6 <HAL_RCC_OscConfig+0x576>
 8004fb2:	2303      	movs	r3, #3
 8004fb4:	e04c      	b.n	8005050 <HAL_RCC_OscConfig+0x610>
 8004fb6:	4b28      	ldr	r3, [pc, #160]	@ (8005058 <HAL_RCC_OscConfig+0x618>)
 8004fb8:	681b      	ldr	r3, [r3, #0]
 8004fba:	f003 7300 	and.w	r3, r3, #33554432	@ 0x2000000
 8004fbe:	2b00      	cmp	r3, #0
 8004fc0:	d1f0      	bne.n	8004fa4 <HAL_RCC_OscConfig+0x564>
 8004fc2:	4b25      	ldr	r3, [pc, #148]	@ (8005058 <HAL_RCC_OscConfig+0x618>)
 8004fc4:	68da      	ldr	r2, [r3, #12]
 8004fc6:	4924      	ldr	r1, [pc, #144]	@ (8005058 <HAL_RCC_OscConfig+0x618>)
 8004fc8:	4b25      	ldr	r3, [pc, #148]	@ (8005060 <HAL_RCC_OscConfig+0x620>)
 8004fca:	4013      	ands	r3, r2
 8004fcc:	60cb      	str	r3, [r1, #12]
 8004fce:	e03e      	b.n	800504e <HAL_RCC_OscConfig+0x60e>
 8004fd0:	687b      	ldr	r3, [r7, #4]
 8004fd2:	69db      	ldr	r3, [r3, #28]
 8004fd4:	2b01      	cmp	r3, #1
 8004fd6:	d101      	bne.n	8004fdc <HAL_RCC_OscConfig+0x59c>
 8004fd8:	2301      	movs	r3, #1
 8004fda:	e039      	b.n	8005050 <HAL_RCC_OscConfig+0x610>
 8004fdc:	4b1e      	ldr	r3, [pc, #120]	@ (8005058 <HAL_RCC_OscConfig+0x618>)
 8004fde:	68db      	ldr	r3, [r3, #12]
 8004fe0:	617b      	str	r3, [r7, #20]
 8004fe2:	697b      	ldr	r3, [r7, #20]
 8004fe4:	f003 0203 	and.w	r2, r3, #3
 8004fe8:	687b      	ldr	r3, [r7, #4]
 8004fea:	6a1b      	ldr	r3, [r3, #32]
 8004fec:	429a      	cmp	r2, r3
 8004fee:	d12c      	bne.n	800504a <HAL_RCC_OscConfig+0x60a>
 8004ff0:	697b      	ldr	r3, [r7, #20]
 8004ff2:	f003 02f0 	and.w	r2, r3, #240	@ 0xf0
 8004ff6:	687b      	ldr	r3, [r7, #4]
 8004ff8:	6a5b      	ldr	r3, [r3, #36]	@ 0x24
 8004ffa:	3b01      	subs	r3, #1
 8004ffc:	011b      	lsls	r3, r3, #4
 8004ffe:	429a      	cmp	r2, r3
 8005000:	d123      	bne.n	800504a <HAL_RCC_OscConfig+0x60a>
 8005002:	697b      	ldr	r3, [r7, #20]
 8005004:	f403 42fe 	and.w	r2, r3, #32512	@ 0x7f00
 8005008:	687b      	ldr	r3, [r7, #4]
 800500a:	6a9b      	ldr	r3, [r3, #40]	@ 0x28
 800500c:	021b      	lsls	r3, r3, #8
 800500e:	429a      	cmp	r2, r3
 8005010:	d11b      	bne.n	800504a <HAL_RCC_OscConfig+0x60a>
 8005012:	697b      	ldr	r3, [r7, #20]
 8005014:	f003 4278 	and.w	r2, r3, #4160749568	@ 0xf8000000
 8005018:	687b      	ldr	r3, [r7, #4]
 800501a:	6adb      	ldr	r3, [r3, #44]	@ 0x2c
 800501c:	06db      	lsls	r3, r3, #27
 800501e:	429a      	cmp	r2, r3
 8005020:	d113      	bne.n	800504a <HAL_RCC_OscConfig+0x60a>
 8005022:	697b      	ldr	r3, [r7, #20]
 8005024:	f403 02c0 	and.w	r2, r3, #6291456	@ 0x600000
 8005028:	687b      	ldr	r3, [r7, #4]
 800502a:	6b1b      	ldr	r3, [r3, #48]	@ 0x30
 800502c:	085b      	lsrs	r3, r3, #1
 800502e:	3b01      	subs	r3, #1
 8005030:	055b      	lsls	r3, r3, #21
 8005032:	429a      	cmp	r2, r3
 8005034:	d109      	bne.n	800504a <HAL_RCC_OscConfig+0x60a>
 8005036:	697b      	ldr	r3, [r7, #20]
 8005038:	f003 62c0 	and.w	r2, r3, #100663296	@ 0x6000000
 800503c:	687b      	ldr	r3, [r7, #4]
 800503e:	6b5b      	ldr	r3, [r3, #52]	@ 0x34
 8005040:	085b      	lsrs	r3, r3, #1
 8005042:	3b01      	subs	r3, #1
 8005044:	065b      	lsls	r3, r3, #25
 8005046:	429a      	cmp	r2, r3
 8005048:	d001      	beq.n	800504e <HAL_RCC_OscConfig+0x60e>
 800504a:	2301      	movs	r3, #1
 800504c:	e000      	b.n	8005050 <HAL_RCC_OscConfig+0x610>
 800504e:	2300      	movs	r3, #0
 8005050:	4618      	mov	r0, r3
 8005052:	3720      	adds	r7, #32
 8005054:	46bd      	mov	sp, r7
 8005056:	bd80      	pop	{r7, pc}
 8005058:	40021000 	.word	0x40021000
 800505c:	019f800c 	.word	0x019f800c
 8005060:	feeefffc 	.word	0xfeeefffc

08005064 <HAL_RCC_ClockConfig>:
 8005064:	b580      	push	{r7, lr}
 8005066:	b086      	sub	sp, #24
 8005068:	af00      	add	r7, sp, #0
 800506a:	6078      	str	r0, [r7, #4]
 800506c:	6039      	str	r1, [r7, #0]
 800506e:	2300      	movs	r3, #0
 8005070:	617b      	str	r3, [r7, #20]
 8005072:	687b      	ldr	r3, [r7, #4]
 8005074:	2b00      	cmp	r3, #0
 8005076:	d101      	bne.n	800507c <HAL_RCC_ClockConfig+0x18>
 8005078:	2301      	movs	r3, #1
 800507a:	e11e      	b.n	80052ba <HAL_RCC_ClockConfig+0x256>
 800507c:	4b91      	ldr	r3, [pc, #580]	@ (80052c4 <HAL_RCC_ClockConfig+0x260>)
 800507e:	681b      	ldr	r3, [r3, #0]
 8005080:	f003 030f 	and.w	r3, r3, #15
 8005084:	683a      	ldr	r2, [r7, #0]
 8005086:	429a      	cmp	r2, r3
 8005088:	d910      	bls.n	80050ac <HAL_RCC_ClockConfig+0x48>
 800508a:	4b8e      	ldr	r3, [pc, #568]	@ (80052c4 <HAL_RCC_ClockConfig+0x260>)
 800508c:	681b      	ldr	r3, [r3, #0]
 800508e:	f023 020f 	bic.w	r2, r3, #15
 8005092:	498c      	ldr	r1, [pc, #560]	@ (80052c4 <HAL_RCC_ClockConfig+0x260>)
 8005094:	683b      	ldr	r3, [r7, #0]
 8005096:	4313      	orrs	r3, r2
 8005098:	600b      	str	r3, [r1, #0]
 800509a:	4b8a      	ldr	r3, [pc, #552]	@ (80052c4 <HAL_RCC_ClockConfig+0x260>)
 800509c:	681b      	ldr	r3, [r3, #0]
 800509e:	f003 030f 	and.w	r3, r3, #15
 80050a2:	683a      	ldr	r2, [r7, #0]
 80050a4:	429a      	cmp	r2, r3
 80050a6:	d001      	beq.n	80050ac <HAL_RCC_ClockConfig+0x48>
 80050a8:	2301      	movs	r3, #1
 80050aa:	e106      	b.n	80052ba <HAL_RCC_ClockConfig+0x256>
 80050ac:	687b      	ldr	r3, [r7, #4]
 80050ae:	681b      	ldr	r3, [r3, #0]
 80050b0:	f003 0301 	and.w	r3, r3, #1
 80050b4:	2b00      	cmp	r3, #0
 80050b6:	d073      	beq.n	80051a0 <HAL_RCC_ClockConfig+0x13c>
 80050b8:	687b      	ldr	r3, [r7, #4]
 80050ba:	685b      	ldr	r3, [r3, #4]
 80050bc:	2b03      	cmp	r3, #3
 80050be:	d129      	bne.n	8005114 <HAL_RCC_ClockConfig+0xb0>
 80050c0:	4b81      	ldr	r3, [pc, #516]	@ (80052c8 <HAL_RCC_ClockConfig+0x264>)
 80050c2:	681b      	ldr	r3, [r3, #0]
 80050c4:	f003 7300 	and.w	r3, r3, #33554432	@ 0x2000000
 80050c8:	2b00      	cmp	r3, #0
 80050ca:	d101      	bne.n	80050d0 <HAL_RCC_ClockConfig+0x6c>
 80050cc:	2301      	movs	r3, #1
 80050ce:	e0f4      	b.n	80052ba <HAL_RCC_ClockConfig+0x256>
 80050d0:	f000 f99e 	bl	8005410 <RCC_GetSysClockFreqFromPLLSource>
 80050d4:	6138      	str	r0, [r7, #16]
 80050d6:	693b      	ldr	r3, [r7, #16]
 80050d8:	4a7c      	ldr	r2, [pc, #496]	@ (80052cc <HAL_RCC_ClockConfig+0x268>)
 80050da:	4293      	cmp	r3, r2
 80050dc:	d93f      	bls.n	800515e <HAL_RCC_ClockConfig+0xfa>
 80050de:	4b7a      	ldr	r3, [pc, #488]	@ (80052c8 <HAL_RCC_ClockConfig+0x264>)
 80050e0:	689b      	ldr	r3, [r3, #8]
 80050e2:	f003 03f0 	and.w	r3, r3, #240	@ 0xf0
 80050e6:	2b00      	cmp	r3, #0
 80050e8:	d009      	beq.n	80050fe <HAL_RCC_ClockConfig+0x9a>
 80050ea:	687b      	ldr	r3, [r7, #4]
 80050ec:	681b      	ldr	r3, [r3, #0]
 80050ee:	f003 0302 	and.w	r3, r3, #2
 80050f2:	2b00      	cmp	r3, #0
 80050f4:	d033      	beq.n	800515e <HAL_RCC_ClockConfig+0xfa>
 80050f6:	687b      	ldr	r3, [r7, #4]
 80050f8:	689b      	ldr	r3, [r3, #8]
 80050fa:	2b00      	cmp	r3, #0
 80050fc:	d12f      	bne.n	800515e <HAL_RCC_ClockConfig+0xfa>
 80050fe:	4b72      	ldr	r3, [pc, #456]	@ (80052c8 <HAL_RCC_ClockConfig+0x264>)
 8005100:	689b      	ldr	r3, [r3, #8]
 8005102:	f023 03f0 	bic.w	r3, r3, #240	@ 0xf0
 8005106:	4a70      	ldr	r2, [pc, #448]	@ (80052c8 <HAL_RCC_ClockConfig+0x264>)
 8005108:	f043 0380 	orr.w	r3, r3, #128	@ 0x80
 800510c:	6093      	str	r3, [r2, #8]
 800510e:	2380      	movs	r3, #128	@ 0x80
 8005110:	617b      	str	r3, [r7, #20]
 8005112:	e024      	b.n	800515e <HAL_RCC_ClockConfig+0xfa>
 8005114:	687b      	ldr	r3, [r7, #4]
 8005116:	685b      	ldr	r3, [r3, #4]
 8005118:	2b02      	cmp	r3, #2
 800511a:	d107      	bne.n	800512c <HAL_RCC_ClockConfig+0xc8>
 800511c:	4b6a      	ldr	r3, [pc, #424]	@ (80052c8 <HAL_RCC_ClockConfig+0x264>)
 800511e:	681b      	ldr	r3, [r3, #0]
 8005120:	f403 3300 	and.w	r3, r3, #131072	@ 0x20000
 8005124:	2b00      	cmp	r3, #0
 8005126:	d109      	bne.n	800513c <HAL_RCC_ClockConfig+0xd8>
 8005128:	2301      	movs	r3, #1
 800512a:	e0c6      	b.n	80052ba <HAL_RCC_ClockConfig+0x256>
 800512c:	4b66      	ldr	r3, [pc, #408]	@ (80052c8 <HAL_RCC_ClockConfig+0x264>)
 800512e:	681b      	ldr	r3, [r3, #0]
 8005130:	f403 6380 	and.w	r3, r3, #1024	@ 0x400
 8005134:	2b00      	cmp	r3, #0
 8005136:	d101      	bne.n	800513c <HAL_RCC_ClockConfig+0xd8>
 8005138:	2301      	movs	r3, #1
 800513a:	e0be      	b.n	80052ba <HAL_RCC_ClockConfig+0x256>
 800513c:	f000 f8ce 	bl	80052dc <HAL_RCC_GetSysClockFreq>
 8005140:	6138      	str	r0, [r7, #16]
 8005142:	693b      	ldr	r3, [r7, #16]
 8005144:	4a61      	ldr	r2, [pc, #388]	@ (80052cc <HAL_RCC_ClockConfig+0x268>)
 8005146:	4293      	cmp	r3, r2
 8005148:	d909      	bls.n	800515e <HAL_RCC_ClockConfig+0xfa>
 800514a:	4b5f      	ldr	r3, [pc, #380]	@ (80052c8 <HAL_RCC_ClockConfig+0x264>)
 800514c:	689b      	ldr	r3, [r3, #8]
 800514e:	f023 03f0 	bic.w	r3, r3, #240	@ 0xf0
 8005152:	4a5d      	ldr	r2, [pc, #372]	@ (80052c8 <HAL_RCC_ClockConfig+0x264>)
 8005154:	f043 0380 	orr.w	r3, r3, #128	@ 0x80
 8005158:	6093      	str	r3, [r2, #8]
 800515a:	2380      	movs	r3, #128	@ 0x80
 800515c:	617b      	str	r3, [r7, #20]
 800515e:	4b5a      	ldr	r3, [pc, #360]	@ (80052c8 <HAL_RCC_ClockConfig+0x264>)
 8005160:	689b      	ldr	r3, [r3, #8]
 8005162:	f023 0203 	bic.w	r2, r3, #3
 8005166:	687b      	ldr	r3, [r7, #4]
 8005168:	685b      	ldr	r3, [r3, #4]
 800516a:	4957      	ldr	r1, [pc, #348]	@ (80052c8 <HAL_RCC_ClockConfig+0x264>)
 800516c:	4313      	orrs	r3, r2
 800516e:	608b      	str	r3, [r1, #8]
 8005170:	f7ff f906 	bl	8004380 <HAL_GetTick>
 8005174:	60f8      	str	r0, [r7, #12]
 8005176:	e00a      	b.n	800518e <HAL_RCC_ClockConfig+0x12a>
 8005178:	f7ff f902 	bl	8004380 <HAL_GetTick>
 800517c:	4602      	mov	r2, r0
 800517e:	68fb      	ldr	r3, [r7, #12]
 8005180:	1ad3      	subs	r3, r2, r3
 8005182:	f241 3288 	movw	r2, #5000	@ 0x1388
 8005186:	4293      	cmp	r3, r2
 8005188:	d901      	bls.n	800518e <HAL_RCC_ClockConfig+0x12a>
 800518a:	2303      	movs	r3, #3
 800518c:	e095      	b.n	80052ba <HAL_RCC_ClockConfig+0x256>
 800518e:	4b4e      	ldr	r3, [pc, #312]	@ (80052c8 <HAL_RCC_ClockConfig+0x264>)
 8005190:	689b      	ldr	r3, [r3, #8]
 8005192:	f003 020c 	and.w	r2, r3, #12
 8005196:	687b      	ldr	r3, [r7, #4]
 8005198:	685b      	ldr	r3, [r3, #4]
 800519a:	009b      	lsls	r3, r3, #2
 800519c:	429a      	cmp	r2, r3
 800519e:	d1eb      	bne.n	8005178 <HAL_RCC_ClockConfig+0x114>
 80051a0:	687b      	ldr	r3, [r7, #4]
 80051a2:	681b      	ldr	r3, [r3, #0]
 80051a4:	f003 0302 	and.w	r3, r3, #2
 80051a8:	2b00      	cmp	r3, #0
 80051aa:	d023      	beq.n	80051f4 <HAL_RCC_ClockConfig+0x190>
 80051ac:	687b      	ldr	r3, [r7, #4]
 80051ae:	681b      	ldr	r3, [r3, #0]
 80051b0:	f003 0304 	and.w	r3, r3, #4
 80051b4:	2b00      	cmp	r3, #0
 80051b6:	d005      	beq.n	80051c4 <HAL_RCC_ClockConfig+0x160>
 80051b8:	4b43      	ldr	r3, [pc, #268]	@ (80052c8 <HAL_RCC_ClockConfig+0x264>)
 80051ba:	689b      	ldr	r3, [r3, #8]
 80051bc:	4a42      	ldr	r2, [pc, #264]	@ (80052c8 <HAL_RCC_ClockConfig+0x264>)
 80051be:	f443 63e0 	orr.w	r3, r3, #1792	@ 0x700
 80051c2:	6093      	str	r3, [r2, #8]
 80051c4:	687b      	ldr	r3, [r7, #4]
 80051c6:	681b      	ldr	r3, [r3, #0]
 80051c8:	f003 0308 	and.w	r3, r3, #8
 80051cc:	2b00      	cmp	r3, #0
 80051ce:	d007      	beq.n	80051e0 <HAL_RCC_ClockConfig+0x17c>
 80051d0:	4b3d      	ldr	r3, [pc, #244]	@ (80052c8 <HAL_RCC_ClockConfig+0x264>)
 80051d2:	689b      	ldr	r3, [r3, #8]
 80051d4:	f423 537c 	bic.w	r3, r3, #16128	@ 0x3f00
 80051d8:	4a3b      	ldr	r2, [pc, #236]	@ (80052c8 <HAL_RCC_ClockConfig+0x264>)
 80051da:	f443 63e0 	orr.w	r3, r3, #1792	@ 0x700
 80051de:	6093      	str	r3, [r2, #8]
 80051e0:	4b39      	ldr	r3, [pc, #228]	@ (80052c8 <HAL_RCC_ClockConfig+0x264>)
 80051e2:	689b      	ldr	r3, [r3, #8]
 80051e4:	f023 02f0 	bic.w	r2, r3, #240	@ 0xf0
 80051e8:	687b      	ldr	r3, [r7, #4]
 80051ea:	689b      	ldr	r3, [r3, #8]
 80051ec:	4936      	ldr	r1, [pc, #216]	@ (80052c8 <HAL_RCC_ClockConfig+0x264>)
 80051ee:	4313      	orrs	r3, r2
 80051f0:	608b      	str	r3, [r1, #8]
 80051f2:	e008      	b.n	8005206 <HAL_RCC_ClockConfig+0x1a2>
 80051f4:	697b      	ldr	r3, [r7, #20]
 80051f6:	2b80      	cmp	r3, #128	@ 0x80
 80051f8:	d105      	bne.n	8005206 <HAL_RCC_ClockConfig+0x1a2>
 80051fa:	4b33      	ldr	r3, [pc, #204]	@ (80052c8 <HAL_RCC_ClockConfig+0x264>)
 80051fc:	689b      	ldr	r3, [r3, #8]
 80051fe:	4a32      	ldr	r2, [pc, #200]	@ (80052c8 <HAL_RCC_ClockConfig+0x264>)
 8005200:	f023 03f0 	bic.w	r3, r3, #240	@ 0xf0
 8005204:	6093      	str	r3, [r2, #8]
 8005206:	4b2f      	ldr	r3, [pc, #188]	@ (80052c4 <HAL_RCC_ClockConfig+0x260>)
 8005208:	681b      	ldr	r3, [r3, #0]
 800520a:	f003 030f 	and.w	r3, r3, #15
 800520e:	683a      	ldr	r2, [r7, #0]
 8005210:	429a      	cmp	r2, r3
 8005212:	d21d      	bcs.n	8005250 <HAL_RCC_ClockConfig+0x1ec>
 8005214:	4b2b      	ldr	r3, [pc, #172]	@ (80052c4 <HAL_RCC_ClockConfig+0x260>)
 8005216:	681b      	ldr	r3, [r3, #0]
 8005218:	f023 020f 	bic.w	r2, r3, #15
 800521c:	4929      	ldr	r1, [pc, #164]	@ (80052c4 <HAL_RCC_ClockConfig+0x260>)
 800521e:	683b      	ldr	r3, [r7, #0]
 8005220:	4313      	orrs	r3, r2
 8005222:	600b      	str	r3, [r1, #0]
 8005224:	f7ff f8ac 	bl	8004380 <HAL_GetTick>
 8005228:	60f8      	str	r0, [r7, #12]
 800522a:	e00a      	b.n	8005242 <HAL_RCC_ClockConfig+0x1de>
 800522c:	f7ff f8a8 	bl	8004380 <HAL_GetTick>
 8005230:	4602      	mov	r2, r0
 8005232:	68fb      	ldr	r3, [r7, #12]
 8005234:	1ad3      	subs	r3, r2, r3
 8005236:	f241 3288 	movw	r2, #5000	@ 0x1388
 800523a:	4293      	cmp	r3, r2
 800523c:	d901      	bls.n	8005242 <HAL_RCC_ClockConfig+0x1de>
 800523e:	2303      	movs	r3, #3
 8005240:	e03b      	b.n	80052ba <HAL_RCC_ClockConfig+0x256>
 8005242:	4b20      	ldr	r3, [pc, #128]	@ (80052c4 <HAL_RCC_ClockConfig+0x260>)
 8005244:	681b      	ldr	r3, [r3, #0]
 8005246:	f003 030f 	and.w	r3, r3, #15
 800524a:	683a      	ldr	r2, [r7, #0]
 800524c:	429a      	cmp	r2, r3
 800524e:	d1ed      	bne.n	800522c <HAL_RCC_ClockConfig+0x1c8>
 8005250:	687b      	ldr	r3, [r7, #4]
 8005252:	681b      	ldr	r3, [r3, #0]
 8005254:	f003 0304 	and.w	r3, r3, #4
 8005258:	2b00      	cmp	r3, #0
 800525a:	d008      	beq.n	800526e <HAL_RCC_ClockConfig+0x20a>
 800525c:	4b1a      	ldr	r3, [pc, #104]	@ (80052c8 <HAL_RCC_ClockConfig+0x264>)
 800525e:	689b      	ldr	r3, [r3, #8]
 8005260:	f423 62e0 	bic.w	r2, r3, #1792	@ 0x700
 8005264:	687b      	ldr	r3, [r7, #4]
 8005266:	68db      	ldr	r3, [r3, #12]
 8005268:	4917      	ldr	r1, [pc, #92]	@ (80052c8 <HAL_RCC_ClockConfig+0x264>)
 800526a:	4313      	orrs	r3, r2
 800526c:	608b      	str	r3, [r1, #8]
 800526e:	687b      	ldr	r3, [r7, #4]
 8005270:	681b      	ldr	r3, [r3, #0]
 8005272:	f003 0308 	and.w	r3, r3, #8
 8005276:	2b00      	cmp	r3, #0
 8005278:	d009      	beq.n	800528e <HAL_RCC_ClockConfig+0x22a>
 800527a:	4b13      	ldr	r3, [pc, #76]	@ (80052c8 <HAL_RCC_ClockConfig+0x264>)
 800527c:	689b      	ldr	r3, [r3, #8]
 800527e:	f423 5260 	bic.w	r2, r3, #14336	@ 0x3800
 8005282:	687b      	ldr	r3, [r7, #4]
 8005284:	691b      	ldr	r3, [r3, #16]
 8005286:	00db      	lsls	r3, r3, #3
 8005288:	490f      	ldr	r1, [pc, #60]	@ (80052c8 <HAL_RCC_ClockConfig+0x264>)
 800528a:	4313      	orrs	r3, r2
 800528c:	608b      	str	r3, [r1, #8]
 800528e:	f000 f825 	bl	80052dc <HAL_RCC_GetSysClockFreq>
 8005292:	4602      	mov	r2, r0
 8005294:	4b0c      	ldr	r3, [pc, #48]	@ (80052c8 <HAL_RCC_ClockConfig+0x264>)
 8005296:	689b      	ldr	r3, [r3, #8]
 8005298:	091b      	lsrs	r3, r3, #4
 800529a:	f003 030f 	and.w	r3, r3, #15
 800529e:	490c      	ldr	r1, [pc, #48]	@ (80052d0 <HAL_RCC_ClockConfig+0x26c>)
 80052a0:	5ccb      	ldrb	r3, [r1, r3]
 80052a2:	f003 031f 	and.w	r3, r3, #31
 80052a6:	fa22 f303 	lsr.w	r3, r2, r3
 80052aa:	4a0a      	ldr	r2, [pc, #40]	@ (80052d4 <HAL_RCC_ClockConfig+0x270>)
 80052ac:	6013      	str	r3, [r2, #0]
 80052ae:	4b0a      	ldr	r3, [pc, #40]	@ (80052d8 <HAL_RCC_ClockConfig+0x274>)
 80052b0:	681b      	ldr	r3, [r3, #0]
 80052b2:	4618      	mov	r0, r3
 80052b4:	f7ff f818 	bl	80042e8 <HAL_InitTick>
 80052b8:	4603      	mov	r3, r0
 80052ba:	4618      	mov	r0, r3
 80052bc:	3718      	adds	r7, #24
 80052be:	46bd      	mov	sp, r7
 80052c0:	bd80      	pop	{r7, pc}
 80052c2:	bf00      	nop
 80052c4:	40022000 	.word	0x40022000
 80052c8:	40021000 	.word	0x40021000
 80052cc:	04c4b400 	.word	0x04c4b400
 80052d0:	08007b74 	.word	0x08007b74
 80052d4:	20000088 	.word	0x20000088
 80052d8:	200000bc 	.word	0x200000bc

080052dc <HAL_RCC_GetSysClockFreq>:
 80052dc:	b480      	push	{r7}
 80052de:	b087      	sub	sp, #28
 80052e0:	af00      	add	r7, sp, #0
 80052e2:	4b2c      	ldr	r3, [pc, #176]	@ (8005394 <HAL_RCC_GetSysClockFreq+0xb8>)
 80052e4:	689b      	ldr	r3, [r3, #8]
 80052e6:	f003 030c 	and.w	r3, r3, #12
 80052ea:	2b04      	cmp	r3, #4
 80052ec:	d102      	bne.n	80052f4 <HAL_RCC_GetSysClockFreq+0x18>
 80052ee:	4b2a      	ldr	r3, [pc, #168]	@ (8005398 <HAL_RCC_GetSysClockFreq+0xbc>)
 80052f0:	613b      	str	r3, [r7, #16]
 80052f2:	e047      	b.n	8005384 <HAL_RCC_GetSysClockFreq+0xa8>
 80052f4:	4b27      	ldr	r3, [pc, #156]	@ (8005394 <HAL_RCC_GetSysClockFreq+0xb8>)
 80052f6:	689b      	ldr	r3, [r3, #8]
 80052f8:	f003 030c 	and.w	r3, r3, #12
 80052fc:	2b08      	cmp	r3, #8
 80052fe:	d102      	bne.n	8005306 <HAL_RCC_GetSysClockFreq+0x2a>
 8005300:	4b26      	ldr	r3, [pc, #152]	@ (800539c <HAL_RCC_GetSysClockFreq+0xc0>)
 8005302:	613b      	str	r3, [r7, #16]
 8005304:	e03e      	b.n	8005384 <HAL_RCC_GetSysClockFreq+0xa8>
 8005306:	4b23      	ldr	r3, [pc, #140]	@ (8005394 <HAL_RCC_GetSysClockFreq+0xb8>)
 8005308:	689b      	ldr	r3, [r3, #8]
 800530a:	f003 030c 	and.w	r3, r3, #12
 800530e:	2b0c      	cmp	r3, #12
 8005310:	d136      	bne.n	8005380 <HAL_RCC_GetSysClockFreq+0xa4>
 8005312:	4b20      	ldr	r3, [pc, #128]	@ (8005394 <HAL_RCC_GetSysClockFreq+0xb8>)
 8005314:	68db      	ldr	r3, [r3, #12]
 8005316:	f003 0303 	and.w	r3, r3, #3
 800531a:	60fb      	str	r3, [r7, #12]
 800531c:	4b1d      	ldr	r3, [pc, #116]	@ (8005394 <HAL_RCC_GetSysClockFreq+0xb8>)
 800531e:	68db      	ldr	r3, [r3, #12]
 8005320:	091b      	lsrs	r3, r3, #4
 8005322:	f003 030f 	and.w	r3, r3, #15
 8005326:	3301      	adds	r3, #1
 8005328:	60bb      	str	r3, [r7, #8]
 800532a:	68fb      	ldr	r3, [r7, #12]
 800532c:	2b03      	cmp	r3, #3
 800532e:	d10c      	bne.n	800534a <HAL_RCC_GetSysClockFreq+0x6e>
 8005330:	4a1a      	ldr	r2, [pc, #104]	@ (800539c <HAL_RCC_GetSysClockFreq+0xc0>)
 8005332:	68bb      	ldr	r3, [r7, #8]
 8005334:	fbb2 f3f3 	udiv	r3, r2, r3
 8005338:	4a16      	ldr	r2, [pc, #88]	@ (8005394 <HAL_RCC_GetSysClockFreq+0xb8>)
 800533a:	68d2      	ldr	r2, [r2, #12]
 800533c:	0a12      	lsrs	r2, r2, #8
 800533e:	f002 027f 	and.w	r2, r2, #127	@ 0x7f
 8005342:	fb02 f303 	mul.w	r3, r2, r3
 8005346:	617b      	str	r3, [r7, #20]
 8005348:	e00c      	b.n	8005364 <HAL_RCC_GetSysClockFreq+0x88>
 800534a:	4a13      	ldr	r2, [pc, #76]	@ (8005398 <HAL_RCC_GetSysClockFreq+0xbc>)
 800534c:	68bb      	ldr	r3, [r7, #8]
 800534e:	fbb2 f3f3 	udiv	r3, r2, r3
 8005352:	4a10      	ldr	r2, [pc, #64]	@ (8005394 <HAL_RCC_GetSysClockFreq+0xb8>)
 8005354:	68d2      	ldr	r2, [r2, #12]
 8005356:	0a12      	lsrs	r2, r2, #8
 8005358:	f002 027f 	and.w	r2, r2, #127	@ 0x7f
 800535c:	fb02 f303 	mul.w	r3, r2, r3
 8005360:	617b      	str	r3, [r7, #20]
 8005362:	bf00      	nop
 8005364:	4b0b      	ldr	r3, [pc, #44]	@ (8005394 <HAL_RCC_GetSysClockFreq+0xb8>)
 8005366:	68db      	ldr	r3, [r3, #12]
 8005368:	0e5b      	lsrs	r3, r3, #25
 800536a:	f003 0303 	and.w	r3, r3, #3
 800536e:	3301      	adds	r3, #1
 8005370:	005b      	lsls	r3, r3, #1
 8005372:	607b      	str	r3, [r7, #4]
 8005374:	697a      	ldr	r2, [r7, #20]
 8005376:	687b      	ldr	r3, [r7, #4]
 8005378:	fbb2 f3f3 	udiv	r3, r2, r3
 800537c:	613b      	str	r3, [r7, #16]
 800537e:	e001      	b.n	8005384 <HAL_RCC_GetSysClockFreq+0xa8>
 8005380:	2300      	movs	r3, #0
 8005382:	613b      	str	r3, [r7, #16]
 8005384:	693b      	ldr	r3, [r7, #16]
 8005386:	4618      	mov	r0, r3
 8005388:	371c      	adds	r7, #28
 800538a:	46bd      	mov	sp, r7
 800538c:	f85d 7b04 	ldr.w	r7, [sp], #4
 8005390:	4770      	bx	lr
 8005392:	bf00      	nop
 8005394:	40021000 	.word	0x40021000
 8005398:	00f42400 	.word	0x00f42400
 800539c:	016e3600 	.word	0x016e3600

080053a0 <HAL_RCC_GetHCLKFreq>:
 80053a0:	b480      	push	{r7}
 80053a2:	af00      	add	r7, sp, #0
 80053a4:	4b03      	ldr	r3, [pc, #12]	@ (80053b4 <HAL_RCC_GetHCLKFreq+0x14>)
 80053a6:	681b      	ldr	r3, [r3, #0]
 80053a8:	4618      	mov	r0, r3
 80053aa:	46bd      	mov	sp, r7
 80053ac:	f85d 7b04 	ldr.w	r7, [sp], #4
 80053b0:	4770      	bx	lr
 80053b2:	bf00      	nop
 80053b4:	20000088 	.word	0x20000088

080053b8 <HAL_RCC_GetPCLK1Freq>:
 80053b8:	b580      	push	{r7, lr}
 80053ba:	af00      	add	r7, sp, #0
 80053bc:	f7ff fff0 	bl	80053a0 <HAL_RCC_GetHCLKFreq>
 80053c0:	4602      	mov	r2, r0
 80053c2:	4b06      	ldr	r3, [pc, #24]	@ (80053dc <HAL_RCC_GetPCLK1Freq+0x24>)
 80053c4:	689b      	ldr	r3, [r3, #8]
 80053c6:	0a1b      	lsrs	r3, r3, #8
 80053c8:	f003 0307 	and.w	r3, r3, #7
 80053cc:	4904      	ldr	r1, [pc, #16]	@ (80053e0 <HAL_RCC_GetPCLK1Freq+0x28>)
 80053ce:	5ccb      	ldrb	r3, [r1, r3]
 80053d0:	f003 031f 	and.w	r3, r3, #31
 80053d4:	fa22 f303 	lsr.w	r3, r2, r3
 80053d8:	4618      	mov	r0, r3
 80053da:	bd80      	pop	{r7, pc}
 80053dc:	40021000 	.word	0x40021000
 80053e0:	08007b84 	.word	0x08007b84

080053e4 <HAL_RCC_GetPCLK2Freq>:
 80053e4:	b580      	push	{r7, lr}
 80053e6:	af00      	add	r7, sp, #0
 80053e8:	f7ff ffda 	bl	80053a0 <HAL_RCC_GetHCLKFreq>
 80053ec:	4602      	mov	r2, r0
 80053ee:	4b06      	ldr	r3, [pc, #24]	@ (8005408 <HAL_RCC_GetPCLK2Freq+0x24>)
 80053f0:	689b      	ldr	r3, [r3, #8]
 80053f2:	0adb      	lsrs	r3, r3, #11
 80053f4:	f003 0307 	and.w	r3, r3, #7
 80053f8:	4904      	ldr	r1, [pc, #16]	@ (800540c <HAL_RCC_GetPCLK2Freq+0x28>)
 80053fa:	5ccb      	ldrb	r3, [r1, r3]
 80053fc:	f003 031f 	and.w	r3, r3, #31
 8005400:	fa22 f303 	lsr.w	r3, r2, r3
 8005404:	4618      	mov	r0, r3
 8005406:	bd80      	pop	{r7, pc}
 8005408:	40021000 	.word	0x40021000
 800540c:	08007b84 	.word	0x08007b84

08005410 <RCC_GetSysClockFreqFromPLLSource>:
 8005410:	b480      	push	{r7}
 8005412:	b087      	sub	sp, #28
 8005414:	af00      	add	r7, sp, #0
 8005416:	4b1e      	ldr	r3, [pc, #120]	@ (8005490 <RCC_GetSysClockFreqFromPLLSource+0x80>)
 8005418:	68db      	ldr	r3, [r3, #12]
 800541a:	f003 0303 	and.w	r3, r3, #3
 800541e:	613b      	str	r3, [r7, #16]
 8005420:	4b1b      	ldr	r3, [pc, #108]	@ (8005490 <RCC_GetSysClockFreqFromPLLSource+0x80>)
 8005422:	68db      	ldr	r3, [r3, #12]
 8005424:	091b      	lsrs	r3, r3, #4
 8005426:	f003 030f 	and.w	r3, r3, #15
 800542a:	3301      	adds	r3, #1
 800542c:	60fb      	str	r3, [r7, #12]
 800542e:	693b      	ldr	r3, [r7, #16]
 8005430:	2b03      	cmp	r3, #3
 8005432:	d10c      	bne.n	800544e <RCC_GetSysClockFreqFromPLLSource+0x3e>
 8005434:	4a17      	ldr	r2, [pc, #92]	@ (8005494 <RCC_GetSysClockFreqFromPLLSource+0x84>)
 8005436:	68fb      	ldr	r3, [r7, #12]
 8005438:	fbb2 f3f3 	udiv	r3, r2, r3
 800543c:	4a14      	ldr	r2, [pc, #80]	@ (8005490 <RCC_GetSysClockFreqFromPLLSource+0x80>)
 800543e:	68d2      	ldr	r2, [r2, #12]
 8005440:	0a12      	lsrs	r2, r2, #8
 8005442:	f002 027f 	and.w	r2, r2, #127	@ 0x7f
 8005446:	fb02 f303 	mul.w	r3, r2, r3
 800544a:	617b      	str	r3, [r7, #20]
 800544c:	e00c      	b.n	8005468 <RCC_GetSysClockFreqFromPLLSource+0x58>
 800544e:	4a12      	ldr	r2, [pc, #72]	@ (8005498 <RCC_GetSysClockFreqFromPLLSource+0x88>)
 8005450:	68fb      	ldr	r3, [r7, #12]
 8005452:	fbb2 f3f3 	udiv	r3, r2, r3
 8005456:	4a0e      	ldr	r2, [pc, #56]	@ (8005490 <RCC_GetSysClockFreqFromPLLSource+0x80>)
 8005458:	68d2      	ldr	r2, [r2, #12]
 800545a:	0a12      	lsrs	r2, r2, #8
 800545c:	f002 027f 	and.w	r2, r2, #127	@ 0x7f
 8005460:	fb02 f303 	mul.w	r3, r2, r3
 8005464:	617b      	str	r3, [r7, #20]
 8005466:	bf00      	nop
 8005468:	4b09      	ldr	r3, [pc, #36]	@ (8005490 <RCC_GetSysClockFreqFromPLLSource+0x80>)
 800546a:	68db      	ldr	r3, [r3, #12]
 800546c:	0e5b      	lsrs	r3, r3, #25
 800546e:	f003 0303 	and.w	r3, r3, #3
 8005472:	3301      	adds	r3, #1
 8005474:	005b      	lsls	r3, r3, #1
 8005476:	60bb      	str	r3, [r7, #8]
 8005478:	697a      	ldr	r2, [r7, #20]
 800547a:	68bb      	ldr	r3, [r7, #8]
 800547c:	fbb2 f3f3 	udiv	r3, r2, r3
 8005480:	607b      	str	r3, [r7, #4]
 8005482:	687b      	ldr	r3, [r7, #4]
 8005484:	4618      	mov	r0, r3
 8005486:	371c      	adds	r7, #28
 8005488:	46bd      	mov	sp, r7
 800548a:	f85d 7b04 	ldr.w	r7, [sp], #4
 800548e:	4770      	bx	lr
 8005490:	40021000 	.word	0x40021000
 8005494:	016e3600 	.word	0x016e3600
 8005498:	00f42400 	.word	0x00f42400

0800549c <HAL_RCCEx_PeriphCLKConfig>:
 800549c:	b580      	push	{r7, lr}
 800549e:	b086      	sub	sp, #24
 80054a0:	af00      	add	r7, sp, #0
 80054a2:	6078      	str	r0, [r7, #4]
 80054a4:	2300      	movs	r3, #0
 80054a6:	74fb      	strb	r3, [r7, #19]
 80054a8:	2300      	movs	r3, #0
 80054aa:	74bb      	strb	r3, [r7, #18]
 80054ac:	687b      	ldr	r3, [r7, #4]
 80054ae:	681b      	ldr	r3, [r3, #0]
 80054b0:	f403 2300 	and.w	r3, r3, #524288	@ 0x80000
 80054b4:	2b00      	cmp	r3, #0
 80054b6:	f000 8098 	beq.w	80055ea <HAL_RCCEx_PeriphCLKConfig+0x14e>
 80054ba:	2300      	movs	r3, #0
 80054bc:	747b      	strb	r3, [r7, #17]
 80054be:	4b43      	ldr	r3, [pc, #268]	@ (80055cc <HAL_RCCEx_PeriphCLKConfig+0x130>)
 80054c0:	6d9b      	ldr	r3, [r3, #88]	@ 0x58
 80054c2:	f003 5380 	and.w	r3, r3, #268435456	@ 0x10000000
 80054c6:	2b00      	cmp	r3, #0
 80054c8:	d10d      	bne.n	80054e6 <HAL_RCCEx_PeriphCLKConfig+0x4a>
 80054ca:	4b40      	ldr	r3, [pc, #256]	@ (80055cc <HAL_RCCEx_PeriphCLKConfig+0x130>)
 80054cc:	6d9b      	ldr	r3, [r3, #88]	@ 0x58
 80054ce:	4a3f      	ldr	r2, [pc, #252]	@ (80055cc <HAL_RCCEx_PeriphCLKConfig+0x130>)
 80054d0:	f043 5380 	orr.w	r3, r3, #268435456	@ 0x10000000
 80054d4:	6593      	str	r3, [r2, #88]	@ 0x58
 80054d6:	4b3d      	ldr	r3, [pc, #244]	@ (80055cc <HAL_RCCEx_PeriphCLKConfig+0x130>)
 80054d8:	6d9b      	ldr	r3, [r3, #88]	@ 0x58
 80054da:	f003 5380 	and.w	r3, r3, #268435456	@ 0x10000000
 80054de:	60bb      	str	r3, [r7, #8]
 80054e0:	68bb      	ldr	r3, [r7, #8]
 80054e2:	2301      	movs	r3, #1
 80054e4:	747b      	strb	r3, [r7, #17]
 80054e6:	4b3a      	ldr	r3, [pc, #232]	@ (80055d0 <HAL_RCCEx_PeriphCLKConfig+0x134>)
 80054e8:	681b      	ldr	r3, [r3, #0]
 80054ea:	4a39      	ldr	r2, [pc, #228]	@ (80055d0 <HAL_RCCEx_PeriphCLKConfig+0x134>)
 80054ec:	f443 7380 	orr.w	r3, r3, #256	@ 0x100
 80054f0:	6013      	str	r3, [r2, #0]
 80054f2:	f7fe ff45 	bl	8004380 <HAL_GetTick>
 80054f6:	60f8      	str	r0, [r7, #12]
 80054f8:	e009      	b.n	800550e <HAL_RCCEx_PeriphCLKConfig+0x72>
 80054fa:	f7fe ff41 	bl	8004380 <HAL_GetTick>
 80054fe:	4602      	mov	r2, r0
 8005500:	68fb      	ldr	r3, [r7, #12]
 8005502:	1ad3      	subs	r3, r2, r3
 8005504:	2b02      	cmp	r3, #2
 8005506:	d902      	bls.n	800550e <HAL_RCCEx_PeriphCLKConfig+0x72>
 8005508:	2303      	movs	r3, #3
 800550a:	74fb      	strb	r3, [r7, #19]
 800550c:	e005      	b.n	800551a <HAL_RCCEx_PeriphCLKConfig+0x7e>
 800550e:	4b30      	ldr	r3, [pc, #192]	@ (80055d0 <HAL_RCCEx_PeriphCLKConfig+0x134>)
 8005510:	681b      	ldr	r3, [r3, #0]
 8005512:	f403 7380 	and.w	r3, r3, #256	@ 0x100
 8005516:	2b00      	cmp	r3, #0
 8005518:	d0ef      	beq.n	80054fa <HAL_RCCEx_PeriphCLKConfig+0x5e>
 800551a:	7cfb      	ldrb	r3, [r7, #19]
 800551c:	2b00      	cmp	r3, #0
 800551e:	d159      	bne.n	80055d4 <HAL_RCCEx_PeriphCLKConfig+0x138>
 8005520:	4b2a      	ldr	r3, [pc, #168]	@ (80055cc <HAL_RCCEx_PeriphCLKConfig+0x130>)
 8005522:	f8d3 3090 	ldr.w	r3, [r3, #144]	@ 0x90
 8005526:	f403 7340 	and.w	r3, r3, #768	@ 0x300
 800552a:	617b      	str	r3, [r7, #20]
 800552c:	697b      	ldr	r3, [r7, #20]
 800552e:	2b00      	cmp	r3, #0
 8005530:	d01e      	beq.n	8005570 <HAL_RCCEx_PeriphCLKConfig+0xd4>
 8005532:	687b      	ldr	r3, [r7, #4]
 8005534:	6d1b      	ldr	r3, [r3, #80]	@ 0x50
 8005536:	697a      	ldr	r2, [r7, #20]
 8005538:	429a      	cmp	r2, r3
 800553a:	d019      	beq.n	8005570 <HAL_RCCEx_PeriphCLKConfig+0xd4>
 800553c:	4b23      	ldr	r3, [pc, #140]	@ (80055cc <HAL_RCCEx_PeriphCLKConfig+0x130>)
 800553e:	f8d3 3090 	ldr.w	r3, [r3, #144]	@ 0x90
 8005542:	f423 7340 	bic.w	r3, r3, #768	@ 0x300
 8005546:	617b      	str	r3, [r7, #20]
 8005548:	4b20      	ldr	r3, [pc, #128]	@ (80055cc <HAL_RCCEx_PeriphCLKConfig+0x130>)
 800554a:	f8d3 3090 	ldr.w	r3, [r3, #144]	@ 0x90
 800554e:	4a1f      	ldr	r2, [pc, #124]	@ (80055cc <HAL_RCCEx_PeriphCLKConfig+0x130>)
 8005550:	f443 3380 	orr.w	r3, r3, #65536	@ 0x10000
 8005554:	f8c2 3090 	str.w	r3, [r2, #144]	@ 0x90
 8005558:	4b1c      	ldr	r3, [pc, #112]	@ (80055cc <HAL_RCCEx_PeriphCLKConfig+0x130>)
 800555a:	f8d3 3090 	ldr.w	r3, [r3, #144]	@ 0x90
 800555e:	4a1b      	ldr	r2, [pc, #108]	@ (80055cc <HAL_RCCEx_PeriphCLKConfig+0x130>)
 8005560:	f423 3380 	bic.w	r3, r3, #65536	@ 0x10000
 8005564:	f8c2 3090 	str.w	r3, [r2, #144]	@ 0x90
 8005568:	4a18      	ldr	r2, [pc, #96]	@ (80055cc <HAL_RCCEx_PeriphCLKConfig+0x130>)
 800556a:	697b      	ldr	r3, [r7, #20]
 800556c:	f8c2 3090 	str.w	r3, [r2, #144]	@ 0x90
 8005570:	697b      	ldr	r3, [r7, #20]
 8005572:	f003 0301 	and.w	r3, r3, #1
 8005576:	2b00      	cmp	r3, #0
 8005578:	d016      	beq.n	80055a8 <HAL_RCCEx_PeriphCLKConfig+0x10c>
 800557a:	f7fe ff01 	bl	8004380 <HAL_GetTick>
 800557e:	60f8      	str	r0, [r7, #12]
 8005580:	e00b      	b.n	800559a <HAL_RCCEx_PeriphCLKConfig+0xfe>
 8005582:	f7fe fefd 	bl	8004380 <HAL_GetTick>
 8005586:	4602      	mov	r2, r0
 8005588:	68fb      	ldr	r3, [r7, #12]
 800558a:	1ad3      	subs	r3, r2, r3
 800558c:	f241 3288 	movw	r2, #5000	@ 0x1388
 8005590:	4293      	cmp	r3, r2
 8005592:	d902      	bls.n	800559a <HAL_RCCEx_PeriphCLKConfig+0xfe>
 8005594:	2303      	movs	r3, #3
 8005596:	74fb      	strb	r3, [r7, #19]
 8005598:	e006      	b.n	80055a8 <HAL_RCCEx_PeriphCLKConfig+0x10c>
 800559a:	4b0c      	ldr	r3, [pc, #48]	@ (80055cc <HAL_RCCEx_PeriphCLKConfig+0x130>)
 800559c:	f8d3 3090 	ldr.w	r3, [r3, #144]	@ 0x90
 80055a0:	f003 0302 	and.w	r3, r3, #2
 80055a4:	2b00      	cmp	r3, #0
 80055a6:	d0ec      	beq.n	8005582 <HAL_RCCEx_PeriphCLKConfig+0xe6>
 80055a8:	7cfb      	ldrb	r3, [r7, #19]
 80055aa:	2b00      	cmp	r3, #0
 80055ac:	d10b      	bne.n	80055c6 <HAL_RCCEx_PeriphCLKConfig+0x12a>
 80055ae:	4b07      	ldr	r3, [pc, #28]	@ (80055cc <HAL_RCCEx_PeriphCLKConfig+0x130>)
 80055b0:	f8d3 3090 	ldr.w	r3, [r3, #144]	@ 0x90
 80055b4:	f423 7240 	bic.w	r2, r3, #768	@ 0x300
 80055b8:	687b      	ldr	r3, [r7, #4]
 80055ba:	6d1b      	ldr	r3, [r3, #80]	@ 0x50
 80055bc:	4903      	ldr	r1, [pc, #12]	@ (80055cc <HAL_RCCEx_PeriphCLKConfig+0x130>)
 80055be:	4313      	orrs	r3, r2
 80055c0:	f8c1 3090 	str.w	r3, [r1, #144]	@ 0x90
 80055c4:	e008      	b.n	80055d8 <HAL_RCCEx_PeriphCLKConfig+0x13c>
 80055c6:	7cfb      	ldrb	r3, [r7, #19]
 80055c8:	74bb      	strb	r3, [r7, #18]
 80055ca:	e005      	b.n	80055d8 <HAL_RCCEx_PeriphCLKConfig+0x13c>
 80055cc:	40021000 	.word	0x40021000
 80055d0:	40007000 	.word	0x40007000
 80055d4:	7cfb      	ldrb	r3, [r7, #19]
 80055d6:	74bb      	strb	r3, [r7, #18]
 80055d8:	7c7b      	ldrb	r3, [r7, #17]
 80055da:	2b01      	cmp	r3, #1
 80055dc:	d105      	bne.n	80055ea <HAL_RCCEx_PeriphCLKConfig+0x14e>
 80055de:	4ba7      	ldr	r3, [pc, #668]	@ (800587c <HAL_RCCEx_PeriphCLKConfig+0x3e0>)
 80055e0:	6d9b      	ldr	r3, [r3, #88]	@ 0x58
 80055e2:	4aa6      	ldr	r2, [pc, #664]	@ (800587c <HAL_RCCEx_PeriphCLKConfig+0x3e0>)
 80055e4:	f023 5380 	bic.w	r3, r3, #268435456	@ 0x10000000
 80055e8:	6593      	str	r3, [r2, #88]	@ 0x58
 80055ea:	687b      	ldr	r3, [r7, #4]
 80055ec:	681b      	ldr	r3, [r3, #0]
 80055ee:	f003 0301 	and.w	r3, r3, #1
 80055f2:	2b00      	cmp	r3, #0
 80055f4:	d00a      	beq.n	800560c <HAL_RCCEx_PeriphCLKConfig+0x170>
 80055f6:	4ba1      	ldr	r3, [pc, #644]	@ (800587c <HAL_RCCEx_PeriphCLKConfig+0x3e0>)
 80055f8:	f8d3 3088 	ldr.w	r3, [r3, #136]	@ 0x88
 80055fc:	f023 0203 	bic.w	r2, r3, #3
 8005600:	687b      	ldr	r3, [r7, #4]
 8005602:	685b      	ldr	r3, [r3, #4]
 8005604:	499d      	ldr	r1, [pc, #628]	@ (800587c <HAL_RCCEx_PeriphCLKConfig+0x3e0>)
 8005606:	4313      	orrs	r3, r2
 8005608:	f8c1 3088 	str.w	r3, [r1, #136]	@ 0x88
 800560c:	687b      	ldr	r3, [r7, #4]
 800560e:	681b      	ldr	r3, [r3, #0]
 8005610:	f003 0302 	and.w	r3, r3, #2
 8005614:	2b00      	cmp	r3, #0
 8005616:	d00a      	beq.n	800562e <HAL_RCCEx_PeriphCLKConfig+0x192>
 8005618:	4b98      	ldr	r3, [pc, #608]	@ (800587c <HAL_RCCEx_PeriphCLKConfig+0x3e0>)
 800561a:	f8d3 3088 	ldr.w	r3, [r3, #136]	@ 0x88
 800561e:	f023 020c 	bic.w	r2, r3, #12
 8005622:	687b      	ldr	r3, [r7, #4]
 8005624:	689b      	ldr	r3, [r3, #8]
 8005626:	4995      	ldr	r1, [pc, #596]	@ (800587c <HAL_RCCEx_PeriphCLKConfig+0x3e0>)
 8005628:	4313      	orrs	r3, r2
 800562a:	f8c1 3088 	str.w	r3, [r1, #136]	@ 0x88
 800562e:	687b      	ldr	r3, [r7, #4]
 8005630:	681b      	ldr	r3, [r3, #0]
 8005632:	f003 0304 	and.w	r3, r3, #4
 8005636:	2b00      	cmp	r3, #0
 8005638:	d00a      	beq.n	8005650 <HAL_RCCEx_PeriphCLKConfig+0x1b4>
 800563a:	4b90      	ldr	r3, [pc, #576]	@ (800587c <HAL_RCCEx_PeriphCLKConfig+0x3e0>)
 800563c:	f8d3 3088 	ldr.w	r3, [r3, #136]	@ 0x88
 8005640:	f023 0230 	bic.w	r2, r3, #48	@ 0x30
 8005644:	687b      	ldr	r3, [r7, #4]
 8005646:	68db      	ldr	r3, [r3, #12]
 8005648:	498c      	ldr	r1, [pc, #560]	@ (800587c <HAL_RCCEx_PeriphCLKConfig+0x3e0>)
 800564a:	4313      	orrs	r3, r2
 800564c:	f8c1 3088 	str.w	r3, [r1, #136]	@ 0x88
 8005650:	687b      	ldr	r3, [r7, #4]
 8005652:	681b      	ldr	r3, [r3, #0]
 8005654:	f003 0308 	and.w	r3, r3, #8
 8005658:	2b00      	cmp	r3, #0
 800565a:	d00a      	beq.n	8005672 <HAL_RCCEx_PeriphCLKConfig+0x1d6>
 800565c:	4b87      	ldr	r3, [pc, #540]	@ (800587c <HAL_RCCEx_PeriphCLKConfig+0x3e0>)
 800565e:	f8d3 3088 	ldr.w	r3, [r3, #136]	@ 0x88
 8005662:	f023 02c0 	bic.w	r2, r3, #192	@ 0xc0
 8005666:	687b      	ldr	r3, [r7, #4]
 8005668:	691b      	ldr	r3, [r3, #16]
 800566a:	4984      	ldr	r1, [pc, #528]	@ (800587c <HAL_RCCEx_PeriphCLKConfig+0x3e0>)
 800566c:	4313      	orrs	r3, r2
 800566e:	f8c1 3088 	str.w	r3, [r1, #136]	@ 0x88
 8005672:	687b      	ldr	r3, [r7, #4]
 8005674:	681b      	ldr	r3, [r3, #0]
 8005676:	f003 0310 	and.w	r3, r3, #16
 800567a:	2b00      	cmp	r3, #0
 800567c:	d00a      	beq.n	8005694 <HAL_RCCEx_PeriphCLKConfig+0x1f8>
 800567e:	4b7f      	ldr	r3, [pc, #508]	@ (800587c <HAL_RCCEx_PeriphCLKConfig+0x3e0>)
 8005680:	f8d3 3088 	ldr.w	r3, [r3, #136]	@ 0x88
 8005684:	f423 7240 	bic.w	r2, r3, #768	@ 0x300
 8005688:	687b      	ldr	r3, [r7, #4]
 800568a:	695b      	ldr	r3, [r3, #20]
 800568c:	497b      	ldr	r1, [pc, #492]	@ (800587c <HAL_RCCEx_PeriphCLKConfig+0x3e0>)
 800568e:	4313      	orrs	r3, r2
 8005690:	f8c1 3088 	str.w	r3, [r1, #136]	@ 0x88
 8005694:	687b      	ldr	r3, [r7, #4]
 8005696:	681b      	ldr	r3, [r3, #0]
 8005698:	f003 0320 	and.w	r3, r3, #32
 800569c:	2b00      	cmp	r3, #0
 800569e:	d00a      	beq.n	80056b6 <HAL_RCCEx_PeriphCLKConfig+0x21a>
 80056a0:	4b76      	ldr	r3, [pc, #472]	@ (800587c <HAL_RCCEx_PeriphCLKConfig+0x3e0>)
 80056a2:	f8d3 3088 	ldr.w	r3, [r3, #136]	@ 0x88
 80056a6:	f423 6240 	bic.w	r2, r3, #3072	@ 0xc00
 80056aa:	687b      	ldr	r3, [r7, #4]
 80056ac:	699b      	ldr	r3, [r3, #24]
 80056ae:	4973      	ldr	r1, [pc, #460]	@ (800587c <HAL_RCCEx_PeriphCLKConfig+0x3e0>)
 80056b0:	4313      	orrs	r3, r2
 80056b2:	f8c1 3088 	str.w	r3, [r1, #136]	@ 0x88
 80056b6:	687b      	ldr	r3, [r7, #4]
 80056b8:	681b      	ldr	r3, [r3, #0]
 80056ba:	f003 0340 	and.w	r3, r3, #64	@ 0x40
 80056be:	2b00      	cmp	r3, #0
 80056c0:	d00a      	beq.n	80056d8 <HAL_RCCEx_PeriphCLKConfig+0x23c>
 80056c2:	4b6e      	ldr	r3, [pc, #440]	@ (800587c <HAL_RCCEx_PeriphCLKConfig+0x3e0>)
 80056c4:	f8d3 3088 	ldr.w	r3, [r3, #136]	@ 0x88
 80056c8:	f423 5240 	bic.w	r2, r3, #12288	@ 0x3000
 80056cc:	687b      	ldr	r3, [r7, #4]
 80056ce:	69db      	ldr	r3, [r3, #28]
 80056d0:	496a      	ldr	r1, [pc, #424]	@ (800587c <HAL_RCCEx_PeriphCLKConfig+0x3e0>)
 80056d2:	4313      	orrs	r3, r2
 80056d4:	f8c1 3088 	str.w	r3, [r1, #136]	@ 0x88
 80056d8:	687b      	ldr	r3, [r7, #4]
 80056da:	681b      	ldr	r3, [r3, #0]
 80056dc:	f003 0380 	and.w	r3, r3, #128	@ 0x80
 80056e0:	2b00      	cmp	r3, #0
 80056e2:	d00a      	beq.n	80056fa <HAL_RCCEx_PeriphCLKConfig+0x25e>
 80056e4:	4b65      	ldr	r3, [pc, #404]	@ (800587c <HAL_RCCEx_PeriphCLKConfig+0x3e0>)
 80056e6:	f8d3 3088 	ldr.w	r3, [r3, #136]	@ 0x88
 80056ea:	f423 4240 	bic.w	r2, r3, #49152	@ 0xc000
 80056ee:	687b      	ldr	r3, [r7, #4]
 80056f0:	6a1b      	ldr	r3, [r3, #32]
 80056f2:	4962      	ldr	r1, [pc, #392]	@ (800587c <HAL_RCCEx_PeriphCLKConfig+0x3e0>)
 80056f4:	4313      	orrs	r3, r2
 80056f6:	f8c1 3088 	str.w	r3, [r1, #136]	@ 0x88
 80056fa:	687b      	ldr	r3, [r7, #4]
 80056fc:	681b      	ldr	r3, [r3, #0]
 80056fe:	f403 7380 	and.w	r3, r3, #256	@ 0x100
 8005702:	2b00      	cmp	r3, #0
 8005704:	d00a      	beq.n	800571c <HAL_RCCEx_PeriphCLKConfig+0x280>
 8005706:	4b5d      	ldr	r3, [pc, #372]	@ (800587c <HAL_RCCEx_PeriphCLKConfig+0x3e0>)
 8005708:	f8d3 3088 	ldr.w	r3, [r3, #136]	@ 0x88
 800570c:	f423 3240 	bic.w	r2, r3, #196608	@ 0x30000
 8005710:	687b      	ldr	r3, [r7, #4]
 8005712:	6a5b      	ldr	r3, [r3, #36]	@ 0x24
 8005714:	4959      	ldr	r1, [pc, #356]	@ (800587c <HAL_RCCEx_PeriphCLKConfig+0x3e0>)
 8005716:	4313      	orrs	r3, r2
 8005718:	f8c1 3088 	str.w	r3, [r1, #136]	@ 0x88
 800571c:	687b      	ldr	r3, [r7, #4]
 800571e:	681b      	ldr	r3, [r3, #0]
 8005720:	f403 3300 	and.w	r3, r3, #131072	@ 0x20000
 8005724:	2b00      	cmp	r3, #0
 8005726:	d00a      	beq.n	800573e <HAL_RCCEx_PeriphCLKConfig+0x2a2>
 8005728:	4b54      	ldr	r3, [pc, #336]	@ (800587c <HAL_RCCEx_PeriphCLKConfig+0x3e0>)
 800572a:	f8d3 309c 	ldr.w	r3, [r3, #156]	@ 0x9c
 800572e:	f023 0203 	bic.w	r2, r3, #3
 8005732:	687b      	ldr	r3, [r7, #4]
 8005734:	6a9b      	ldr	r3, [r3, #40]	@ 0x28
 8005736:	4951      	ldr	r1, [pc, #324]	@ (800587c <HAL_RCCEx_PeriphCLKConfig+0x3e0>)
 8005738:	4313      	orrs	r3, r2
 800573a:	f8c1 309c 	str.w	r3, [r1, #156]	@ 0x9c
 800573e:	687b      	ldr	r3, [r7, #4]
 8005740:	681b      	ldr	r3, [r3, #0]
 8005742:	f403 7300 	and.w	r3, r3, #512	@ 0x200
 8005746:	2b00      	cmp	r3, #0
 8005748:	d00a      	beq.n	8005760 <HAL_RCCEx_PeriphCLKConfig+0x2c4>
 800574a:	4b4c      	ldr	r3, [pc, #304]	@ (800587c <HAL_RCCEx_PeriphCLKConfig+0x3e0>)
 800574c:	f8d3 3088 	ldr.w	r3, [r3, #136]	@ 0x88
 8005750:	f423 2240 	bic.w	r2, r3, #786432	@ 0xc0000
 8005754:	687b      	ldr	r3, [r7, #4]
 8005756:	6adb      	ldr	r3, [r3, #44]	@ 0x2c
 8005758:	4948      	ldr	r1, [pc, #288]	@ (800587c <HAL_RCCEx_PeriphCLKConfig+0x3e0>)
 800575a:	4313      	orrs	r3, r2
 800575c:	f8c1 3088 	str.w	r3, [r1, #136]	@ 0x88
 8005760:	687b      	ldr	r3, [r7, #4]
 8005762:	681b      	ldr	r3, [r3, #0]
 8005764:	f403 6380 	and.w	r3, r3, #1024	@ 0x400
 8005768:	2b00      	cmp	r3, #0
 800576a:	d015      	beq.n	8005798 <HAL_RCCEx_PeriphCLKConfig+0x2fc>
 800576c:	4b43      	ldr	r3, [pc, #268]	@ (800587c <HAL_RCCEx_PeriphCLKConfig+0x3e0>)
 800576e:	f8d3 3088 	ldr.w	r3, [r3, #136]	@ 0x88
 8005772:	f423 1240 	bic.w	r2, r3, #3145728	@ 0x300000
 8005776:	687b      	ldr	r3, [r7, #4]
 8005778:	6b1b      	ldr	r3, [r3, #48]	@ 0x30
 800577a:	4940      	ldr	r1, [pc, #256]	@ (800587c <HAL_RCCEx_PeriphCLKConfig+0x3e0>)
 800577c:	4313      	orrs	r3, r2
 800577e:	f8c1 3088 	str.w	r3, [r1, #136]	@ 0x88
 8005782:	687b      	ldr	r3, [r7, #4]
 8005784:	6b1b      	ldr	r3, [r3, #48]	@ 0x30
 8005786:	f5b3 1f80 	cmp.w	r3, #1048576	@ 0x100000
 800578a:	d105      	bne.n	8005798 <HAL_RCCEx_PeriphCLKConfig+0x2fc>
 800578c:	4b3b      	ldr	r3, [pc, #236]	@ (800587c <HAL_RCCEx_PeriphCLKConfig+0x3e0>)
 800578e:	68db      	ldr	r3, [r3, #12]
 8005790:	4a3a      	ldr	r2, [pc, #232]	@ (800587c <HAL_RCCEx_PeriphCLKConfig+0x3e0>)
 8005792:	f443 1380 	orr.w	r3, r3, #1048576	@ 0x100000
 8005796:	60d3      	str	r3, [r2, #12]
 8005798:	687b      	ldr	r3, [r7, #4]
 800579a:	681b      	ldr	r3, [r3, #0]
 800579c:	f403 6300 	and.w	r3, r3, #2048	@ 0x800
 80057a0:	2b00      	cmp	r3, #0
 80057a2:	d015      	beq.n	80057d0 <HAL_RCCEx_PeriphCLKConfig+0x334>
 80057a4:	4b35      	ldr	r3, [pc, #212]	@ (800587c <HAL_RCCEx_PeriphCLKConfig+0x3e0>)
 80057a6:	f8d3 3088 	ldr.w	r3, [r3, #136]	@ 0x88
 80057aa:	f423 0240 	bic.w	r2, r3, #12582912	@ 0xc00000
 80057ae:	687b      	ldr	r3, [r7, #4]
 80057b0:	6b5b      	ldr	r3, [r3, #52]	@ 0x34
 80057b2:	4932      	ldr	r1, [pc, #200]	@ (800587c <HAL_RCCEx_PeriphCLKConfig+0x3e0>)
 80057b4:	4313      	orrs	r3, r2
 80057b6:	f8c1 3088 	str.w	r3, [r1, #136]	@ 0x88
 80057ba:	687b      	ldr	r3, [r7, #4]
 80057bc:	6b5b      	ldr	r3, [r3, #52]	@ 0x34
 80057be:	f5b3 0f80 	cmp.w	r3, #4194304	@ 0x400000
 80057c2:	d105      	bne.n	80057d0 <HAL_RCCEx_PeriphCLKConfig+0x334>
 80057c4:	4b2d      	ldr	r3, [pc, #180]	@ (800587c <HAL_RCCEx_PeriphCLKConfig+0x3e0>)
 80057c6:	68db      	ldr	r3, [r3, #12]
 80057c8:	4a2c      	ldr	r2, [pc, #176]	@ (800587c <HAL_RCCEx_PeriphCLKConfig+0x3e0>)
 80057ca:	f443 1380 	orr.w	r3, r3, #1048576	@ 0x100000
 80057ce:	60d3      	str	r3, [r2, #12]
 80057d0:	687b      	ldr	r3, [r7, #4]
 80057d2:	681b      	ldr	r3, [r3, #0]
 80057d4:	f403 5380 	and.w	r3, r3, #4096	@ 0x1000
 80057d8:	2b00      	cmp	r3, #0
 80057da:	d015      	beq.n	8005808 <HAL_RCCEx_PeriphCLKConfig+0x36c>
 80057dc:	4b27      	ldr	r3, [pc, #156]	@ (800587c <HAL_RCCEx_PeriphCLKConfig+0x3e0>)
 80057de:	f8d3 3088 	ldr.w	r3, [r3, #136]	@ 0x88
 80057e2:	f023 7240 	bic.w	r2, r3, #50331648	@ 0x3000000
 80057e6:	687b      	ldr	r3, [r7, #4]
 80057e8:	6b9b      	ldr	r3, [r3, #56]	@ 0x38
 80057ea:	4924      	ldr	r1, [pc, #144]	@ (800587c <HAL_RCCEx_PeriphCLKConfig+0x3e0>)
 80057ec:	4313      	orrs	r3, r2
 80057ee:	f8c1 3088 	str.w	r3, [r1, #136]	@ 0x88
 80057f2:	687b      	ldr	r3, [r7, #4]
 80057f4:	6b9b      	ldr	r3, [r3, #56]	@ 0x38
 80057f6:	f1b3 7f80 	cmp.w	r3, #16777216	@ 0x1000000
 80057fa:	d105      	bne.n	8005808 <HAL_RCCEx_PeriphCLKConfig+0x36c>
 80057fc:	4b1f      	ldr	r3, [pc, #124]	@ (800587c <HAL_RCCEx_PeriphCLKConfig+0x3e0>)
 80057fe:	68db      	ldr	r3, [r3, #12]
 8005800:	4a1e      	ldr	r2, [pc, #120]	@ (800587c <HAL_RCCEx_PeriphCLKConfig+0x3e0>)
 8005802:	f443 1380 	orr.w	r3, r3, #1048576	@ 0x100000
 8005806:	60d3      	str	r3, [r2, #12]
 8005808:	687b      	ldr	r3, [r7, #4]
 800580a:	681b      	ldr	r3, [r3, #0]
 800580c:	f403 5300 	and.w	r3, r3, #8192	@ 0x2000
 8005810:	2b00      	cmp	r3, #0
 8005812:	d015      	beq.n	8005840 <HAL_RCCEx_PeriphCLKConfig+0x3a4>
 8005814:	4b19      	ldr	r3, [pc, #100]	@ (800587c <HAL_RCCEx_PeriphCLKConfig+0x3e0>)
 8005816:	f8d3 3088 	ldr.w	r3, [r3, #136]	@ 0x88
 800581a:	f023 6240 	bic.w	r2, r3, #201326592	@ 0xc000000
 800581e:	687b      	ldr	r3, [r7, #4]
 8005820:	6bdb      	ldr	r3, [r3, #60]	@ 0x3c
 8005822:	4916      	ldr	r1, [pc, #88]	@ (800587c <HAL_RCCEx_PeriphCLKConfig+0x3e0>)
 8005824:	4313      	orrs	r3, r2
 8005826:	f8c1 3088 	str.w	r3, [r1, #136]	@ 0x88
 800582a:	687b      	ldr	r3, [r7, #4]
 800582c:	6bdb      	ldr	r3, [r3, #60]	@ 0x3c
 800582e:	f1b3 6f00 	cmp.w	r3, #134217728	@ 0x8000000
 8005832:	d105      	bne.n	8005840 <HAL_RCCEx_PeriphCLKConfig+0x3a4>
 8005834:	4b11      	ldr	r3, [pc, #68]	@ (800587c <HAL_RCCEx_PeriphCLKConfig+0x3e0>)
 8005836:	68db      	ldr	r3, [r3, #12]
 8005838:	4a10      	ldr	r2, [pc, #64]	@ (800587c <HAL_RCCEx_PeriphCLKConfig+0x3e0>)
 800583a:	f443 1380 	orr.w	r3, r3, #1048576	@ 0x100000
 800583e:	60d3      	str	r3, [r2, #12]
 8005840:	687b      	ldr	r3, [r7, #4]
 8005842:	681b      	ldr	r3, [r3, #0]
 8005844:	f403 4380 	and.w	r3, r3, #16384	@ 0x4000
 8005848:	2b00      	cmp	r3, #0
 800584a:	d019      	beq.n	8005880 <HAL_RCCEx_PeriphCLKConfig+0x3e4>
 800584c:	4b0b      	ldr	r3, [pc, #44]	@ (800587c <HAL_RCCEx_PeriphCLKConfig+0x3e0>)
 800584e:	f8d3 3088 	ldr.w	r3, [r3, #136]	@ 0x88
 8005852:	f023 6240 	bic.w	r2, r3, #201326592	@ 0xc000000
 8005856:	687b      	ldr	r3, [r7, #4]
 8005858:	6c1b      	ldr	r3, [r3, #64]	@ 0x40
 800585a:	4908      	ldr	r1, [pc, #32]	@ (800587c <HAL_RCCEx_PeriphCLKConfig+0x3e0>)
 800585c:	4313      	orrs	r3, r2
 800585e:	f8c1 3088 	str.w	r3, [r1, #136]	@ 0x88
 8005862:	687b      	ldr	r3, [r7, #4]
 8005864:	6c1b      	ldr	r3, [r3, #64]	@ 0x40
 8005866:	f1b3 6f00 	cmp.w	r3, #134217728	@ 0x8000000
 800586a:	d109      	bne.n	8005880 <HAL_RCCEx_PeriphCLKConfig+0x3e4>
 800586c:	4b03      	ldr	r3, [pc, #12]	@ (800587c <HAL_RCCEx_PeriphCLKConfig+0x3e0>)
 800586e:	68db      	ldr	r3, [r3, #12]
 8005870:	4a02      	ldr	r2, [pc, #8]	@ (800587c <HAL_RCCEx_PeriphCLKConfig+0x3e0>)
 8005872:	f443 1380 	orr.w	r3, r3, #1048576	@ 0x100000
 8005876:	60d3      	str	r3, [r2, #12]
 8005878:	e002      	b.n	8005880 <HAL_RCCEx_PeriphCLKConfig+0x3e4>
 800587a:	bf00      	nop
 800587c:	40021000 	.word	0x40021000
 8005880:	687b      	ldr	r3, [r7, #4]
 8005882:	681b      	ldr	r3, [r3, #0]
 8005884:	f403 4300 	and.w	r3, r3, #32768	@ 0x8000
 8005888:	2b00      	cmp	r3, #0
 800588a:	d015      	beq.n	80058b8 <HAL_RCCEx_PeriphCLKConfig+0x41c>
 800588c:	4b29      	ldr	r3, [pc, #164]	@ (8005934 <HAL_RCCEx_PeriphCLKConfig+0x498>)
 800588e:	f8d3 3088 	ldr.w	r3, [r3, #136]	@ 0x88
 8005892:	f023 5240 	bic.w	r2, r3, #805306368	@ 0x30000000
 8005896:	687b      	ldr	r3, [r7, #4]
 8005898:	6c5b      	ldr	r3, [r3, #68]	@ 0x44
 800589a:	4926      	ldr	r1, [pc, #152]	@ (8005934 <HAL_RCCEx_PeriphCLKConfig+0x498>)
 800589c:	4313      	orrs	r3, r2
 800589e:	f8c1 3088 	str.w	r3, [r1, #136]	@ 0x88
 80058a2:	687b      	ldr	r3, [r7, #4]
 80058a4:	6c5b      	ldr	r3, [r3, #68]	@ 0x44
 80058a6:	f1b3 5f80 	cmp.w	r3, #268435456	@ 0x10000000
 80058aa:	d105      	bne.n	80058b8 <HAL_RCCEx_PeriphCLKConfig+0x41c>
 80058ac:	4b21      	ldr	r3, [pc, #132]	@ (8005934 <HAL_RCCEx_PeriphCLKConfig+0x498>)
 80058ae:	68db      	ldr	r3, [r3, #12]
 80058b0:	4a20      	ldr	r2, [pc, #128]	@ (8005934 <HAL_RCCEx_PeriphCLKConfig+0x498>)
 80058b2:	f443 3380 	orr.w	r3, r3, #65536	@ 0x10000
 80058b6:	60d3      	str	r3, [r2, #12]
 80058b8:	687b      	ldr	r3, [r7, #4]
 80058ba:	681b      	ldr	r3, [r3, #0]
 80058bc:	f403 3380 	and.w	r3, r3, #65536	@ 0x10000
 80058c0:	2b00      	cmp	r3, #0
 80058c2:	d015      	beq.n	80058f0 <HAL_RCCEx_PeriphCLKConfig+0x454>
 80058c4:	4b1b      	ldr	r3, [pc, #108]	@ (8005934 <HAL_RCCEx_PeriphCLKConfig+0x498>)
 80058c6:	f8d3 3088 	ldr.w	r3, [r3, #136]	@ 0x88
 80058ca:	f023 4240 	bic.w	r2, r3, #3221225472	@ 0xc0000000
 80058ce:	687b      	ldr	r3, [r7, #4]
 80058d0:	6c9b      	ldr	r3, [r3, #72]	@ 0x48
 80058d2:	4918      	ldr	r1, [pc, #96]	@ (8005934 <HAL_RCCEx_PeriphCLKConfig+0x498>)
 80058d4:	4313      	orrs	r3, r2
 80058d6:	f8c1 3088 	str.w	r3, [r1, #136]	@ 0x88
 80058da:	687b      	ldr	r3, [r7, #4]
 80058dc:	6c9b      	ldr	r3, [r3, #72]	@ 0x48
 80058de:	f1b3 4f80 	cmp.w	r3, #1073741824	@ 0x40000000
 80058e2:	d105      	bne.n	80058f0 <HAL_RCCEx_PeriphCLKConfig+0x454>
 80058e4:	4b13      	ldr	r3, [pc, #76]	@ (8005934 <HAL_RCCEx_PeriphCLKConfig+0x498>)
 80058e6:	68db      	ldr	r3, [r3, #12]
 80058e8:	4a12      	ldr	r2, [pc, #72]	@ (8005934 <HAL_RCCEx_PeriphCLKConfig+0x498>)
 80058ea:	f443 3380 	orr.w	r3, r3, #65536	@ 0x10000
 80058ee:	60d3      	str	r3, [r2, #12]
 80058f0:	687b      	ldr	r3, [r7, #4]
 80058f2:	681b      	ldr	r3, [r3, #0]
 80058f4:	f403 2380 	and.w	r3, r3, #262144	@ 0x40000
 80058f8:	2b00      	cmp	r3, #0
 80058fa:	d015      	beq.n	8005928 <HAL_RCCEx_PeriphCLKConfig+0x48c>
 80058fc:	4b0d      	ldr	r3, [pc, #52]	@ (8005934 <HAL_RCCEx_PeriphCLKConfig+0x498>)
 80058fe:	f8d3 309c 	ldr.w	r3, [r3, #156]	@ 0x9c
 8005902:	f423 1240 	bic.w	r2, r3, #3145728	@ 0x300000
 8005906:	687b      	ldr	r3, [r7, #4]
 8005908:	6cdb      	ldr	r3, [r3, #76]	@ 0x4c
 800590a:	490a      	ldr	r1, [pc, #40]	@ (8005934 <HAL_RCCEx_PeriphCLKConfig+0x498>)
 800590c:	4313      	orrs	r3, r2
 800590e:	f8c1 309c 	str.w	r3, [r1, #156]	@ 0x9c
 8005912:	687b      	ldr	r3, [r7, #4]
 8005914:	6cdb      	ldr	r3, [r3, #76]	@ 0x4c
 8005916:	f5b3 1f00 	cmp.w	r3, #2097152	@ 0x200000
 800591a:	d105      	bne.n	8005928 <HAL_RCCEx_PeriphCLKConfig+0x48c>
 800591c:	4b05      	ldr	r3, [pc, #20]	@ (8005934 <HAL_RCCEx_PeriphCLKConfig+0x498>)
 800591e:	68db      	ldr	r3, [r3, #12]
 8005920:	4a04      	ldr	r2, [pc, #16]	@ (8005934 <HAL_RCCEx_PeriphCLKConfig+0x498>)
 8005922:	f443 1380 	orr.w	r3, r3, #1048576	@ 0x100000
 8005926:	60d3      	str	r3, [r2, #12]
 8005928:	7cbb      	ldrb	r3, [r7, #18]
 800592a:	4618      	mov	r0, r3
 800592c:	3718      	adds	r7, #24
 800592e:	46bd      	mov	sp, r7
 8005930:	bd80      	pop	{r7, pc}
 8005932:	bf00      	nop
 8005934:	40021000 	.word	0x40021000

08005938 <HAL_SPI_Init>:
 8005938:	b580      	push	{r7, lr}
 800593a:	b084      	sub	sp, #16
 800593c:	af00      	add	r7, sp, #0
 800593e:	6078      	str	r0, [r7, #4]
 8005940:	687b      	ldr	r3, [r7, #4]
 8005942:	2b00      	cmp	r3, #0
 8005944:	d101      	bne.n	800594a <HAL_SPI_Init+0x12>
 8005946:	2301      	movs	r3, #1
 8005948:	e09d      	b.n	8005a86 <HAL_SPI_Init+0x14e>
 800594a:	687b      	ldr	r3, [r7, #4]
 800594c:	6a5b      	ldr	r3, [r3, #36]	@ 0x24
 800594e:	2b00      	cmp	r3, #0
 8005950:	d108      	bne.n	8005964 <HAL_SPI_Init+0x2c>
 8005952:	687b      	ldr	r3, [r7, #4]
 8005954:	685b      	ldr	r3, [r3, #4]
 8005956:	f5b3 7f82 	cmp.w	r3, #260	@ 0x104
 800595a:	d009      	beq.n	8005970 <HAL_SPI_Init+0x38>
 800595c:	687b      	ldr	r3, [r7, #4]
 800595e:	2200      	movs	r2, #0
 8005960:	61da      	str	r2, [r3, #28]
 8005962:	e005      	b.n	8005970 <HAL_SPI_Init+0x38>
 8005964:	687b      	ldr	r3, [r7, #4]
 8005966:	2200      	movs	r2, #0
 8005968:	611a      	str	r2, [r3, #16]
 800596a:	687b      	ldr	r3, [r7, #4]
 800596c:	2200      	movs	r2, #0
 800596e:	615a      	str	r2, [r3, #20]
 8005970:	687b      	ldr	r3, [r7, #4]
 8005972:	2200      	movs	r2, #0
 8005974:	629a      	str	r2, [r3, #40]	@ 0x28
 8005976:	687b      	ldr	r3, [r7, #4]
 8005978:	f893 305d 	ldrb.w	r3, [r3, #93]	@ 0x5d
 800597c:	b2db      	uxtb	r3, r3
 800597e:	2b00      	cmp	r3, #0
 8005980:	d106      	bne.n	8005990 <HAL_SPI_Init+0x58>
 8005982:	687b      	ldr	r3, [r7, #4]
 8005984:	2200      	movs	r2, #0
 8005986:	f883 205c 	strb.w	r2, [r3, #92]	@ 0x5c
 800598a:	6878      	ldr	r0, [r7, #4]
 800598c:	f7fb f8d4 	bl	8000b38 <HAL_SPI_MspInit>
 8005990:	687b      	ldr	r3, [r7, #4]
 8005992:	2202      	movs	r2, #2
 8005994:	f883 205d 	strb.w	r2, [r3, #93]	@ 0x5d
 8005998:	687b      	ldr	r3, [r7, #4]
 800599a:	681b      	ldr	r3, [r3, #0]
 800599c:	681a      	ldr	r2, [r3, #0]
 800599e:	687b      	ldr	r3, [r7, #4]
 80059a0:	681b      	ldr	r3, [r3, #0]
 80059a2:	f022 0240 	bic.w	r2, r2, #64	@ 0x40
 80059a6:	601a      	str	r2, [r3, #0]
 80059a8:	687b      	ldr	r3, [r7, #4]
 80059aa:	68db      	ldr	r3, [r3, #12]
 80059ac:	f5b3 6fe0 	cmp.w	r3, #1792	@ 0x700
 80059b0:	d902      	bls.n	80059b8 <HAL_SPI_Init+0x80>
 80059b2:	2300      	movs	r3, #0
 80059b4:	60fb      	str	r3, [r7, #12]
 80059b6:	e002      	b.n	80059be <HAL_SPI_Init+0x86>
 80059b8:	f44f 5380 	mov.w	r3, #4096	@ 0x1000
 80059bc:	60fb      	str	r3, [r7, #12]
 80059be:	687b      	ldr	r3, [r7, #4]
 80059c0:	68db      	ldr	r3, [r3, #12]
 80059c2:	f5b3 6f70 	cmp.w	r3, #3840	@ 0xf00
 80059c6:	d007      	beq.n	80059d8 <HAL_SPI_Init+0xa0>
 80059c8:	687b      	ldr	r3, [r7, #4]
 80059ca:	68db      	ldr	r3, [r3, #12]
 80059cc:	f5b3 6fe0 	cmp.w	r3, #1792	@ 0x700
 80059d0:	d002      	beq.n	80059d8 <HAL_SPI_Init+0xa0>
 80059d2:	687b      	ldr	r3, [r7, #4]
 80059d4:	2200      	movs	r2, #0
 80059d6:	629a      	str	r2, [r3, #40]	@ 0x28
 80059d8:	687b      	ldr	r3, [r7, #4]
 80059da:	685b      	ldr	r3, [r3, #4]
 80059dc:	f403 7282 	and.w	r2, r3, #260	@ 0x104
 80059e0:	687b      	ldr	r3, [r7, #4]
 80059e2:	689b      	ldr	r3, [r3, #8]
 80059e4:	f403 4304 	and.w	r3, r3, #33792	@ 0x8400
 80059e8:	431a      	orrs	r2, r3
 80059ea:	687b      	ldr	r3, [r7, #4]
 80059ec:	691b      	ldr	r3, [r3, #16]
 80059ee:	f003 0302 	and.w	r3, r3, #2
 80059f2:	431a      	orrs	r2, r3
 80059f4:	687b      	ldr	r3, [r7, #4]
 80059f6:	695b      	ldr	r3, [r3, #20]
 80059f8:	f003 0301 	and.w	r3, r3, #1
 80059fc:	431a      	orrs	r2, r3
 80059fe:	687b      	ldr	r3, [r7, #4]
 8005a00:	699b      	ldr	r3, [r3, #24]
 8005a02:	f403 7300 	and.w	r3, r3, #512	@ 0x200
 8005a06:	431a      	orrs	r2, r3
 8005a08:	687b      	ldr	r3, [r7, #4]
 8005a0a:	69db      	ldr	r3, [r3, #28]
 8005a0c:	f003 0338 	and.w	r3, r3, #56	@ 0x38
 8005a10:	431a      	orrs	r2, r3
 8005a12:	687b      	ldr	r3, [r7, #4]
 8005a14:	6a1b      	ldr	r3, [r3, #32]
 8005a16:	f003 0380 	and.w	r3, r3, #128	@ 0x80
 8005a1a:	ea42 0103 	orr.w	r1, r2, r3
 8005a1e:	687b      	ldr	r3, [r7, #4]
 8005a20:	6a9b      	ldr	r3, [r3, #40]	@ 0x28
 8005a22:	f403 5200 	and.w	r2, r3, #8192	@ 0x2000
 8005a26:	687b      	ldr	r3, [r7, #4]
 8005a28:	681b      	ldr	r3, [r3, #0]
 8005a2a:	430a      	orrs	r2, r1
 8005a2c:	601a      	str	r2, [r3, #0]
 8005a2e:	687b      	ldr	r3, [r7, #4]
 8005a30:	699b      	ldr	r3, [r3, #24]
 8005a32:	0c1b      	lsrs	r3, r3, #16
 8005a34:	f003 0204 	and.w	r2, r3, #4
 8005a38:	687b      	ldr	r3, [r7, #4]
 8005a3a:	6a5b      	ldr	r3, [r3, #36]	@ 0x24
 8005a3c:	f003 0310 	and.w	r3, r3, #16
 8005a40:	431a      	orrs	r2, r3
 8005a42:	687b      	ldr	r3, [r7, #4]
 8005a44:	6b5b      	ldr	r3, [r3, #52]	@ 0x34
 8005a46:	f003 0308 	and.w	r3, r3, #8
 8005a4a:	431a      	orrs	r2, r3
 8005a4c:	687b      	ldr	r3, [r7, #4]
 8005a4e:	68db      	ldr	r3, [r3, #12]
 8005a50:	f403 6370 	and.w	r3, r3, #3840	@ 0xf00
 8005a54:	ea42 0103 	orr.w	r1, r2, r3
 8005a58:	68fb      	ldr	r3, [r7, #12]
 8005a5a:	f403 5280 	and.w	r2, r3, #4096	@ 0x1000
 8005a5e:	687b      	ldr	r3, [r7, #4]
 8005a60:	681b      	ldr	r3, [r3, #0]
 8005a62:	430a      	orrs	r2, r1
 8005a64:	605a      	str	r2, [r3, #4]
 8005a66:	687b      	ldr	r3, [r7, #4]
 8005a68:	681b      	ldr	r3, [r3, #0]
 8005a6a:	69da      	ldr	r2, [r3, #28]
 8005a6c:	687b      	ldr	r3, [r7, #4]
 8005a6e:	681b      	ldr	r3, [r3, #0]
 8005a70:	f422 6200 	bic.w	r2, r2, #2048	@ 0x800
 8005a74:	61da      	str	r2, [r3, #28]
 8005a76:	687b      	ldr	r3, [r7, #4]
 8005a78:	2200      	movs	r2, #0
 8005a7a:	661a      	str	r2, [r3, #96]	@ 0x60
 8005a7c:	687b      	ldr	r3, [r7, #4]
 8005a7e:	2201      	movs	r2, #1
 8005a80:	f883 205d 	strb.w	r2, [r3, #93]	@ 0x5d
 8005a84:	2300      	movs	r3, #0
 8005a86:	4618      	mov	r0, r3
 8005a88:	3710      	adds	r7, #16
 8005a8a:	46bd      	mov	sp, r7
 8005a8c:	bd80      	pop	{r7, pc}

08005a8e <HAL_UART_Init>:
 8005a8e:	b580      	push	{r7, lr}
 8005a90:	b082      	sub	sp, #8
 8005a92:	af00      	add	r7, sp, #0
 8005a94:	6078      	str	r0, [r7, #4]
 8005a96:	687b      	ldr	r3, [r7, #4]
 8005a98:	2b00      	cmp	r3, #0
 8005a9a:	d101      	bne.n	8005aa0 <HAL_UART_Init+0x12>
 8005a9c:	2301      	movs	r3, #1
 8005a9e:	e042      	b.n	8005b26 <HAL_UART_Init+0x98>
 8005aa0:	687b      	ldr	r3, [r7, #4]
 8005aa2:	f8d3 3088 	ldr.w	r3, [r3, #136]	@ 0x88
 8005aa6:	2b00      	cmp	r3, #0
 8005aa8:	d106      	bne.n	8005ab8 <HAL_UART_Init+0x2a>
 8005aaa:	687b      	ldr	r3, [r7, #4]
 8005aac:	2200      	movs	r2, #0
 8005aae:	f883 2084 	strb.w	r2, [r3, #132]	@ 0x84
 8005ab2:	6878      	ldr	r0, [r7, #4]
 8005ab4:	f7fb f8a0 	bl	8000bf8 <HAL_UART_MspInit>
 8005ab8:	687b      	ldr	r3, [r7, #4]
 8005aba:	2224      	movs	r2, #36	@ 0x24
 8005abc:	f8c3 2088 	str.w	r2, [r3, #136]	@ 0x88
 8005ac0:	687b      	ldr	r3, [r7, #4]
 8005ac2:	681b      	ldr	r3, [r3, #0]
 8005ac4:	681a      	ldr	r2, [r3, #0]
 8005ac6:	687b      	ldr	r3, [r7, #4]
 8005ac8:	681b      	ldr	r3, [r3, #0]
 8005aca:	f022 0201 	bic.w	r2, r2, #1
 8005ace:	601a      	str	r2, [r3, #0]
 8005ad0:	687b      	ldr	r3, [r7, #4]
 8005ad2:	6a9b      	ldr	r3, [r3, #40]	@ 0x28
 8005ad4:	2b00      	cmp	r3, #0
 8005ad6:	d002      	beq.n	8005ade <HAL_UART_Init+0x50>
 8005ad8:	6878      	ldr	r0, [r7, #4]
 8005ada:	f000 fb25 	bl	8006128 <UART_AdvFeatureConfig>
 8005ade:	6878      	ldr	r0, [r7, #4]
 8005ae0:	f000 f826 	bl	8005b30 <UART_SetConfig>
 8005ae4:	4603      	mov	r3, r0
 8005ae6:	2b01      	cmp	r3, #1
 8005ae8:	d101      	bne.n	8005aee <HAL_UART_Init+0x60>
 8005aea:	2301      	movs	r3, #1
 8005aec:	e01b      	b.n	8005b26 <HAL_UART_Init+0x98>
 8005aee:	687b      	ldr	r3, [r7, #4]
 8005af0:	681b      	ldr	r3, [r3, #0]
 8005af2:	685a      	ldr	r2, [r3, #4]
 8005af4:	687b      	ldr	r3, [r7, #4]
 8005af6:	681b      	ldr	r3, [r3, #0]
 8005af8:	f422 4290 	bic.w	r2, r2, #18432	@ 0x4800
 8005afc:	605a      	str	r2, [r3, #4]
 8005afe:	687b      	ldr	r3, [r7, #4]
 8005b00:	681b      	ldr	r3, [r3, #0]
 8005b02:	689a      	ldr	r2, [r3, #8]
 8005b04:	687b      	ldr	r3, [r7, #4]
 8005b06:	681b      	ldr	r3, [r3, #0]
 8005b08:	f022 022a 	bic.w	r2, r2, #42	@ 0x2a
 8005b0c:	609a      	str	r2, [r3, #8]
 8005b0e:	687b      	ldr	r3, [r7, #4]
 8005b10:	681b      	ldr	r3, [r3, #0]
 8005b12:	681a      	ldr	r2, [r3, #0]
 8005b14:	687b      	ldr	r3, [r7, #4]
 8005b16:	681b      	ldr	r3, [r3, #0]
 8005b18:	f042 0201 	orr.w	r2, r2, #1
 8005b1c:	601a      	str	r2, [r3, #0]
 8005b1e:	6878      	ldr	r0, [r7, #4]
 8005b20:	f000 fba4 	bl	800626c <UART_CheckIdleState>
 8005b24:	4603      	mov	r3, r0
 8005b26:	4618      	mov	r0, r3
 8005b28:	3708      	adds	r7, #8
 8005b2a:	46bd      	mov	sp, r7
 8005b2c:	bd80      	pop	{r7, pc}
	...

08005b30 <UART_SetConfig>:
 8005b30:	e92d 4fb0 	stmdb	sp!, {r4, r5, r7, r8, r9, sl, fp, lr}
 8005b34:	b08c      	sub	sp, #48	@ 0x30
 8005b36:	af00      	add	r7, sp, #0
 8005b38:	6178      	str	r0, [r7, #20]
 8005b3a:	2300      	movs	r3, #0
 8005b3c:	f887 302a 	strb.w	r3, [r7, #42]	@ 0x2a
 8005b40:	697b      	ldr	r3, [r7, #20]
 8005b42:	689a      	ldr	r2, [r3, #8]
 8005b44:	697b      	ldr	r3, [r7, #20]
 8005b46:	691b      	ldr	r3, [r3, #16]
 8005b48:	431a      	orrs	r2, r3
 8005b4a:	697b      	ldr	r3, [r7, #20]
 8005b4c:	695b      	ldr	r3, [r3, #20]
 8005b4e:	431a      	orrs	r2, r3
 8005b50:	697b      	ldr	r3, [r7, #20]
 8005b52:	69db      	ldr	r3, [r3, #28]
 8005b54:	4313      	orrs	r3, r2
 8005b56:	62fb      	str	r3, [r7, #44]	@ 0x2c
 8005b58:	697b      	ldr	r3, [r7, #20]
 8005b5a:	681b      	ldr	r3, [r3, #0]
 8005b5c:	681a      	ldr	r2, [r3, #0]
 8005b5e:	4baa      	ldr	r3, [pc, #680]	@ (8005e08 <UART_SetConfig+0x2d8>)
 8005b60:	4013      	ands	r3, r2
 8005b62:	697a      	ldr	r2, [r7, #20]
 8005b64:	6812      	ldr	r2, [r2, #0]
 8005b66:	6af9      	ldr	r1, [r7, #44]	@ 0x2c
 8005b68:	430b      	orrs	r3, r1
 8005b6a:	6013      	str	r3, [r2, #0]
 8005b6c:	697b      	ldr	r3, [r7, #20]
 8005b6e:	681b      	ldr	r3, [r3, #0]
 8005b70:	685b      	ldr	r3, [r3, #4]
 8005b72:	f423 5140 	bic.w	r1, r3, #12288	@ 0x3000
 8005b76:	697b      	ldr	r3, [r7, #20]
 8005b78:	68da      	ldr	r2, [r3, #12]
 8005b7a:	697b      	ldr	r3, [r7, #20]
 8005b7c:	681b      	ldr	r3, [r3, #0]
 8005b7e:	430a      	orrs	r2, r1
 8005b80:	605a      	str	r2, [r3, #4]
 8005b82:	697b      	ldr	r3, [r7, #20]
 8005b84:	699b      	ldr	r3, [r3, #24]
 8005b86:	62fb      	str	r3, [r7, #44]	@ 0x2c
 8005b88:	697b      	ldr	r3, [r7, #20]
 8005b8a:	681b      	ldr	r3, [r3, #0]
 8005b8c:	4a9f      	ldr	r2, [pc, #636]	@ (8005e0c <UART_SetConfig+0x2dc>)
 8005b8e:	4293      	cmp	r3, r2
 8005b90:	d004      	beq.n	8005b9c <UART_SetConfig+0x6c>
 8005b92:	697b      	ldr	r3, [r7, #20]
 8005b94:	6a1b      	ldr	r3, [r3, #32]
 8005b96:	6afa      	ldr	r2, [r7, #44]	@ 0x2c
 8005b98:	4313      	orrs	r3, r2
 8005b9a:	62fb      	str	r3, [r7, #44]	@ 0x2c
 8005b9c:	697b      	ldr	r3, [r7, #20]
 8005b9e:	681b      	ldr	r3, [r3, #0]
 8005ba0:	689b      	ldr	r3, [r3, #8]
 8005ba2:	f023 436e 	bic.w	r3, r3, #3992977408	@ 0xee000000
 8005ba6:	f423 6330 	bic.w	r3, r3, #2816	@ 0xb00
 8005baa:	697a      	ldr	r2, [r7, #20]
 8005bac:	6812      	ldr	r2, [r2, #0]
 8005bae:	6af9      	ldr	r1, [r7, #44]	@ 0x2c
 8005bb0:	430b      	orrs	r3, r1
 8005bb2:	6093      	str	r3, [r2, #8]
 8005bb4:	697b      	ldr	r3, [r7, #20]
 8005bb6:	681b      	ldr	r3, [r3, #0]
 8005bb8:	6adb      	ldr	r3, [r3, #44]	@ 0x2c
 8005bba:	f023 010f 	bic.w	r1, r3, #15
 8005bbe:	697b      	ldr	r3, [r7, #20]
 8005bc0:	6a5a      	ldr	r2, [r3, #36]	@ 0x24
 8005bc2:	697b      	ldr	r3, [r7, #20]
 8005bc4:	681b      	ldr	r3, [r3, #0]
 8005bc6:	430a      	orrs	r2, r1
 8005bc8:	62da      	str	r2, [r3, #44]	@ 0x2c
 8005bca:	697b      	ldr	r3, [r7, #20]
 8005bcc:	681b      	ldr	r3, [r3, #0]
 8005bce:	4a90      	ldr	r2, [pc, #576]	@ (8005e10 <UART_SetConfig+0x2e0>)
 8005bd0:	4293      	cmp	r3, r2
 8005bd2:	d125      	bne.n	8005c20 <UART_SetConfig+0xf0>
 8005bd4:	4b8f      	ldr	r3, [pc, #572]	@ (8005e14 <UART_SetConfig+0x2e4>)
 8005bd6:	f8d3 3088 	ldr.w	r3, [r3, #136]	@ 0x88
 8005bda:	f003 0303 	and.w	r3, r3, #3
 8005bde:	2b03      	cmp	r3, #3
 8005be0:	d81a      	bhi.n	8005c18 <UART_SetConfig+0xe8>
 8005be2:	a201      	add	r2, pc, #4	@ (adr r2, 8005be8 <UART_SetConfig+0xb8>)
 8005be4:	f852 f023 	ldr.w	pc, [r2, r3, lsl #2]
 8005be8:	08005bf9 	.word	0x08005bf9
 8005bec:	08005c09 	.word	0x08005c09
 8005bf0:	08005c01 	.word	0x08005c01
 8005bf4:	08005c11 	.word	0x08005c11
 8005bf8:	2301      	movs	r3, #1
 8005bfa:	f887 302b 	strb.w	r3, [r7, #43]	@ 0x2b
 8005bfe:	e116      	b.n	8005e2e <UART_SetConfig+0x2fe>
 8005c00:	2302      	movs	r3, #2
 8005c02:	f887 302b 	strb.w	r3, [r7, #43]	@ 0x2b
 8005c06:	e112      	b.n	8005e2e <UART_SetConfig+0x2fe>
 8005c08:	2304      	movs	r3, #4
 8005c0a:	f887 302b 	strb.w	r3, [r7, #43]	@ 0x2b
 8005c0e:	e10e      	b.n	8005e2e <UART_SetConfig+0x2fe>
 8005c10:	2308      	movs	r3, #8
 8005c12:	f887 302b 	strb.w	r3, [r7, #43]	@ 0x2b
 8005c16:	e10a      	b.n	8005e2e <UART_SetConfig+0x2fe>
 8005c18:	2310      	movs	r3, #16
 8005c1a:	f887 302b 	strb.w	r3, [r7, #43]	@ 0x2b
 8005c1e:	e106      	b.n	8005e2e <UART_SetConfig+0x2fe>
 8005c20:	697b      	ldr	r3, [r7, #20]
 8005c22:	681b      	ldr	r3, [r3, #0]
 8005c24:	4a7c      	ldr	r2, [pc, #496]	@ (8005e18 <UART_SetConfig+0x2e8>)
 8005c26:	4293      	cmp	r3, r2
 8005c28:	d138      	bne.n	8005c9c <UART_SetConfig+0x16c>
 8005c2a:	4b7a      	ldr	r3, [pc, #488]	@ (8005e14 <UART_SetConfig+0x2e4>)
 8005c2c:	f8d3 3088 	ldr.w	r3, [r3, #136]	@ 0x88
 8005c30:	f003 030c 	and.w	r3, r3, #12
 8005c34:	2b0c      	cmp	r3, #12
 8005c36:	d82d      	bhi.n	8005c94 <UART_SetConfig+0x164>
 8005c38:	a201      	add	r2, pc, #4	@ (adr r2, 8005c40 <UART_SetConfig+0x110>)
 8005c3a:	f852 f023 	ldr.w	pc, [r2, r3, lsl #2]
 8005c3e:	bf00      	nop
 8005c40:	08005c75 	.word	0x08005c75
 8005c44:	08005c95 	.word	0x08005c95
 8005c48:	08005c95 	.word	0x08005c95
 8005c4c:	08005c95 	.word	0x08005c95
 8005c50:	08005c85 	.word	0x08005c85
 8005c54:	08005c95 	.word	0x08005c95
 8005c58:	08005c95 	.word	0x08005c95
 8005c5c:	08005c95 	.word	0x08005c95
 8005c60:	08005c7d 	.word	0x08005c7d
 8005c64:	08005c95 	.word	0x08005c95
 8005c68:	08005c95 	.word	0x08005c95
 8005c6c:	08005c95 	.word	0x08005c95
 8005c70:	08005c8d 	.word	0x08005c8d
 8005c74:	2300      	movs	r3, #0
 8005c76:	f887 302b 	strb.w	r3, [r7, #43]	@ 0x2b
 8005c7a:	e0d8      	b.n	8005e2e <UART_SetConfig+0x2fe>
 8005c7c:	2302      	movs	r3, #2
 8005c7e:	f887 302b 	strb.w	r3, [r7, #43]	@ 0x2b
 8005c82:	e0d4      	b.n	8005e2e <UART_SetConfig+0x2fe>
 8005c84:	2304      	movs	r3, #4
 8005c86:	f887 302b 	strb.w	r3, [r7, #43]	@ 0x2b
 8005c8a:	e0d0      	b.n	8005e2e <UART_SetConfig+0x2fe>
 8005c8c:	2308      	movs	r3, #8
 8005c8e:	f887 302b 	strb.w	r3, [r7, #43]	@ 0x2b
 8005c92:	e0cc      	b.n	8005e2e <UART_SetConfig+0x2fe>
 8005c94:	2310      	movs	r3, #16
 8005c96:	f887 302b 	strb.w	r3, [r7, #43]	@ 0x2b
 8005c9a:	e0c8      	b.n	8005e2e <UART_SetConfig+0x2fe>
 8005c9c:	697b      	ldr	r3, [r7, #20]
 8005c9e:	681b      	ldr	r3, [r3, #0]
 8005ca0:	4a5e      	ldr	r2, [pc, #376]	@ (8005e1c <UART_SetConfig+0x2ec>)
 8005ca2:	4293      	cmp	r3, r2
 8005ca4:	d125      	bne.n	8005cf2 <UART_SetConfig+0x1c2>
 8005ca6:	4b5b      	ldr	r3, [pc, #364]	@ (8005e14 <UART_SetConfig+0x2e4>)
 8005ca8:	f8d3 3088 	ldr.w	r3, [r3, #136]	@ 0x88
 8005cac:	f003 0330 	and.w	r3, r3, #48	@ 0x30
 8005cb0:	2b30      	cmp	r3, #48	@ 0x30
 8005cb2:	d016      	beq.n	8005ce2 <UART_SetConfig+0x1b2>
 8005cb4:	2b30      	cmp	r3, #48	@ 0x30
 8005cb6:	d818      	bhi.n	8005cea <UART_SetConfig+0x1ba>
 8005cb8:	2b20      	cmp	r3, #32
 8005cba:	d00a      	beq.n	8005cd2 <UART_SetConfig+0x1a2>
 8005cbc:	2b20      	cmp	r3, #32
 8005cbe:	d814      	bhi.n	8005cea <UART_SetConfig+0x1ba>
 8005cc0:	2b00      	cmp	r3, #0
 8005cc2:	d002      	beq.n	8005cca <UART_SetConfig+0x19a>
 8005cc4:	2b10      	cmp	r3, #16
 8005cc6:	d008      	beq.n	8005cda <UART_SetConfig+0x1aa>
 8005cc8:	e00f      	b.n	8005cea <UART_SetConfig+0x1ba>
 8005cca:	2300      	movs	r3, #0
 8005ccc:	f887 302b 	strb.w	r3, [r7, #43]	@ 0x2b
 8005cd0:	e0ad      	b.n	8005e2e <UART_SetConfig+0x2fe>
 8005cd2:	2302      	movs	r3, #2
 8005cd4:	f887 302b 	strb.w	r3, [r7, #43]	@ 0x2b
 8005cd8:	e0a9      	b.n	8005e2e <UART_SetConfig+0x2fe>
 8005cda:	2304      	movs	r3, #4
 8005cdc:	f887 302b 	strb.w	r3, [r7, #43]	@ 0x2b
 8005ce0:	e0a5      	b.n	8005e2e <UART_SetConfig+0x2fe>
 8005ce2:	2308      	movs	r3, #8
 8005ce4:	f887 302b 	strb.w	r3, [r7, #43]	@ 0x2b
 8005ce8:	e0a1      	b.n	8005e2e <UART_SetConfig+0x2fe>
 8005cea:	2310      	movs	r3, #16
 8005cec:	f887 302b 	strb.w	r3, [r7, #43]	@ 0x2b
 8005cf0:	e09d      	b.n	8005e2e <UART_SetConfig+0x2fe>
 8005cf2:	697b      	ldr	r3, [r7, #20]
 8005cf4:	681b      	ldr	r3, [r3, #0]
 8005cf6:	4a4a      	ldr	r2, [pc, #296]	@ (8005e20 <UART_SetConfig+0x2f0>)
 8005cf8:	4293      	cmp	r3, r2
 8005cfa:	d125      	bne.n	8005d48 <UART_SetConfig+0x218>
 8005cfc:	4b45      	ldr	r3, [pc, #276]	@ (8005e14 <UART_SetConfig+0x2e4>)
 8005cfe:	f8d3 3088 	ldr.w	r3, [r3, #136]	@ 0x88
 8005d02:	f003 03c0 	and.w	r3, r3, #192	@ 0xc0
 8005d06:	2bc0      	cmp	r3, #192	@ 0xc0
 8005d08:	d016      	beq.n	8005d38 <UART_SetConfig+0x208>
 8005d0a:	2bc0      	cmp	r3, #192	@ 0xc0
 8005d0c:	d818      	bhi.n	8005d40 <UART_SetConfig+0x210>
 8005d0e:	2b80      	cmp	r3, #128	@ 0x80
 8005d10:	d00a      	beq.n	8005d28 <UART_SetConfig+0x1f8>
 8005d12:	2b80      	cmp	r3, #128	@ 0x80
 8005d14:	d814      	bhi.n	8005d40 <UART_SetConfig+0x210>
 8005d16:	2b00      	cmp	r3, #0
 8005d18:	d002      	beq.n	8005d20 <UART_SetConfig+0x1f0>
 8005d1a:	2b40      	cmp	r3, #64	@ 0x40
 8005d1c:	d008      	beq.n	8005d30 <UART_SetConfig+0x200>
 8005d1e:	e00f      	b.n	8005d40 <UART_SetConfig+0x210>
 8005d20:	2300      	movs	r3, #0
 8005d22:	f887 302b 	strb.w	r3, [r7, #43]	@ 0x2b
 8005d26:	e082      	b.n	8005e2e <UART_SetConfig+0x2fe>
 8005d28:	2302      	movs	r3, #2
 8005d2a:	f887 302b 	strb.w	r3, [r7, #43]	@ 0x2b
 8005d2e:	e07e      	b.n	8005e2e <UART_SetConfig+0x2fe>
 8005d30:	2304      	movs	r3, #4
 8005d32:	f887 302b 	strb.w	r3, [r7, #43]	@ 0x2b
 8005d36:	e07a      	b.n	8005e2e <UART_SetConfig+0x2fe>
 8005d38:	2308      	movs	r3, #8
 8005d3a:	f887 302b 	strb.w	r3, [r7, #43]	@ 0x2b
 8005d3e:	e076      	b.n	8005e2e <UART_SetConfig+0x2fe>
 8005d40:	2310      	movs	r3, #16
 8005d42:	f887 302b 	strb.w	r3, [r7, #43]	@ 0x2b
 8005d46:	e072      	b.n	8005e2e <UART_SetConfig+0x2fe>
 8005d48:	697b      	ldr	r3, [r7, #20]
 8005d4a:	681b      	ldr	r3, [r3, #0]
 8005d4c:	4a35      	ldr	r2, [pc, #212]	@ (8005e24 <UART_SetConfig+0x2f4>)
 8005d4e:	4293      	cmp	r3, r2
 8005d50:	d12a      	bne.n	8005da8 <UART_SetConfig+0x278>
 8005d52:	4b30      	ldr	r3, [pc, #192]	@ (8005e14 <UART_SetConfig+0x2e4>)
 8005d54:	f8d3 3088 	ldr.w	r3, [r3, #136]	@ 0x88
 8005d58:	f403 7340 	and.w	r3, r3, #768	@ 0x300
 8005d5c:	f5b3 7f40 	cmp.w	r3, #768	@ 0x300
 8005d60:	d01a      	beq.n	8005d98 <UART_SetConfig+0x268>
 8005d62:	f5b3 7f40 	cmp.w	r3, #768	@ 0x300
 8005d66:	d81b      	bhi.n	8005da0 <UART_SetConfig+0x270>
 8005d68:	f5b3 7f00 	cmp.w	r3, #512	@ 0x200
 8005d6c:	d00c      	beq.n	8005d88 <UART_SetConfig+0x258>
 8005d6e:	f5b3 7f00 	cmp.w	r3, #512	@ 0x200
 8005d72:	d815      	bhi.n	8005da0 <UART_SetConfig+0x270>
 8005d74:	2b00      	cmp	r3, #0
 8005d76:	d003      	beq.n	8005d80 <UART_SetConfig+0x250>
 8005d78:	f5b3 7f80 	cmp.w	r3, #256	@ 0x100
 8005d7c:	d008      	beq.n	8005d90 <UART_SetConfig+0x260>
 8005d7e:	e00f      	b.n	8005da0 <UART_SetConfig+0x270>
 8005d80:	2300      	movs	r3, #0
 8005d82:	f887 302b 	strb.w	r3, [r7, #43]	@ 0x2b
 8005d86:	e052      	b.n	8005e2e <UART_SetConfig+0x2fe>
 8005d88:	2302      	movs	r3, #2
 8005d8a:	f887 302b 	strb.w	r3, [r7, #43]	@ 0x2b
 8005d8e:	e04e      	b.n	8005e2e <UART_SetConfig+0x2fe>
 8005d90:	2304      	movs	r3, #4
 8005d92:	f887 302b 	strb.w	r3, [r7, #43]	@ 0x2b
 8005d96:	e04a      	b.n	8005e2e <UART_SetConfig+0x2fe>
 8005d98:	2308      	movs	r3, #8
 8005d9a:	f887 302b 	strb.w	r3, [r7, #43]	@ 0x2b
 8005d9e:	e046      	b.n	8005e2e <UART_SetConfig+0x2fe>
 8005da0:	2310      	movs	r3, #16
 8005da2:	f887 302b 	strb.w	r3, [r7, #43]	@ 0x2b
 8005da6:	e042      	b.n	8005e2e <UART_SetConfig+0x2fe>
 8005da8:	697b      	ldr	r3, [r7, #20]
 8005daa:	681b      	ldr	r3, [r3, #0]
 8005dac:	4a17      	ldr	r2, [pc, #92]	@ (8005e0c <UART_SetConfig+0x2dc>)
 8005dae:	4293      	cmp	r3, r2
 8005db0:	d13a      	bne.n	8005e28 <UART_SetConfig+0x2f8>
 8005db2:	4b18      	ldr	r3, [pc, #96]	@ (8005e14 <UART_SetConfig+0x2e4>)
 8005db4:	f8d3 3088 	ldr.w	r3, [r3, #136]	@ 0x88
 8005db8:	f403 6340 	and.w	r3, r3, #3072	@ 0xc00
 8005dbc:	f5b3 6f40 	cmp.w	r3, #3072	@ 0xc00
 8005dc0:	d01a      	beq.n	8005df8 <UART_SetConfig+0x2c8>
 8005dc2:	f5b3 6f40 	cmp.w	r3, #3072	@ 0xc00
 8005dc6:	d81b      	bhi.n	8005e00 <UART_SetConfig+0x2d0>
 8005dc8:	f5b3 6f00 	cmp.w	r3, #2048	@ 0x800
 8005dcc:	d00c      	beq.n	8005de8 <UART_SetConfig+0x2b8>
 8005dce:	f5b3 6f00 	cmp.w	r3, #2048	@ 0x800
 8005dd2:	d815      	bhi.n	8005e00 <UART_SetConfig+0x2d0>
 8005dd4:	2b00      	cmp	r3, #0
 8005dd6:	d003      	beq.n	8005de0 <UART_SetConfig+0x2b0>
 8005dd8:	f5b3 6f80 	cmp.w	r3, #1024	@ 0x400
 8005ddc:	d008      	beq.n	8005df0 <UART_SetConfig+0x2c0>
 8005dde:	e00f      	b.n	8005e00 <UART_SetConfig+0x2d0>
 8005de0:	2300      	movs	r3, #0
 8005de2:	f887 302b 	strb.w	r3, [r7, #43]	@ 0x2b
 8005de6:	e022      	b.n	8005e2e <UART_SetConfig+0x2fe>
 8005de8:	2302      	movs	r3, #2
 8005dea:	f887 302b 	strb.w	r3, [r7, #43]	@ 0x2b
 8005dee:	e01e      	b.n	8005e2e <UART_SetConfig+0x2fe>
 8005df0:	2304      	movs	r3, #4
 8005df2:	f887 302b 	strb.w	r3, [r7, #43]	@ 0x2b
 8005df6:	e01a      	b.n	8005e2e <UART_SetConfig+0x2fe>
 8005df8:	2308      	movs	r3, #8
 8005dfa:	f887 302b 	strb.w	r3, [r7, #43]	@ 0x2b
 8005dfe:	e016      	b.n	8005e2e <UART_SetConfig+0x2fe>
 8005e00:	2310      	movs	r3, #16
 8005e02:	f887 302b 	strb.w	r3, [r7, #43]	@ 0x2b
 8005e06:	e012      	b.n	8005e2e <UART_SetConfig+0x2fe>
 8005e08:	cfff69f3 	.word	0xcfff69f3
 8005e0c:	40008000 	.word	0x40008000
 8005e10:	40013800 	.word	0x40013800
 8005e14:	40021000 	.word	0x40021000
 8005e18:	40004400 	.word	0x40004400
 8005e1c:	40004800 	.word	0x40004800
 8005e20:	40004c00 	.word	0x40004c00
 8005e24:	40005000 	.word	0x40005000
 8005e28:	2310      	movs	r3, #16
 8005e2a:	f887 302b 	strb.w	r3, [r7, #43]	@ 0x2b
 8005e2e:	697b      	ldr	r3, [r7, #20]
 8005e30:	681b      	ldr	r3, [r3, #0]
 8005e32:	4aae      	ldr	r2, [pc, #696]	@ (80060ec <UART_SetConfig+0x5bc>)
 8005e34:	4293      	cmp	r3, r2
 8005e36:	f040 8097 	bne.w	8005f68 <UART_SetConfig+0x438>
 8005e3a:	f897 302b 	ldrb.w	r3, [r7, #43]	@ 0x2b
 8005e3e:	2b08      	cmp	r3, #8
 8005e40:	d823      	bhi.n	8005e8a <UART_SetConfig+0x35a>
 8005e42:	a201      	add	r2, pc, #4	@ (adr r2, 8005e48 <UART_SetConfig+0x318>)
 8005e44:	f852 f023 	ldr.w	pc, [r2, r3, lsl #2]
 8005e48:	08005e6d 	.word	0x08005e6d
 8005e4c:	08005e8b 	.word	0x08005e8b
 8005e50:	08005e75 	.word	0x08005e75
 8005e54:	08005e8b 	.word	0x08005e8b
 8005e58:	08005e7b 	.word	0x08005e7b
 8005e5c:	08005e8b 	.word	0x08005e8b
 8005e60:	08005e8b 	.word	0x08005e8b
 8005e64:	08005e8b 	.word	0x08005e8b
 8005e68:	08005e83 	.word	0x08005e83
 8005e6c:	f7ff faa4 	bl	80053b8 <HAL_RCC_GetPCLK1Freq>
 8005e70:	6278      	str	r0, [r7, #36]	@ 0x24
 8005e72:	e010      	b.n	8005e96 <UART_SetConfig+0x366>
 8005e74:	4b9e      	ldr	r3, [pc, #632]	@ (80060f0 <UART_SetConfig+0x5c0>)
 8005e76:	627b      	str	r3, [r7, #36]	@ 0x24
 8005e78:	e00d      	b.n	8005e96 <UART_SetConfig+0x366>
 8005e7a:	f7ff fa2f 	bl	80052dc <HAL_RCC_GetSysClockFreq>
 8005e7e:	6278      	str	r0, [r7, #36]	@ 0x24
 8005e80:	e009      	b.n	8005e96 <UART_SetConfig+0x366>
 8005e82:	f44f 4300 	mov.w	r3, #32768	@ 0x8000
 8005e86:	627b      	str	r3, [r7, #36]	@ 0x24
 8005e88:	e005      	b.n	8005e96 <UART_SetConfig+0x366>
 8005e8a:	2300      	movs	r3, #0
 8005e8c:	627b      	str	r3, [r7, #36]	@ 0x24
 8005e8e:	2301      	movs	r3, #1
 8005e90:	f887 302a 	strb.w	r3, [r7, #42]	@ 0x2a
 8005e94:	bf00      	nop
 8005e96:	6a7b      	ldr	r3, [r7, #36]	@ 0x24
 8005e98:	2b00      	cmp	r3, #0
 8005e9a:	f000 8130 	beq.w	80060fe <UART_SetConfig+0x5ce>
 8005e9e:	697b      	ldr	r3, [r7, #20]
 8005ea0:	6a5b      	ldr	r3, [r3, #36]	@ 0x24
 8005ea2:	4a94      	ldr	r2, [pc, #592]	@ (80060f4 <UART_SetConfig+0x5c4>)
 8005ea4:	f832 3013 	ldrh.w	r3, [r2, r3, lsl #1]
 8005ea8:	461a      	mov	r2, r3
 8005eaa:	6a7b      	ldr	r3, [r7, #36]	@ 0x24
 8005eac:	fbb3 f3f2 	udiv	r3, r3, r2
 8005eb0:	61bb      	str	r3, [r7, #24]
 8005eb2:	697b      	ldr	r3, [r7, #20]
 8005eb4:	685a      	ldr	r2, [r3, #4]
 8005eb6:	4613      	mov	r3, r2
 8005eb8:	005b      	lsls	r3, r3, #1
 8005eba:	4413      	add	r3, r2
 8005ebc:	69ba      	ldr	r2, [r7, #24]
 8005ebe:	429a      	cmp	r2, r3
 8005ec0:	d305      	bcc.n	8005ece <UART_SetConfig+0x39e>
 8005ec2:	697b      	ldr	r3, [r7, #20]
 8005ec4:	685b      	ldr	r3, [r3, #4]
 8005ec6:	031b      	lsls	r3, r3, #12
 8005ec8:	69ba      	ldr	r2, [r7, #24]
 8005eca:	429a      	cmp	r2, r3
 8005ecc:	d903      	bls.n	8005ed6 <UART_SetConfig+0x3a6>
 8005ece:	2301      	movs	r3, #1
 8005ed0:	f887 302a 	strb.w	r3, [r7, #42]	@ 0x2a
 8005ed4:	e113      	b.n	80060fe <UART_SetConfig+0x5ce>
 8005ed6:	6a7b      	ldr	r3, [r7, #36]	@ 0x24
 8005ed8:	2200      	movs	r2, #0
 8005eda:	60bb      	str	r3, [r7, #8]
 8005edc:	60fa      	str	r2, [r7, #12]
 8005ede:	697b      	ldr	r3, [r7, #20]
 8005ee0:	6a5b      	ldr	r3, [r3, #36]	@ 0x24
 8005ee2:	4a84      	ldr	r2, [pc, #528]	@ (80060f4 <UART_SetConfig+0x5c4>)
 8005ee4:	f832 3013 	ldrh.w	r3, [r2, r3, lsl #1]
 8005ee8:	b29b      	uxth	r3, r3
 8005eea:	2200      	movs	r2, #0
 8005eec:	603b      	str	r3, [r7, #0]
 8005eee:	607a      	str	r2, [r7, #4]
 8005ef0:	e9d7 2300 	ldrd	r2, r3, [r7]
 8005ef4:	e9d7 0102 	ldrd	r0, r1, [r7, #8]
 8005ef8:	f7fa f9ea 	bl	80002d0 <__aeabi_uldivmod>
 8005efc:	4602      	mov	r2, r0
 8005efe:	460b      	mov	r3, r1
 8005f00:	4610      	mov	r0, r2
 8005f02:	4619      	mov	r1, r3
 8005f04:	f04f 0200 	mov.w	r2, #0
 8005f08:	f04f 0300 	mov.w	r3, #0
 8005f0c:	020b      	lsls	r3, r1, #8
 8005f0e:	ea43 6310 	orr.w	r3, r3, r0, lsr #24
 8005f12:	0202      	lsls	r2, r0, #8
 8005f14:	6979      	ldr	r1, [r7, #20]
 8005f16:	6849      	ldr	r1, [r1, #4]
 8005f18:	0849      	lsrs	r1, r1, #1
 8005f1a:	2000      	movs	r0, #0
 8005f1c:	460c      	mov	r4, r1
 8005f1e:	4605      	mov	r5, r0
 8005f20:	eb12 0804 	adds.w	r8, r2, r4
 8005f24:	eb43 0905 	adc.w	r9, r3, r5
 8005f28:	697b      	ldr	r3, [r7, #20]
 8005f2a:	685b      	ldr	r3, [r3, #4]
 8005f2c:	2200      	movs	r2, #0
 8005f2e:	469a      	mov	sl, r3
 8005f30:	4693      	mov	fp, r2
 8005f32:	4652      	mov	r2, sl
 8005f34:	465b      	mov	r3, fp
 8005f36:	4640      	mov	r0, r8
 8005f38:	4649      	mov	r1, r9
 8005f3a:	f7fa f9c9 	bl	80002d0 <__aeabi_uldivmod>
 8005f3e:	4602      	mov	r2, r0
 8005f40:	460b      	mov	r3, r1
 8005f42:	4613      	mov	r3, r2
 8005f44:	623b      	str	r3, [r7, #32]
 8005f46:	6a3b      	ldr	r3, [r7, #32]
 8005f48:	f5b3 7f40 	cmp.w	r3, #768	@ 0x300
 8005f4c:	d308      	bcc.n	8005f60 <UART_SetConfig+0x430>
 8005f4e:	6a3b      	ldr	r3, [r7, #32]
 8005f50:	f5b3 1f80 	cmp.w	r3, #1048576	@ 0x100000
 8005f54:	d204      	bcs.n	8005f60 <UART_SetConfig+0x430>
 8005f56:	697b      	ldr	r3, [r7, #20]
 8005f58:	681b      	ldr	r3, [r3, #0]
 8005f5a:	6a3a      	ldr	r2, [r7, #32]
 8005f5c:	60da      	str	r2, [r3, #12]
 8005f5e:	e0ce      	b.n	80060fe <UART_SetConfig+0x5ce>
 8005f60:	2301      	movs	r3, #1
 8005f62:	f887 302a 	strb.w	r3, [r7, #42]	@ 0x2a
 8005f66:	e0ca      	b.n	80060fe <UART_SetConfig+0x5ce>
 8005f68:	697b      	ldr	r3, [r7, #20]
 8005f6a:	69db      	ldr	r3, [r3, #28]
 8005f6c:	f5b3 4f00 	cmp.w	r3, #32768	@ 0x8000
 8005f70:	d166      	bne.n	8006040 <UART_SetConfig+0x510>
 8005f72:	f897 302b 	ldrb.w	r3, [r7, #43]	@ 0x2b
 8005f76:	2b08      	cmp	r3, #8
 8005f78:	d827      	bhi.n	8005fca <UART_SetConfig+0x49a>
 8005f7a:	a201      	add	r2, pc, #4	@ (adr r2, 8005f80 <UART_SetConfig+0x450>)
 8005f7c:	f852 f023 	ldr.w	pc, [r2, r3, lsl #2]
 8005f80:	08005fa5 	.word	0x08005fa5
 8005f84:	08005fad 	.word	0x08005fad
 8005f88:	08005fb5 	.word	0x08005fb5
 8005f8c:	08005fcb 	.word	0x08005fcb
 8005f90:	08005fbb 	.word	0x08005fbb
 8005f94:	08005fcb 	.word	0x08005fcb
 8005f98:	08005fcb 	.word	0x08005fcb
 8005f9c:	08005fcb 	.word	0x08005fcb
 8005fa0:	08005fc3 	.word	0x08005fc3
 8005fa4:	f7ff fa08 	bl	80053b8 <HAL_RCC_GetPCLK1Freq>
 8005fa8:	6278      	str	r0, [r7, #36]	@ 0x24
 8005faa:	e014      	b.n	8005fd6 <UART_SetConfig+0x4a6>
 8005fac:	f7ff fa1a 	bl	80053e4 <HAL_RCC_GetPCLK2Freq>
 8005fb0:	6278      	str	r0, [r7, #36]	@ 0x24
 8005fb2:	e010      	b.n	8005fd6 <UART_SetConfig+0x4a6>
 8005fb4:	4b4e      	ldr	r3, [pc, #312]	@ (80060f0 <UART_SetConfig+0x5c0>)
 8005fb6:	627b      	str	r3, [r7, #36]	@ 0x24
 8005fb8:	e00d      	b.n	8005fd6 <UART_SetConfig+0x4a6>
 8005fba:	f7ff f98f 	bl	80052dc <HAL_RCC_GetSysClockFreq>
 8005fbe:	6278      	str	r0, [r7, #36]	@ 0x24
 8005fc0:	e009      	b.n	8005fd6 <UART_SetConfig+0x4a6>
 8005fc2:	f44f 4300 	mov.w	r3, #32768	@ 0x8000
 8005fc6:	627b      	str	r3, [r7, #36]	@ 0x24
 8005fc8:	e005      	b.n	8005fd6 <UART_SetConfig+0x4a6>
 8005fca:	2300      	movs	r3, #0
 8005fcc:	627b      	str	r3, [r7, #36]	@ 0x24
 8005fce:	2301      	movs	r3, #1
 8005fd0:	f887 302a 	strb.w	r3, [r7, #42]	@ 0x2a
 8005fd4:	bf00      	nop
 8005fd6:	6a7b      	ldr	r3, [r7, #36]	@ 0x24
 8005fd8:	2b00      	cmp	r3, #0
 8005fda:	f000 8090 	beq.w	80060fe <UART_SetConfig+0x5ce>
 8005fde:	697b      	ldr	r3, [r7, #20]
 8005fe0:	6a5b      	ldr	r3, [r3, #36]	@ 0x24
 8005fe2:	4a44      	ldr	r2, [pc, #272]	@ (80060f4 <UART_SetConfig+0x5c4>)
 8005fe4:	f832 3013 	ldrh.w	r3, [r2, r3, lsl #1]
 8005fe8:	461a      	mov	r2, r3
 8005fea:	6a7b      	ldr	r3, [r7, #36]	@ 0x24
 8005fec:	fbb3 f3f2 	udiv	r3, r3, r2
 8005ff0:	005a      	lsls	r2, r3, #1
 8005ff2:	697b      	ldr	r3, [r7, #20]
 8005ff4:	685b      	ldr	r3, [r3, #4]
 8005ff6:	085b      	lsrs	r3, r3, #1
 8005ff8:	441a      	add	r2, r3
 8005ffa:	697b      	ldr	r3, [r7, #20]
 8005ffc:	685b      	ldr	r3, [r3, #4]
 8005ffe:	fbb2 f3f3 	udiv	r3, r2, r3
 8006002:	623b      	str	r3, [r7, #32]
 8006004:	6a3b      	ldr	r3, [r7, #32]
 8006006:	2b0f      	cmp	r3, #15
 8006008:	d916      	bls.n	8006038 <UART_SetConfig+0x508>
 800600a:	6a3b      	ldr	r3, [r7, #32]
 800600c:	f5b3 3f80 	cmp.w	r3, #65536	@ 0x10000
 8006010:	d212      	bcs.n	8006038 <UART_SetConfig+0x508>
 8006012:	6a3b      	ldr	r3, [r7, #32]
 8006014:	b29b      	uxth	r3, r3
 8006016:	f023 030f 	bic.w	r3, r3, #15
 800601a:	83fb      	strh	r3, [r7, #30]
 800601c:	6a3b      	ldr	r3, [r7, #32]
 800601e:	085b      	lsrs	r3, r3, #1
 8006020:	b29b      	uxth	r3, r3
 8006022:	f003 0307 	and.w	r3, r3, #7
 8006026:	b29a      	uxth	r2, r3
 8006028:	8bfb      	ldrh	r3, [r7, #30]
 800602a:	4313      	orrs	r3, r2
 800602c:	83fb      	strh	r3, [r7, #30]
 800602e:	697b      	ldr	r3, [r7, #20]
 8006030:	681b      	ldr	r3, [r3, #0]
 8006032:	8bfa      	ldrh	r2, [r7, #30]
 8006034:	60da      	str	r2, [r3, #12]
 8006036:	e062      	b.n	80060fe <UART_SetConfig+0x5ce>
 8006038:	2301      	movs	r3, #1
 800603a:	f887 302a 	strb.w	r3, [r7, #42]	@ 0x2a
 800603e:	e05e      	b.n	80060fe <UART_SetConfig+0x5ce>
 8006040:	f897 302b 	ldrb.w	r3, [r7, #43]	@ 0x2b
 8006044:	2b08      	cmp	r3, #8
 8006046:	d828      	bhi.n	800609a <UART_SetConfig+0x56a>
 8006048:	a201      	add	r2, pc, #4	@ (adr r2, 8006050 <UART_SetConfig+0x520>)
 800604a:	f852 f023 	ldr.w	pc, [r2, r3, lsl #2]
 800604e:	bf00      	nop
 8006050:	08006075 	.word	0x08006075
 8006054:	0800607d 	.word	0x0800607d
 8006058:	08006085 	.word	0x08006085
 800605c:	0800609b 	.word	0x0800609b
 8006060:	0800608b 	.word	0x0800608b
 8006064:	0800609b 	.word	0x0800609b
 8006068:	0800609b 	.word	0x0800609b
 800606c:	0800609b 	.word	0x0800609b
 8006070:	08006093 	.word	0x08006093
 8006074:	f7ff f9a0 	bl	80053b8 <HAL_RCC_GetPCLK1Freq>
 8006078:	6278      	str	r0, [r7, #36]	@ 0x24
 800607a:	e014      	b.n	80060a6 <UART_SetConfig+0x576>
 800607c:	f7ff f9b2 	bl	80053e4 <HAL_RCC_GetPCLK2Freq>
 8006080:	6278      	str	r0, [r7, #36]	@ 0x24
 8006082:	e010      	b.n	80060a6 <UART_SetConfig+0x576>
 8006084:	4b1a      	ldr	r3, [pc, #104]	@ (80060f0 <UART_SetConfig+0x5c0>)
 8006086:	627b      	str	r3, [r7, #36]	@ 0x24
 8006088:	e00d      	b.n	80060a6 <UART_SetConfig+0x576>
 800608a:	f7ff f927 	bl	80052dc <HAL_RCC_GetSysClockFreq>
 800608e:	6278      	str	r0, [r7, #36]	@ 0x24
 8006090:	e009      	b.n	80060a6 <UART_SetConfig+0x576>
 8006092:	f44f 4300 	mov.w	r3, #32768	@ 0x8000
 8006096:	627b      	str	r3, [r7, #36]	@ 0x24
 8006098:	e005      	b.n	80060a6 <UART_SetConfig+0x576>
 800609a:	2300      	movs	r3, #0
 800609c:	627b      	str	r3, [r7, #36]	@ 0x24
 800609e:	2301      	movs	r3, #1
 80060a0:	f887 302a 	strb.w	r3, [r7, #42]	@ 0x2a
 80060a4:	bf00      	nop
 80060a6:	6a7b      	ldr	r3, [r7, #36]	@ 0x24
 80060a8:	2b00      	cmp	r3, #0
 80060aa:	d028      	beq.n	80060fe <UART_SetConfig+0x5ce>
 80060ac:	697b      	ldr	r3, [r7, #20]
 80060ae:	6a5b      	ldr	r3, [r3, #36]	@ 0x24
 80060b0:	4a10      	ldr	r2, [pc, #64]	@ (80060f4 <UART_SetConfig+0x5c4>)
 80060b2:	f832 3013 	ldrh.w	r3, [r2, r3, lsl #1]
 80060b6:	461a      	mov	r2, r3
 80060b8:	6a7b      	ldr	r3, [r7, #36]	@ 0x24
 80060ba:	fbb3 f2f2 	udiv	r2, r3, r2
 80060be:	697b      	ldr	r3, [r7, #20]
 80060c0:	685b      	ldr	r3, [r3, #4]
 80060c2:	085b      	lsrs	r3, r3, #1
 80060c4:	441a      	add	r2, r3
 80060c6:	697b      	ldr	r3, [r7, #20]
 80060c8:	685b      	ldr	r3, [r3, #4]
 80060ca:	fbb2 f3f3 	udiv	r3, r2, r3
 80060ce:	623b      	str	r3, [r7, #32]
 80060d0:	6a3b      	ldr	r3, [r7, #32]
 80060d2:	2b0f      	cmp	r3, #15
 80060d4:	d910      	bls.n	80060f8 <UART_SetConfig+0x5c8>
 80060d6:	6a3b      	ldr	r3, [r7, #32]
 80060d8:	f5b3 3f80 	cmp.w	r3, #65536	@ 0x10000
 80060dc:	d20c      	bcs.n	80060f8 <UART_SetConfig+0x5c8>
 80060de:	6a3b      	ldr	r3, [r7, #32]
 80060e0:	b29a      	uxth	r2, r3
 80060e2:	697b      	ldr	r3, [r7, #20]
 80060e4:	681b      	ldr	r3, [r3, #0]
 80060e6:	60da      	str	r2, [r3, #12]
 80060e8:	e009      	b.n	80060fe <UART_SetConfig+0x5ce>
 80060ea:	bf00      	nop
 80060ec:	40008000 	.word	0x40008000
 80060f0:	00f42400 	.word	0x00f42400
 80060f4:	08007b8c 	.word	0x08007b8c
 80060f8:	2301      	movs	r3, #1
 80060fa:	f887 302a 	strb.w	r3, [r7, #42]	@ 0x2a
 80060fe:	697b      	ldr	r3, [r7, #20]
 8006100:	2201      	movs	r2, #1
 8006102:	f8a3 206a 	strh.w	r2, [r3, #106]	@ 0x6a
 8006106:	697b      	ldr	r3, [r7, #20]
 8006108:	2201      	movs	r2, #1
 800610a:	f8a3 2068 	strh.w	r2, [r3, #104]	@ 0x68
 800610e:	697b      	ldr	r3, [r7, #20]
 8006110:	2200      	movs	r2, #0
 8006112:	675a      	str	r2, [r3, #116]	@ 0x74
 8006114:	697b      	ldr	r3, [r7, #20]
 8006116:	2200      	movs	r2, #0
 8006118:	679a      	str	r2, [r3, #120]	@ 0x78
 800611a:	f897 302a 	ldrb.w	r3, [r7, #42]	@ 0x2a
 800611e:	4618      	mov	r0, r3
 8006120:	3730      	adds	r7, #48	@ 0x30
 8006122:	46bd      	mov	sp, r7
 8006124:	e8bd 8fb0 	ldmia.w	sp!, {r4, r5, r7, r8, r9, sl, fp, pc}

08006128 <UART_AdvFeatureConfig>:
 8006128:	b480      	push	{r7}
 800612a:	b083      	sub	sp, #12
 800612c:	af00      	add	r7, sp, #0
 800612e:	6078      	str	r0, [r7, #4]
 8006130:	687b      	ldr	r3, [r7, #4]
 8006132:	6a9b      	ldr	r3, [r3, #40]	@ 0x28
 8006134:	f003 0308 	and.w	r3, r3, #8
 8006138:	2b00      	cmp	r3, #0
 800613a:	d00a      	beq.n	8006152 <UART_AdvFeatureConfig+0x2a>
 800613c:	687b      	ldr	r3, [r7, #4]
 800613e:	681b      	ldr	r3, [r3, #0]
 8006140:	685b      	ldr	r3, [r3, #4]
 8006142:	f423 4100 	bic.w	r1, r3, #32768	@ 0x8000
 8006146:	687b      	ldr	r3, [r7, #4]
 8006148:	6b9a      	ldr	r2, [r3, #56]	@ 0x38
 800614a:	687b      	ldr	r3, [r7, #4]
 800614c:	681b      	ldr	r3, [r3, #0]
 800614e:	430a      	orrs	r2, r1
 8006150:	605a      	str	r2, [r3, #4]
 8006152:	687b      	ldr	r3, [r7, #4]
 8006154:	6a9b      	ldr	r3, [r3, #40]	@ 0x28
 8006156:	f003 0301 	and.w	r3, r3, #1
 800615a:	2b00      	cmp	r3, #0
 800615c:	d00a      	beq.n	8006174 <UART_AdvFeatureConfig+0x4c>
 800615e:	687b      	ldr	r3, [r7, #4]
 8006160:	681b      	ldr	r3, [r3, #0]
 8006162:	685b      	ldr	r3, [r3, #4]
 8006164:	f423 3100 	bic.w	r1, r3, #131072	@ 0x20000
 8006168:	687b      	ldr	r3, [r7, #4]
 800616a:	6ada      	ldr	r2, [r3, #44]	@ 0x2c
 800616c:	687b      	ldr	r3, [r7, #4]
 800616e:	681b      	ldr	r3, [r3, #0]
 8006170:	430a      	orrs	r2, r1
 8006172:	605a      	str	r2, [r3, #4]
 8006174:	687b      	ldr	r3, [r7, #4]
 8006176:	6a9b      	ldr	r3, [r3, #40]	@ 0x28
 8006178:	f003 0302 	and.w	r3, r3, #2
 800617c:	2b00      	cmp	r3, #0
 800617e:	d00a      	beq.n	8006196 <UART_AdvFeatureConfig+0x6e>
 8006180:	687b      	ldr	r3, [r7, #4]
 8006182:	681b      	ldr	r3, [r3, #0]
 8006184:	685b      	ldr	r3, [r3, #4]
 8006186:	f423 3180 	bic.w	r1, r3, #65536	@ 0x10000
 800618a:	687b      	ldr	r3, [r7, #4]
 800618c:	6b1a      	ldr	r2, [r3, #48]	@ 0x30
 800618e:	687b      	ldr	r3, [r7, #4]
 8006190:	681b      	ldr	r3, [r3, #0]
 8006192:	430a      	orrs	r2, r1
 8006194:	605a      	str	r2, [r3, #4]
 8006196:	687b      	ldr	r3, [r7, #4]
 8006198:	6a9b      	ldr	r3, [r3, #40]	@ 0x28
 800619a:	f003 0304 	and.w	r3, r3, #4
 800619e:	2b00      	cmp	r3, #0
 80061a0:	d00a      	beq.n	80061b8 <UART_AdvFeatureConfig+0x90>
 80061a2:	687b      	ldr	r3, [r7, #4]
 80061a4:	681b      	ldr	r3, [r3, #0]
 80061a6:	685b      	ldr	r3, [r3, #4]
 80061a8:	f423 2180 	bic.w	r1, r3, #262144	@ 0x40000
 80061ac:	687b      	ldr	r3, [r7, #4]
 80061ae:	6b5a      	ldr	r2, [r3, #52]	@ 0x34
 80061b0:	687b      	ldr	r3, [r7, #4]
 80061b2:	681b      	ldr	r3, [r3, #0]
 80061b4:	430a      	orrs	r2, r1
 80061b6:	605a      	str	r2, [r3, #4]
 80061b8:	687b      	ldr	r3, [r7, #4]
 80061ba:	6a9b      	ldr	r3, [r3, #40]	@ 0x28
 80061bc:	f003 0310 	and.w	r3, r3, #16
 80061c0:	2b00      	cmp	r3, #0
 80061c2:	d00a      	beq.n	80061da <UART_AdvFeatureConfig+0xb2>
 80061c4:	687b      	ldr	r3, [r7, #4]
 80061c6:	681b      	ldr	r3, [r3, #0]
 80061c8:	689b      	ldr	r3, [r3, #8]
 80061ca:	f423 5180 	bic.w	r1, r3, #4096	@ 0x1000
 80061ce:	687b      	ldr	r3, [r7, #4]
 80061d0:	6bda      	ldr	r2, [r3, #60]	@ 0x3c
 80061d2:	687b      	ldr	r3, [r7, #4]
 80061d4:	681b      	ldr	r3, [r3, #0]
 80061d6:	430a      	orrs	r2, r1
 80061d8:	609a      	str	r2, [r3, #8]
 80061da:	687b      	ldr	r3, [r7, #4]
 80061dc:	6a9b      	ldr	r3, [r3, #40]	@ 0x28
 80061de:	f003 0320 	and.w	r3, r3, #32
 80061e2:	2b00      	cmp	r3, #0
 80061e4:	d00a      	beq.n	80061fc <UART_AdvFeatureConfig+0xd4>
 80061e6:	687b      	ldr	r3, [r7, #4]
 80061e8:	681b      	ldr	r3, [r3, #0]
 80061ea:	689b      	ldr	r3, [r3, #8]
 80061ec:	f423 5100 	bic.w	r1, r3, #8192	@ 0x2000
 80061f0:	687b      	ldr	r3, [r7, #4]
 80061f2:	6c1a      	ldr	r2, [r3, #64]	@ 0x40
 80061f4:	687b      	ldr	r3, [r7, #4]
 80061f6:	681b      	ldr	r3, [r3, #0]
 80061f8:	430a      	orrs	r2, r1
 80061fa:	609a      	str	r2, [r3, #8]
 80061fc:	687b      	ldr	r3, [r7, #4]
 80061fe:	6a9b      	ldr	r3, [r3, #40]	@ 0x28
 8006200:	f003 0340 	and.w	r3, r3, #64	@ 0x40
 8006204:	2b00      	cmp	r3, #0
 8006206:	d01a      	beq.n	800623e <UART_AdvFeatureConfig+0x116>
 8006208:	687b      	ldr	r3, [r7, #4]
 800620a:	681b      	ldr	r3, [r3, #0]
 800620c:	685b      	ldr	r3, [r3, #4]
 800620e:	f423 1180 	bic.w	r1, r3, #1048576	@ 0x100000
 8006212:	687b      	ldr	r3, [r7, #4]
 8006214:	6c5a      	ldr	r2, [r3, #68]	@ 0x44
 8006216:	687b      	ldr	r3, [r7, #4]
 8006218:	681b      	ldr	r3, [r3, #0]
 800621a:	430a      	orrs	r2, r1
 800621c:	605a      	str	r2, [r3, #4]
 800621e:	687b      	ldr	r3, [r7, #4]
 8006220:	6c5b      	ldr	r3, [r3, #68]	@ 0x44
 8006222:	f5b3 1f80 	cmp.w	r3, #1048576	@ 0x100000
 8006226:	d10a      	bne.n	800623e <UART_AdvFeatureConfig+0x116>
 8006228:	687b      	ldr	r3, [r7, #4]
 800622a:	681b      	ldr	r3, [r3, #0]
 800622c:	685b      	ldr	r3, [r3, #4]
 800622e:	f423 01c0 	bic.w	r1, r3, #6291456	@ 0x600000
 8006232:	687b      	ldr	r3, [r7, #4]
 8006234:	6c9a      	ldr	r2, [r3, #72]	@ 0x48
 8006236:	687b      	ldr	r3, [r7, #4]
 8006238:	681b      	ldr	r3, [r3, #0]
 800623a:	430a      	orrs	r2, r1
 800623c:	605a      	str	r2, [r3, #4]
 800623e:	687b      	ldr	r3, [r7, #4]
 8006240:	6a9b      	ldr	r3, [r3, #40]	@ 0x28
 8006242:	f003 0380 	and.w	r3, r3, #128	@ 0x80
 8006246:	2b00      	cmp	r3, #0
 8006248:	d00a      	beq.n	8006260 <UART_AdvFeatureConfig+0x138>
 800624a:	687b      	ldr	r3, [r7, #4]
 800624c:	681b      	ldr	r3, [r3, #0]
 800624e:	685b      	ldr	r3, [r3, #4]
 8006250:	f423 2100 	bic.w	r1, r3, #524288	@ 0x80000
 8006254:	687b      	ldr	r3, [r7, #4]
 8006256:	6cda      	ldr	r2, [r3, #76]	@ 0x4c
 8006258:	687b      	ldr	r3, [r7, #4]
 800625a:	681b      	ldr	r3, [r3, #0]
 800625c:	430a      	orrs	r2, r1
 800625e:	605a      	str	r2, [r3, #4]
 8006260:	bf00      	nop
 8006262:	370c      	adds	r7, #12
 8006264:	46bd      	mov	sp, r7
 8006266:	f85d 7b04 	ldr.w	r7, [sp], #4
 800626a:	4770      	bx	lr

0800626c <UART_CheckIdleState>:
 800626c:	b580      	push	{r7, lr}
 800626e:	b098      	sub	sp, #96	@ 0x60
 8006270:	af02      	add	r7, sp, #8
 8006272:	6078      	str	r0, [r7, #4]
 8006274:	687b      	ldr	r3, [r7, #4]
 8006276:	2200      	movs	r2, #0
 8006278:	f8c3 2090 	str.w	r2, [r3, #144]	@ 0x90
 800627c:	f7fe f880 	bl	8004380 <HAL_GetTick>
 8006280:	6578      	str	r0, [r7, #84]	@ 0x54
 8006282:	687b      	ldr	r3, [r7, #4]
 8006284:	681b      	ldr	r3, [r3, #0]
 8006286:	681b      	ldr	r3, [r3, #0]
 8006288:	f003 0308 	and.w	r3, r3, #8
 800628c:	2b08      	cmp	r3, #8
 800628e:	d12f      	bne.n	80062f0 <UART_CheckIdleState+0x84>
 8006290:	f06f 437e 	mvn.w	r3, #4261412864	@ 0xfe000000
 8006294:	9300      	str	r3, [sp, #0]
 8006296:	6d7b      	ldr	r3, [r7, #84]	@ 0x54
 8006298:	2200      	movs	r2, #0
 800629a:	f44f 1100 	mov.w	r1, #2097152	@ 0x200000
 800629e:	6878      	ldr	r0, [r7, #4]
 80062a0:	f000 f88e 	bl	80063c0 <UART_WaitOnFlagUntilTimeout>
 80062a4:	4603      	mov	r3, r0
 80062a6:	2b00      	cmp	r3, #0
 80062a8:	d022      	beq.n	80062f0 <UART_CheckIdleState+0x84>
 80062aa:	687b      	ldr	r3, [r7, #4]
 80062ac:	681b      	ldr	r3, [r3, #0]
 80062ae:	63bb      	str	r3, [r7, #56]	@ 0x38
 80062b0:	6bbb      	ldr	r3, [r7, #56]	@ 0x38
 80062b2:	e853 3f00 	ldrex	r3, [r3]
 80062b6:	637b      	str	r3, [r7, #52]	@ 0x34
 80062b8:	6b7b      	ldr	r3, [r7, #52]	@ 0x34
 80062ba:	f023 0380 	bic.w	r3, r3, #128	@ 0x80
 80062be:	653b      	str	r3, [r7, #80]	@ 0x50
 80062c0:	687b      	ldr	r3, [r7, #4]
 80062c2:	681b      	ldr	r3, [r3, #0]
 80062c4:	461a      	mov	r2, r3
 80062c6:	6d3b      	ldr	r3, [r7, #80]	@ 0x50
 80062c8:	647b      	str	r3, [r7, #68]	@ 0x44
 80062ca:	643a      	str	r2, [r7, #64]	@ 0x40
 80062cc:	6c39      	ldr	r1, [r7, #64]	@ 0x40
 80062ce:	6c7a      	ldr	r2, [r7, #68]	@ 0x44
 80062d0:	e841 2300 	strex	r3, r2, [r1]
 80062d4:	63fb      	str	r3, [r7, #60]	@ 0x3c
 80062d6:	6bfb      	ldr	r3, [r7, #60]	@ 0x3c
 80062d8:	2b00      	cmp	r3, #0
 80062da:	d1e6      	bne.n	80062aa <UART_CheckIdleState+0x3e>
 80062dc:	687b      	ldr	r3, [r7, #4]
 80062de:	2220      	movs	r2, #32
 80062e0:	f8c3 2088 	str.w	r2, [r3, #136]	@ 0x88
 80062e4:	687b      	ldr	r3, [r7, #4]
 80062e6:	2200      	movs	r2, #0
 80062e8:	f883 2084 	strb.w	r2, [r3, #132]	@ 0x84
 80062ec:	2303      	movs	r3, #3
 80062ee:	e063      	b.n	80063b8 <UART_CheckIdleState+0x14c>
 80062f0:	687b      	ldr	r3, [r7, #4]
 80062f2:	681b      	ldr	r3, [r3, #0]
 80062f4:	681b      	ldr	r3, [r3, #0]
 80062f6:	f003 0304 	and.w	r3, r3, #4
 80062fa:	2b04      	cmp	r3, #4
 80062fc:	d149      	bne.n	8006392 <UART_CheckIdleState+0x126>
 80062fe:	f06f 437e 	mvn.w	r3, #4261412864	@ 0xfe000000
 8006302:	9300      	str	r3, [sp, #0]
 8006304:	6d7b      	ldr	r3, [r7, #84]	@ 0x54
 8006306:	2200      	movs	r2, #0
 8006308:	f44f 0180 	mov.w	r1, #4194304	@ 0x400000
 800630c:	6878      	ldr	r0, [r7, #4]
 800630e:	f000 f857 	bl	80063c0 <UART_WaitOnFlagUntilTimeout>
 8006312:	4603      	mov	r3, r0
 8006314:	2b00      	cmp	r3, #0
 8006316:	d03c      	beq.n	8006392 <UART_CheckIdleState+0x126>
 8006318:	687b      	ldr	r3, [r7, #4]
 800631a:	681b      	ldr	r3, [r3, #0]
 800631c:	627b      	str	r3, [r7, #36]	@ 0x24
 800631e:	6a7b      	ldr	r3, [r7, #36]	@ 0x24
 8006320:	e853 3f00 	ldrex	r3, [r3]
 8006324:	623b      	str	r3, [r7, #32]
 8006326:	6a3b      	ldr	r3, [r7, #32]
 8006328:	f423 7390 	bic.w	r3, r3, #288	@ 0x120
 800632c:	64fb      	str	r3, [r7, #76]	@ 0x4c
 800632e:	687b      	ldr	r3, [r7, #4]
 8006330:	681b      	ldr	r3, [r3, #0]
 8006332:	461a      	mov	r2, r3
 8006334:	6cfb      	ldr	r3, [r7, #76]	@ 0x4c
 8006336:	633b      	str	r3, [r7, #48]	@ 0x30
 8006338:	62fa      	str	r2, [r7, #44]	@ 0x2c
 800633a:	6af9      	ldr	r1, [r7, #44]	@ 0x2c
 800633c:	6b3a      	ldr	r2, [r7, #48]	@ 0x30
 800633e:	e841 2300 	strex	r3, r2, [r1]
 8006342:	62bb      	str	r3, [r7, #40]	@ 0x28
 8006344:	6abb      	ldr	r3, [r7, #40]	@ 0x28
 8006346:	2b00      	cmp	r3, #0
 8006348:	d1e6      	bne.n	8006318 <UART_CheckIdleState+0xac>
 800634a:	687b      	ldr	r3, [r7, #4]
 800634c:	681b      	ldr	r3, [r3, #0]
 800634e:	3308      	adds	r3, #8
 8006350:	613b      	str	r3, [r7, #16]
 8006352:	693b      	ldr	r3, [r7, #16]
 8006354:	e853 3f00 	ldrex	r3, [r3]
 8006358:	60fb      	str	r3, [r7, #12]
 800635a:	68fb      	ldr	r3, [r7, #12]
 800635c:	f023 0301 	bic.w	r3, r3, #1
 8006360:	64bb      	str	r3, [r7, #72]	@ 0x48
 8006362:	687b      	ldr	r3, [r7, #4]
 8006364:	681b      	ldr	r3, [r3, #0]
 8006366:	3308      	adds	r3, #8
 8006368:	6cba      	ldr	r2, [r7, #72]	@ 0x48
 800636a:	61fa      	str	r2, [r7, #28]
 800636c:	61bb      	str	r3, [r7, #24]
 800636e:	69b9      	ldr	r1, [r7, #24]
 8006370:	69fa      	ldr	r2, [r7, #28]
 8006372:	e841 2300 	strex	r3, r2, [r1]
 8006376:	617b      	str	r3, [r7, #20]
 8006378:	697b      	ldr	r3, [r7, #20]
 800637a:	2b00      	cmp	r3, #0
 800637c:	d1e5      	bne.n	800634a <UART_CheckIdleState+0xde>
 800637e:	687b      	ldr	r3, [r7, #4]
 8006380:	2220      	movs	r2, #32
 8006382:	f8c3 208c 	str.w	r2, [r3, #140]	@ 0x8c
 8006386:	687b      	ldr	r3, [r7, #4]
 8006388:	2200      	movs	r2, #0
 800638a:	f883 2084 	strb.w	r2, [r3, #132]	@ 0x84
 800638e:	2303      	movs	r3, #3
 8006390:	e012      	b.n	80063b8 <UART_CheckIdleState+0x14c>
 8006392:	687b      	ldr	r3, [r7, #4]
 8006394:	2220      	movs	r2, #32
 8006396:	f8c3 2088 	str.w	r2, [r3, #136]	@ 0x88
 800639a:	687b      	ldr	r3, [r7, #4]
 800639c:	2220      	movs	r2, #32
 800639e:	f8c3 208c 	str.w	r2, [r3, #140]	@ 0x8c
 80063a2:	687b      	ldr	r3, [r7, #4]
 80063a4:	2200      	movs	r2, #0
 80063a6:	66da      	str	r2, [r3, #108]	@ 0x6c
 80063a8:	687b      	ldr	r3, [r7, #4]
 80063aa:	2200      	movs	r2, #0
 80063ac:	671a      	str	r2, [r3, #112]	@ 0x70
 80063ae:	687b      	ldr	r3, [r7, #4]
 80063b0:	2200      	movs	r2, #0
 80063b2:	f883 2084 	strb.w	r2, [r3, #132]	@ 0x84
 80063b6:	2300      	movs	r3, #0
 80063b8:	4618      	mov	r0, r3
 80063ba:	3758      	adds	r7, #88	@ 0x58
 80063bc:	46bd      	mov	sp, r7
 80063be:	bd80      	pop	{r7, pc}

080063c0 <UART_WaitOnFlagUntilTimeout>:
 80063c0:	b580      	push	{r7, lr}
 80063c2:	b084      	sub	sp, #16
 80063c4:	af00      	add	r7, sp, #0
 80063c6:	60f8      	str	r0, [r7, #12]
 80063c8:	60b9      	str	r1, [r7, #8]
 80063ca:	603b      	str	r3, [r7, #0]
 80063cc:	4613      	mov	r3, r2
 80063ce:	71fb      	strb	r3, [r7, #7]
 80063d0:	e04f      	b.n	8006472 <UART_WaitOnFlagUntilTimeout+0xb2>
 80063d2:	69bb      	ldr	r3, [r7, #24]
 80063d4:	f1b3 3fff 	cmp.w	r3, #4294967295
 80063d8:	d04b      	beq.n	8006472 <UART_WaitOnFlagUntilTimeout+0xb2>
 80063da:	f7fd ffd1 	bl	8004380 <HAL_GetTick>
 80063de:	4602      	mov	r2, r0
 80063e0:	683b      	ldr	r3, [r7, #0]
 80063e2:	1ad3      	subs	r3, r2, r3
 80063e4:	69ba      	ldr	r2, [r7, #24]
 80063e6:	429a      	cmp	r2, r3
 80063e8:	d302      	bcc.n	80063f0 <UART_WaitOnFlagUntilTimeout+0x30>
 80063ea:	69bb      	ldr	r3, [r7, #24]
 80063ec:	2b00      	cmp	r3, #0
 80063ee:	d101      	bne.n	80063f4 <UART_WaitOnFlagUntilTimeout+0x34>
 80063f0:	2303      	movs	r3, #3
 80063f2:	e04e      	b.n	8006492 <UART_WaitOnFlagUntilTimeout+0xd2>
 80063f4:	68fb      	ldr	r3, [r7, #12]
 80063f6:	681b      	ldr	r3, [r3, #0]
 80063f8:	681b      	ldr	r3, [r3, #0]
 80063fa:	f003 0304 	and.w	r3, r3, #4
 80063fe:	2b00      	cmp	r3, #0
 8006400:	d037      	beq.n	8006472 <UART_WaitOnFlagUntilTimeout+0xb2>
 8006402:	68bb      	ldr	r3, [r7, #8]
 8006404:	2b80      	cmp	r3, #128	@ 0x80
 8006406:	d034      	beq.n	8006472 <UART_WaitOnFlagUntilTimeout+0xb2>
 8006408:	68bb      	ldr	r3, [r7, #8]
 800640a:	2b40      	cmp	r3, #64	@ 0x40
 800640c:	d031      	beq.n	8006472 <UART_WaitOnFlagUntilTimeout+0xb2>
 800640e:	68fb      	ldr	r3, [r7, #12]
 8006410:	681b      	ldr	r3, [r3, #0]
 8006412:	69db      	ldr	r3, [r3, #28]
 8006414:	f003 0308 	and.w	r3, r3, #8
 8006418:	2b08      	cmp	r3, #8
 800641a:	d110      	bne.n	800643e <UART_WaitOnFlagUntilTimeout+0x7e>
 800641c:	68fb      	ldr	r3, [r7, #12]
 800641e:	681b      	ldr	r3, [r3, #0]
 8006420:	2208      	movs	r2, #8
 8006422:	621a      	str	r2, [r3, #32]
 8006424:	68f8      	ldr	r0, [r7, #12]
 8006426:	f000 f838 	bl	800649a <UART_EndRxTransfer>
 800642a:	68fb      	ldr	r3, [r7, #12]
 800642c:	2208      	movs	r2, #8
 800642e:	f8c3 2090 	str.w	r2, [r3, #144]	@ 0x90
 8006432:	68fb      	ldr	r3, [r7, #12]
 8006434:	2200      	movs	r2, #0
 8006436:	f883 2084 	strb.w	r2, [r3, #132]	@ 0x84
 800643a:	2301      	movs	r3, #1
 800643c:	e029      	b.n	8006492 <UART_WaitOnFlagUntilTimeout+0xd2>
 800643e:	68fb      	ldr	r3, [r7, #12]
 8006440:	681b      	ldr	r3, [r3, #0]
 8006442:	69db      	ldr	r3, [r3, #28]
 8006444:	f403 6300 	and.w	r3, r3, #2048	@ 0x800
 8006448:	f5b3 6f00 	cmp.w	r3, #2048	@ 0x800
 800644c:	d111      	bne.n	8006472 <UART_WaitOnFlagUntilTimeout+0xb2>
 800644e:	68fb      	ldr	r3, [r7, #12]
 8006450:	681b      	ldr	r3, [r3, #0]
 8006452:	f44f 6200 	mov.w	r2, #2048	@ 0x800
 8006456:	621a      	str	r2, [r3, #32]
 8006458:	68f8      	ldr	r0, [r7, #12]
 800645a:	f000 f81e 	bl	800649a <UART_EndRxTransfer>
 800645e:	68fb      	ldr	r3, [r7, #12]
 8006460:	2220      	movs	r2, #32
 8006462:	f8c3 2090 	str.w	r2, [r3, #144]	@ 0x90
 8006466:	68fb      	ldr	r3, [r7, #12]
 8006468:	2200      	movs	r2, #0
 800646a:	f883 2084 	strb.w	r2, [r3, #132]	@ 0x84
 800646e:	2303      	movs	r3, #3
 8006470:	e00f      	b.n	8006492 <UART_WaitOnFlagUntilTimeout+0xd2>
 8006472:	68fb      	ldr	r3, [r7, #12]
 8006474:	681b      	ldr	r3, [r3, #0]
 8006476:	69da      	ldr	r2, [r3, #28]
 8006478:	68bb      	ldr	r3, [r7, #8]
 800647a:	4013      	ands	r3, r2
 800647c:	68ba      	ldr	r2, [r7, #8]
 800647e:	429a      	cmp	r2, r3
 8006480:	bf0c      	ite	eq
 8006482:	2301      	moveq	r3, #1
 8006484:	2300      	movne	r3, #0
 8006486:	b2db      	uxtb	r3, r3
 8006488:	461a      	mov	r2, r3
 800648a:	79fb      	ldrb	r3, [r7, #7]
 800648c:	429a      	cmp	r2, r3
 800648e:	d0a0      	beq.n	80063d2 <UART_WaitOnFlagUntilTimeout+0x12>
 8006490:	2300      	movs	r3, #0
 8006492:	4618      	mov	r0, r3
 8006494:	3710      	adds	r7, #16
 8006496:	46bd      	mov	sp, r7
 8006498:	bd80      	pop	{r7, pc}

0800649a <UART_EndRxTransfer>:
 800649a:	b480      	push	{r7}
 800649c:	b095      	sub	sp, #84	@ 0x54
 800649e:	af00      	add	r7, sp, #0
 80064a0:	6078      	str	r0, [r7, #4]
 80064a2:	687b      	ldr	r3, [r7, #4]
 80064a4:	681b      	ldr	r3, [r3, #0]
 80064a6:	637b      	str	r3, [r7, #52]	@ 0x34
 80064a8:	6b7b      	ldr	r3, [r7, #52]	@ 0x34
 80064aa:	e853 3f00 	ldrex	r3, [r3]
 80064ae:	633b      	str	r3, [r7, #48]	@ 0x30
 80064b0:	6b3b      	ldr	r3, [r7, #48]	@ 0x30
 80064b2:	f423 7390 	bic.w	r3, r3, #288	@ 0x120
 80064b6:	64fb      	str	r3, [r7, #76]	@ 0x4c
 80064b8:	687b      	ldr	r3, [r7, #4]
 80064ba:	681b      	ldr	r3, [r3, #0]
 80064bc:	461a      	mov	r2, r3
 80064be:	6cfb      	ldr	r3, [r7, #76]	@ 0x4c
 80064c0:	643b      	str	r3, [r7, #64]	@ 0x40
 80064c2:	63fa      	str	r2, [r7, #60]	@ 0x3c
 80064c4:	6bf9      	ldr	r1, [r7, #60]	@ 0x3c
 80064c6:	6c3a      	ldr	r2, [r7, #64]	@ 0x40
 80064c8:	e841 2300 	strex	r3, r2, [r1]
 80064cc:	63bb      	str	r3, [r7, #56]	@ 0x38
 80064ce:	6bbb      	ldr	r3, [r7, #56]	@ 0x38
 80064d0:	2b00      	cmp	r3, #0
 80064d2:	d1e6      	bne.n	80064a2 <UART_EndRxTransfer+0x8>
 80064d4:	687b      	ldr	r3, [r7, #4]
 80064d6:	681b      	ldr	r3, [r3, #0]
 80064d8:	3308      	adds	r3, #8
 80064da:	623b      	str	r3, [r7, #32]
 80064dc:	6a3b      	ldr	r3, [r7, #32]
 80064de:	e853 3f00 	ldrex	r3, [r3]
 80064e2:	61fb      	str	r3, [r7, #28]
 80064e4:	69fb      	ldr	r3, [r7, #28]
 80064e6:	f023 5380 	bic.w	r3, r3, #268435456	@ 0x10000000
 80064ea:	f023 0301 	bic.w	r3, r3, #1
 80064ee:	64bb      	str	r3, [r7, #72]	@ 0x48
 80064f0:	687b      	ldr	r3, [r7, #4]
 80064f2:	681b      	ldr	r3, [r3, #0]
 80064f4:	3308      	adds	r3, #8
 80064f6:	6cba      	ldr	r2, [r7, #72]	@ 0x48
 80064f8:	62fa      	str	r2, [r7, #44]	@ 0x2c
 80064fa:	62bb      	str	r3, [r7, #40]	@ 0x28
 80064fc:	6ab9      	ldr	r1, [r7, #40]	@ 0x28
 80064fe:	6afa      	ldr	r2, [r7, #44]	@ 0x2c
 8006500:	e841 2300 	strex	r3, r2, [r1]
 8006504:	627b      	str	r3, [r7, #36]	@ 0x24
 8006506:	6a7b      	ldr	r3, [r7, #36]	@ 0x24
 8006508:	2b00      	cmp	r3, #0
 800650a:	d1e3      	bne.n	80064d4 <UART_EndRxTransfer+0x3a>
 800650c:	687b      	ldr	r3, [r7, #4]
 800650e:	6edb      	ldr	r3, [r3, #108]	@ 0x6c
 8006510:	2b01      	cmp	r3, #1
 8006512:	d118      	bne.n	8006546 <UART_EndRxTransfer+0xac>
 8006514:	687b      	ldr	r3, [r7, #4]
 8006516:	681b      	ldr	r3, [r3, #0]
 8006518:	60fb      	str	r3, [r7, #12]
 800651a:	68fb      	ldr	r3, [r7, #12]
 800651c:	e853 3f00 	ldrex	r3, [r3]
 8006520:	60bb      	str	r3, [r7, #8]
 8006522:	68bb      	ldr	r3, [r7, #8]
 8006524:	f023 0310 	bic.w	r3, r3, #16
 8006528:	647b      	str	r3, [r7, #68]	@ 0x44
 800652a:	687b      	ldr	r3, [r7, #4]
 800652c:	681b      	ldr	r3, [r3, #0]
 800652e:	461a      	mov	r2, r3
 8006530:	6c7b      	ldr	r3, [r7, #68]	@ 0x44
 8006532:	61bb      	str	r3, [r7, #24]
 8006534:	617a      	str	r2, [r7, #20]
 8006536:	6979      	ldr	r1, [r7, #20]
 8006538:	69ba      	ldr	r2, [r7, #24]
 800653a:	e841 2300 	strex	r3, r2, [r1]
 800653e:	613b      	str	r3, [r7, #16]
 8006540:	693b      	ldr	r3, [r7, #16]
 8006542:	2b00      	cmp	r3, #0
 8006544:	d1e6      	bne.n	8006514 <UART_EndRxTransfer+0x7a>
 8006546:	687b      	ldr	r3, [r7, #4]
 8006548:	2220      	movs	r2, #32
 800654a:	f8c3 208c 	str.w	r2, [r3, #140]	@ 0x8c
 800654e:	687b      	ldr	r3, [r7, #4]
 8006550:	2200      	movs	r2, #0
 8006552:	66da      	str	r2, [r3, #108]	@ 0x6c
 8006554:	687b      	ldr	r3, [r7, #4]
 8006556:	2200      	movs	r2, #0
 8006558:	675a      	str	r2, [r3, #116]	@ 0x74
 800655a:	bf00      	nop
 800655c:	3754      	adds	r7, #84	@ 0x54
 800655e:	46bd      	mov	sp, r7
 8006560:	f85d 7b04 	ldr.w	r7, [sp], #4
 8006564:	4770      	bx	lr

08006566 <HAL_UARTEx_DisableFifoMode>:
 8006566:	b480      	push	{r7}
 8006568:	b085      	sub	sp, #20
 800656a:	af00      	add	r7, sp, #0
 800656c:	6078      	str	r0, [r7, #4]
 800656e:	687b      	ldr	r3, [r7, #4]
 8006570:	f893 3084 	ldrb.w	r3, [r3, #132]	@ 0x84
 8006574:	2b01      	cmp	r3, #1
 8006576:	d101      	bne.n	800657c <HAL_UARTEx_DisableFifoMode+0x16>
 8006578:	2302      	movs	r3, #2
 800657a:	e027      	b.n	80065cc <HAL_UARTEx_DisableFifoMode+0x66>
 800657c:	687b      	ldr	r3, [r7, #4]
 800657e:	2201      	movs	r2, #1
 8006580:	f883 2084 	strb.w	r2, [r3, #132]	@ 0x84
 8006584:	687b      	ldr	r3, [r7, #4]
 8006586:	2224      	movs	r2, #36	@ 0x24
 8006588:	f8c3 2088 	str.w	r2, [r3, #136]	@ 0x88
 800658c:	687b      	ldr	r3, [r7, #4]
 800658e:	681b      	ldr	r3, [r3, #0]
 8006590:	681b      	ldr	r3, [r3, #0]
 8006592:	60fb      	str	r3, [r7, #12]
 8006594:	687b      	ldr	r3, [r7, #4]
 8006596:	681b      	ldr	r3, [r3, #0]
 8006598:	681a      	ldr	r2, [r3, #0]
 800659a:	687b      	ldr	r3, [r7, #4]
 800659c:	681b      	ldr	r3, [r3, #0]
 800659e:	f022 0201 	bic.w	r2, r2, #1
 80065a2:	601a      	str	r2, [r3, #0]
 80065a4:	68fb      	ldr	r3, [r7, #12]
 80065a6:	f023 5300 	bic.w	r3, r3, #536870912	@ 0x20000000
 80065aa:	60fb      	str	r3, [r7, #12]
 80065ac:	687b      	ldr	r3, [r7, #4]
 80065ae:	2200      	movs	r2, #0
 80065b0:	665a      	str	r2, [r3, #100]	@ 0x64
 80065b2:	687b      	ldr	r3, [r7, #4]
 80065b4:	681b      	ldr	r3, [r3, #0]
 80065b6:	68fa      	ldr	r2, [r7, #12]
 80065b8:	601a      	str	r2, [r3, #0]
 80065ba:	687b      	ldr	r3, [r7, #4]
 80065bc:	2220      	movs	r2, #32
 80065be:	f8c3 2088 	str.w	r2, [r3, #136]	@ 0x88
 80065c2:	687b      	ldr	r3, [r7, #4]
 80065c4:	2200      	movs	r2, #0
 80065c6:	f883 2084 	strb.w	r2, [r3, #132]	@ 0x84
 80065ca:	2300      	movs	r3, #0
 80065cc:	4618      	mov	r0, r3
 80065ce:	3714      	adds	r7, #20
 80065d0:	46bd      	mov	sp, r7
 80065d2:	f85d 7b04 	ldr.w	r7, [sp], #4
 80065d6:	4770      	bx	lr

080065d8 <HAL_UARTEx_SetTxFifoThreshold>:
 80065d8:	b580      	push	{r7, lr}
 80065da:	b084      	sub	sp, #16
 80065dc:	af00      	add	r7, sp, #0
 80065de:	6078      	str	r0, [r7, #4]
 80065e0:	6039      	str	r1, [r7, #0]
 80065e2:	687b      	ldr	r3, [r7, #4]
 80065e4:	f893 3084 	ldrb.w	r3, [r3, #132]	@ 0x84
 80065e8:	2b01      	cmp	r3, #1
 80065ea:	d101      	bne.n	80065f0 <HAL_UARTEx_SetTxFifoThreshold+0x18>
 80065ec:	2302      	movs	r3, #2
 80065ee:	e02d      	b.n	800664c <HAL_UARTEx_SetTxFifoThreshold+0x74>
 80065f0:	687b      	ldr	r3, [r7, #4]
 80065f2:	2201      	movs	r2, #1
 80065f4:	f883 2084 	strb.w	r2, [r3, #132]	@ 0x84
 80065f8:	687b      	ldr	r3, [r7, #4]
 80065fa:	2224      	movs	r2, #36	@ 0x24
 80065fc:	f8c3 2088 	str.w	r2, [r3, #136]	@ 0x88
 8006600:	687b      	ldr	r3, [r7, #4]
 8006602:	681b      	ldr	r3, [r3, #0]
 8006604:	681b      	ldr	r3, [r3, #0]
 8006606:	60fb      	str	r3, [r7, #12]
 8006608:	687b      	ldr	r3, [r7, #4]
 800660a:	681b      	ldr	r3, [r3, #0]
 800660c:	681a      	ldr	r2, [r3, #0]
 800660e:	687b      	ldr	r3, [r7, #4]
 8006610:	681b      	ldr	r3, [r3, #0]
 8006612:	f022 0201 	bic.w	r2, r2, #1
 8006616:	601a      	str	r2, [r3, #0]
 8006618:	687b      	ldr	r3, [r7, #4]
 800661a:	681b      	ldr	r3, [r3, #0]
 800661c:	689b      	ldr	r3, [r3, #8]
 800661e:	f023 4160 	bic.w	r1, r3, #3758096384	@ 0xe0000000
 8006622:	687b      	ldr	r3, [r7, #4]
 8006624:	681b      	ldr	r3, [r3, #0]
 8006626:	683a      	ldr	r2, [r7, #0]
 8006628:	430a      	orrs	r2, r1
 800662a:	609a      	str	r2, [r3, #8]
 800662c:	6878      	ldr	r0, [r7, #4]
 800662e:	f000 f84f 	bl	80066d0 <UARTEx_SetNbDataToProcess>
 8006632:	687b      	ldr	r3, [r7, #4]
 8006634:	681b      	ldr	r3, [r3, #0]
 8006636:	68fa      	ldr	r2, [r7, #12]
 8006638:	601a      	str	r2, [r3, #0]
 800663a:	687b      	ldr	r3, [r7, #4]
 800663c:	2220      	movs	r2, #32
 800663e:	f8c3 2088 	str.w	r2, [r3, #136]	@ 0x88
 8006642:	687b      	ldr	r3, [r7, #4]
 8006644:	2200      	movs	r2, #0
 8006646:	f883 2084 	strb.w	r2, [r3, #132]	@ 0x84
 800664a:	2300      	movs	r3, #0
 800664c:	4618      	mov	r0, r3
 800664e:	3710      	adds	r7, #16
 8006650:	46bd      	mov	sp, r7
 8006652:	bd80      	pop	{r7, pc}

08006654 <HAL_UARTEx_SetRxFifoThreshold>:
 8006654:	b580      	push	{r7, lr}
 8006656:	b084      	sub	sp, #16
 8006658:	af00      	add	r7, sp, #0
 800665a:	6078      	str	r0, [r7, #4]
 800665c:	6039      	str	r1, [r7, #0]
 800665e:	687b      	ldr	r3, [r7, #4]
 8006660:	f893 3084 	ldrb.w	r3, [r3, #132]	@ 0x84
 8006664:	2b01      	cmp	r3, #1
 8006666:	d101      	bne.n	800666c <HAL_UARTEx_SetRxFifoThreshold+0x18>
 8006668:	2302      	movs	r3, #2
 800666a:	e02d      	b.n	80066c8 <HAL_UARTEx_SetRxFifoThreshold+0x74>
 800666c:	687b      	ldr	r3, [r7, #4]
 800666e:	2201      	movs	r2, #1
 8006670:	f883 2084 	strb.w	r2, [r3, #132]	@ 0x84
 8006674:	687b      	ldr	r3, [r7, #4]
 8006676:	2224      	movs	r2, #36	@ 0x24
 8006678:	f8c3 2088 	str.w	r2, [r3, #136]	@ 0x88
 800667c:	687b      	ldr	r3, [r7, #4]
 800667e:	681b      	ldr	r3, [r3, #0]
 8006680:	681b      	ldr	r3, [r3, #0]
 8006682:	60fb      	str	r3, [r7, #12]
 8006684:	687b      	ldr	r3, [r7, #4]
 8006686:	681b      	ldr	r3, [r3, #0]
 8006688:	681a      	ldr	r2, [r3, #0]
 800668a:	687b      	ldr	r3, [r7, #4]
 800668c:	681b      	ldr	r3, [r3, #0]
 800668e:	f022 0201 	bic.w	r2, r2, #1
 8006692:	601a      	str	r2, [r3, #0]
 8006694:	687b      	ldr	r3, [r7, #4]
 8006696:	681b      	ldr	r3, [r3, #0]
 8006698:	689b      	ldr	r3, [r3, #8]
 800669a:	f023 6160 	bic.w	r1, r3, #234881024	@ 0xe000000
 800669e:	687b      	ldr	r3, [r7, #4]
 80066a0:	681b      	ldr	r3, [r3, #0]
 80066a2:	683a      	ldr	r2, [r7, #0]
 80066a4:	430a      	orrs	r2, r1
 80066a6:	609a      	str	r2, [r3, #8]
 80066a8:	6878      	ldr	r0, [r7, #4]
 80066aa:	f000 f811 	bl	80066d0 <UARTEx_SetNbDataToProcess>
 80066ae:	687b      	ldr	r3, [r7, #4]
 80066b0:	681b      	ldr	r3, [r3, #0]
 80066b2:	68fa      	ldr	r2, [r7, #12]
 80066b4:	601a      	str	r2, [r3, #0]
 80066b6:	687b      	ldr	r3, [r7, #4]
 80066b8:	2220      	movs	r2, #32
 80066ba:	f8c3 2088 	str.w	r2, [r3, #136]	@ 0x88
 80066be:	687b      	ldr	r3, [r7, #4]
 80066c0:	2200      	movs	r2, #0
 80066c2:	f883 2084 	strb.w	r2, [r3, #132]	@ 0x84
 80066c6:	2300      	movs	r3, #0
 80066c8:	4618      	mov	r0, r3
 80066ca:	3710      	adds	r7, #16
 80066cc:	46bd      	mov	sp, r7
 80066ce:	bd80      	pop	{r7, pc}

080066d0 <UARTEx_SetNbDataToProcess>:
 80066d0:	b480      	push	{r7}
 80066d2:	b085      	sub	sp, #20
 80066d4:	af00      	add	r7, sp, #0
 80066d6:	6078      	str	r0, [r7, #4]
 80066d8:	687b      	ldr	r3, [r7, #4]
 80066da:	6e5b      	ldr	r3, [r3, #100]	@ 0x64
 80066dc:	2b00      	cmp	r3, #0
 80066de:	d108      	bne.n	80066f2 <UARTEx_SetNbDataToProcess+0x22>
 80066e0:	687b      	ldr	r3, [r7, #4]
 80066e2:	2201      	movs	r2, #1
 80066e4:	f8a3 206a 	strh.w	r2, [r3, #106]	@ 0x6a
 80066e8:	687b      	ldr	r3, [r7, #4]
 80066ea:	2201      	movs	r2, #1
 80066ec:	f8a3 2068 	strh.w	r2, [r3, #104]	@ 0x68
 80066f0:	e031      	b.n	8006756 <UARTEx_SetNbDataToProcess+0x86>
 80066f2:	2308      	movs	r3, #8
 80066f4:	73fb      	strb	r3, [r7, #15]
 80066f6:	2308      	movs	r3, #8
 80066f8:	73bb      	strb	r3, [r7, #14]
 80066fa:	687b      	ldr	r3, [r7, #4]
 80066fc:	681b      	ldr	r3, [r3, #0]
 80066fe:	689b      	ldr	r3, [r3, #8]
 8006700:	0e5b      	lsrs	r3, r3, #25
 8006702:	b2db      	uxtb	r3, r3
 8006704:	f003 0307 	and.w	r3, r3, #7
 8006708:	737b      	strb	r3, [r7, #13]
 800670a:	687b      	ldr	r3, [r7, #4]
 800670c:	681b      	ldr	r3, [r3, #0]
 800670e:	689b      	ldr	r3, [r3, #8]
 8006710:	0f5b      	lsrs	r3, r3, #29
 8006712:	b2db      	uxtb	r3, r3
 8006714:	f003 0307 	and.w	r3, r3, #7
 8006718:	733b      	strb	r3, [r7, #12]
 800671a:	7bbb      	ldrb	r3, [r7, #14]
 800671c:	7b3a      	ldrb	r2, [r7, #12]
 800671e:	4911      	ldr	r1, [pc, #68]	@ (8006764 <UARTEx_SetNbDataToProcess+0x94>)
 8006720:	5c8a      	ldrb	r2, [r1, r2]
 8006722:	fb02 f303 	mul.w	r3, r2, r3
 8006726:	7b3a      	ldrb	r2, [r7, #12]
 8006728:	490f      	ldr	r1, [pc, #60]	@ (8006768 <UARTEx_SetNbDataToProcess+0x98>)
 800672a:	5c8a      	ldrb	r2, [r1, r2]
 800672c:	fb93 f3f2 	sdiv	r3, r3, r2
 8006730:	b29a      	uxth	r2, r3
 8006732:	687b      	ldr	r3, [r7, #4]
 8006734:	f8a3 206a 	strh.w	r2, [r3, #106]	@ 0x6a
 8006738:	7bfb      	ldrb	r3, [r7, #15]
 800673a:	7b7a      	ldrb	r2, [r7, #13]
 800673c:	4909      	ldr	r1, [pc, #36]	@ (8006764 <UARTEx_SetNbDataToProcess+0x94>)
 800673e:	5c8a      	ldrb	r2, [r1, r2]
 8006740:	fb02 f303 	mul.w	r3, r2, r3
 8006744:	7b7a      	ldrb	r2, [r7, #13]
 8006746:	4908      	ldr	r1, [pc, #32]	@ (8006768 <UARTEx_SetNbDataToProcess+0x98>)
 8006748:	5c8a      	ldrb	r2, [r1, r2]
 800674a:	fb93 f3f2 	sdiv	r3, r3, r2
 800674e:	b29a      	uxth	r2, r3
 8006750:	687b      	ldr	r3, [r7, #4]
 8006752:	f8a3 2068 	strh.w	r2, [r3, #104]	@ 0x68
 8006756:	bf00      	nop
 8006758:	3714      	adds	r7, #20
 800675a:	46bd      	mov	sp, r7
 800675c:	f85d 7b04 	ldr.w	r7, [sp], #4
 8006760:	4770      	bx	lr
 8006762:	bf00      	nop
 8006764:	08007ba4 	.word	0x08007ba4
 8006768:	08007bac 	.word	0x08007bac

0800676c <std>:
 800676c:	2300      	movs	r3, #0
 800676e:	b510      	push	{r4, lr}
 8006770:	4604      	mov	r4, r0
 8006772:	e9c0 3300 	strd	r3, r3, [r0]
 8006776:	e9c0 3304 	strd	r3, r3, [r0, #16]
 800677a:	6083      	str	r3, [r0, #8]
 800677c:	8181      	strh	r1, [r0, #12]
 800677e:	6643      	str	r3, [r0, #100]	@ 0x64
 8006780:	81c2      	strh	r2, [r0, #14]
 8006782:	6183      	str	r3, [r0, #24]
 8006784:	4619      	mov	r1, r3
 8006786:	2208      	movs	r2, #8
 8006788:	305c      	adds	r0, #92	@ 0x5c
 800678a:	f000 fab5 	bl	8006cf8 <memset>
 800678e:	4b0d      	ldr	r3, [pc, #52]	@ (80067c4 <std+0x58>)
 8006790:	6263      	str	r3, [r4, #36]	@ 0x24
 8006792:	4b0d      	ldr	r3, [pc, #52]	@ (80067c8 <std+0x5c>)
 8006794:	62a3      	str	r3, [r4, #40]	@ 0x28
 8006796:	4b0d      	ldr	r3, [pc, #52]	@ (80067cc <std+0x60>)
 8006798:	62e3      	str	r3, [r4, #44]	@ 0x2c
 800679a:	4b0d      	ldr	r3, [pc, #52]	@ (80067d0 <std+0x64>)
 800679c:	6323      	str	r3, [r4, #48]	@ 0x30
 800679e:	4b0d      	ldr	r3, [pc, #52]	@ (80067d4 <std+0x68>)
 80067a0:	6224      	str	r4, [r4, #32]
 80067a2:	429c      	cmp	r4, r3
 80067a4:	d006      	beq.n	80067b4 <std+0x48>
 80067a6:	f103 0268 	add.w	r2, r3, #104	@ 0x68
 80067aa:	4294      	cmp	r4, r2
 80067ac:	d002      	beq.n	80067b4 <std+0x48>
 80067ae:	33d0      	adds	r3, #208	@ 0xd0
 80067b0:	429c      	cmp	r4, r3
 80067b2:	d105      	bne.n	80067c0 <std+0x54>
 80067b4:	f104 0058 	add.w	r0, r4, #88	@ 0x58
 80067b8:	e8bd 4010 	ldmia.w	sp!, {r4, lr}
 80067bc:	f000 bb26 	b.w	8006e0c <__retarget_lock_init_recursive>
 80067c0:	bd10      	pop	{r4, pc}
 80067c2:	bf00      	nop
 80067c4:	08006b49 	.word	0x08006b49
 80067c8:	08006b6b 	.word	0x08006b6b
 80067cc:	08006ba3 	.word	0x08006ba3
 80067d0:	08006bc7 	.word	0x08006bc7
 80067d4:	200004e4 	.word	0x200004e4

080067d8 <stdio_exit_handler>:
 80067d8:	4a02      	ldr	r2, [pc, #8]	@ (80067e4 <stdio_exit_handler+0xc>)
 80067da:	4903      	ldr	r1, [pc, #12]	@ (80067e8 <stdio_exit_handler+0x10>)
 80067dc:	4803      	ldr	r0, [pc, #12]	@ (80067ec <stdio_exit_handler+0x14>)
 80067de:	f000 b869 	b.w	80068b4 <_fwalk_sglue>
 80067e2:	bf00      	nop
 80067e4:	200000c4 	.word	0x200000c4
 80067e8:	080076d9 	.word	0x080076d9
 80067ec:	200000d4 	.word	0x200000d4

080067f0 <cleanup_stdio>:
 80067f0:	6841      	ldr	r1, [r0, #4]
 80067f2:	4b0c      	ldr	r3, [pc, #48]	@ (8006824 <cleanup_stdio+0x34>)
 80067f4:	4299      	cmp	r1, r3
 80067f6:	b510      	push	{r4, lr}
 80067f8:	4604      	mov	r4, r0
 80067fa:	d001      	beq.n	8006800 <cleanup_stdio+0x10>
 80067fc:	f000 ff6c 	bl	80076d8 <_fflush_r>
 8006800:	68a1      	ldr	r1, [r4, #8]
 8006802:	4b09      	ldr	r3, [pc, #36]	@ (8006828 <cleanup_stdio+0x38>)
 8006804:	4299      	cmp	r1, r3
 8006806:	d002      	beq.n	800680e <cleanup_stdio+0x1e>
 8006808:	4620      	mov	r0, r4
 800680a:	f000 ff65 	bl	80076d8 <_fflush_r>
 800680e:	68e1      	ldr	r1, [r4, #12]
 8006810:	4b06      	ldr	r3, [pc, #24]	@ (800682c <cleanup_stdio+0x3c>)
 8006812:	4299      	cmp	r1, r3
 8006814:	d004      	beq.n	8006820 <cleanup_stdio+0x30>
 8006816:	4620      	mov	r0, r4
 8006818:	e8bd 4010 	ldmia.w	sp!, {r4, lr}
 800681c:	f000 bf5c 	b.w	80076d8 <_fflush_r>
 8006820:	bd10      	pop	{r4, pc}
 8006822:	bf00      	nop
 8006824:	200004e4 	.word	0x200004e4
 8006828:	2000054c 	.word	0x2000054c
 800682c:	200005b4 	.word	0x200005b4

08006830 <global_stdio_init.part.0>:
 8006830:	b510      	push	{r4, lr}
 8006832:	4b0b      	ldr	r3, [pc, #44]	@ (8006860 <global_stdio_init.part.0+0x30>)
 8006834:	4c0b      	ldr	r4, [pc, #44]	@ (8006864 <global_stdio_init.part.0+0x34>)
 8006836:	4a0c      	ldr	r2, [pc, #48]	@ (8006868 <global_stdio_init.part.0+0x38>)
 8006838:	601a      	str	r2, [r3, #0]
 800683a:	4620      	mov	r0, r4
 800683c:	2200      	movs	r2, #0
 800683e:	2104      	movs	r1, #4
 8006840:	f7ff ff94 	bl	800676c <std>
 8006844:	f104 0068 	add.w	r0, r4, #104	@ 0x68
 8006848:	2201      	movs	r2, #1
 800684a:	2109      	movs	r1, #9
 800684c:	f7ff ff8e 	bl	800676c <std>
 8006850:	f104 00d0 	add.w	r0, r4, #208	@ 0xd0
 8006854:	2202      	movs	r2, #2
 8006856:	e8bd 4010 	ldmia.w	sp!, {r4, lr}
 800685a:	2112      	movs	r1, #18
 800685c:	f7ff bf86 	b.w	800676c <std>
 8006860:	2000061c 	.word	0x2000061c
 8006864:	200004e4 	.word	0x200004e4
 8006868:	080067d9 	.word	0x080067d9

0800686c <__sfp_lock_acquire>:
 800686c:	4801      	ldr	r0, [pc, #4]	@ (8006874 <__sfp_lock_acquire+0x8>)
 800686e:	f000 bace 	b.w	8006e0e <__retarget_lock_acquire_recursive>
 8006872:	bf00      	nop
 8006874:	20000625 	.word	0x20000625

08006878 <__sfp_lock_release>:
 8006878:	4801      	ldr	r0, [pc, #4]	@ (8006880 <__sfp_lock_release+0x8>)
 800687a:	f000 bac9 	b.w	8006e10 <__retarget_lock_release_recursive>
 800687e:	bf00      	nop
 8006880:	20000625 	.word	0x20000625

08006884 <__sinit>:
 8006884:	b510      	push	{r4, lr}
 8006886:	4604      	mov	r4, r0
 8006888:	f7ff fff0 	bl	800686c <__sfp_lock_acquire>
 800688c:	6a23      	ldr	r3, [r4, #32]
 800688e:	b11b      	cbz	r3, 8006898 <__sinit+0x14>
 8006890:	e8bd 4010 	ldmia.w	sp!, {r4, lr}
 8006894:	f7ff bff0 	b.w	8006878 <__sfp_lock_release>
 8006898:	4b04      	ldr	r3, [pc, #16]	@ (80068ac <__sinit+0x28>)
 800689a:	6223      	str	r3, [r4, #32]
 800689c:	4b04      	ldr	r3, [pc, #16]	@ (80068b0 <__sinit+0x2c>)
 800689e:	681b      	ldr	r3, [r3, #0]
 80068a0:	2b00      	cmp	r3, #0
 80068a2:	d1f5      	bne.n	8006890 <__sinit+0xc>
 80068a4:	f7ff ffc4 	bl	8006830 <global_stdio_init.part.0>
 80068a8:	e7f2      	b.n	8006890 <__sinit+0xc>
 80068aa:	bf00      	nop
 80068ac:	080067f1 	.word	0x080067f1
 80068b0:	2000061c 	.word	0x2000061c

080068b4 <_fwalk_sglue>:
 80068b4:	e92d 43f8 	stmdb	sp!, {r3, r4, r5, r6, r7, r8, r9, lr}
 80068b8:	4607      	mov	r7, r0
 80068ba:	4688      	mov	r8, r1
 80068bc:	4614      	mov	r4, r2
 80068be:	2600      	movs	r6, #0
 80068c0:	e9d4 9501 	ldrd	r9, r5, [r4, #4]
 80068c4:	f1b9 0901 	subs.w	r9, r9, #1
 80068c8:	d505      	bpl.n	80068d6 <_fwalk_sglue+0x22>
 80068ca:	6824      	ldr	r4, [r4, #0]
 80068cc:	2c00      	cmp	r4, #0
 80068ce:	d1f7      	bne.n	80068c0 <_fwalk_sglue+0xc>
 80068d0:	4630      	mov	r0, r6
 80068d2:	e8bd 83f8 	ldmia.w	sp!, {r3, r4, r5, r6, r7, r8, r9, pc}
 80068d6:	89ab      	ldrh	r3, [r5, #12]
 80068d8:	2b01      	cmp	r3, #1
 80068da:	d907      	bls.n	80068ec <_fwalk_sglue+0x38>
 80068dc:	f9b5 300e 	ldrsh.w	r3, [r5, #14]
 80068e0:	3301      	adds	r3, #1
 80068e2:	d003      	beq.n	80068ec <_fwalk_sglue+0x38>
 80068e4:	4629      	mov	r1, r5
 80068e6:	4638      	mov	r0, r7
 80068e8:	47c0      	blx	r8
 80068ea:	4306      	orrs	r6, r0
 80068ec:	3568      	adds	r5, #104	@ 0x68
 80068ee:	e7e9      	b.n	80068c4 <_fwalk_sglue+0x10>

080068f0 <iprintf>:
 80068f0:	b40f      	push	{r0, r1, r2, r3}
 80068f2:	b507      	push	{r0, r1, r2, lr}
 80068f4:	4906      	ldr	r1, [pc, #24]	@ (8006910 <iprintf+0x20>)
 80068f6:	ab04      	add	r3, sp, #16
 80068f8:	6808      	ldr	r0, [r1, #0]
 80068fa:	f853 2b04 	ldr.w	r2, [r3], #4
 80068fe:	6881      	ldr	r1, [r0, #8]
 8006900:	9301      	str	r3, [sp, #4]
 8006902:	f000 fbbf 	bl	8007084 <_vfiprintf_r>
 8006906:	b003      	add	sp, #12
 8006908:	f85d eb04 	ldr.w	lr, [sp], #4
 800690c:	b004      	add	sp, #16
 800690e:	4770      	bx	lr
 8006910:	200000d0 	.word	0x200000d0

08006914 <_puts_r>:
 8006914:	6a03      	ldr	r3, [r0, #32]
 8006916:	b570      	push	{r4, r5, r6, lr}
 8006918:	6884      	ldr	r4, [r0, #8]
 800691a:	4605      	mov	r5, r0
 800691c:	460e      	mov	r6, r1
 800691e:	b90b      	cbnz	r3, 8006924 <_puts_r+0x10>
 8006920:	f7ff ffb0 	bl	8006884 <__sinit>
 8006924:	6e63      	ldr	r3, [r4, #100]	@ 0x64
 8006926:	07db      	lsls	r3, r3, #31
 8006928:	d405      	bmi.n	8006936 <_puts_r+0x22>
 800692a:	89a3      	ldrh	r3, [r4, #12]
 800692c:	0598      	lsls	r0, r3, #22
 800692e:	d402      	bmi.n	8006936 <_puts_r+0x22>
 8006930:	6da0      	ldr	r0, [r4, #88]	@ 0x58
 8006932:	f000 fa6c 	bl	8006e0e <__retarget_lock_acquire_recursive>
 8006936:	89a3      	ldrh	r3, [r4, #12]
 8006938:	0719      	lsls	r1, r3, #28
 800693a:	d502      	bpl.n	8006942 <_puts_r+0x2e>
 800693c:	6923      	ldr	r3, [r4, #16]
 800693e:	2b00      	cmp	r3, #0
 8006940:	d135      	bne.n	80069ae <_puts_r+0x9a>
 8006942:	4621      	mov	r1, r4
 8006944:	4628      	mov	r0, r5
 8006946:	f000 f981 	bl	8006c4c <__swsetup_r>
 800694a:	b380      	cbz	r0, 80069ae <_puts_r+0x9a>
 800694c:	f04f 35ff 	mov.w	r5, #4294967295
 8006950:	6e63      	ldr	r3, [r4, #100]	@ 0x64
 8006952:	07da      	lsls	r2, r3, #31
 8006954:	d405      	bmi.n	8006962 <_puts_r+0x4e>
 8006956:	89a3      	ldrh	r3, [r4, #12]
 8006958:	059b      	lsls	r3, r3, #22
 800695a:	d402      	bmi.n	8006962 <_puts_r+0x4e>
 800695c:	6da0      	ldr	r0, [r4, #88]	@ 0x58
 800695e:	f000 fa57 	bl	8006e10 <__retarget_lock_release_recursive>
 8006962:	4628      	mov	r0, r5
 8006964:	bd70      	pop	{r4, r5, r6, pc}
 8006966:	2b00      	cmp	r3, #0
 8006968:	da04      	bge.n	8006974 <_puts_r+0x60>
 800696a:	69a2      	ldr	r2, [r4, #24]
 800696c:	429a      	cmp	r2, r3
 800696e:	dc17      	bgt.n	80069a0 <_puts_r+0x8c>
 8006970:	290a      	cmp	r1, #10
 8006972:	d015      	beq.n	80069a0 <_puts_r+0x8c>
 8006974:	6823      	ldr	r3, [r4, #0]
 8006976:	1c5a      	adds	r2, r3, #1
 8006978:	6022      	str	r2, [r4, #0]
 800697a:	7019      	strb	r1, [r3, #0]
 800697c:	68a3      	ldr	r3, [r4, #8]
 800697e:	f816 1f01 	ldrb.w	r1, [r6, #1]!
 8006982:	3b01      	subs	r3, #1
 8006984:	60a3      	str	r3, [r4, #8]
 8006986:	2900      	cmp	r1, #0
 8006988:	d1ed      	bne.n	8006966 <_puts_r+0x52>
 800698a:	2b00      	cmp	r3, #0
 800698c:	da11      	bge.n	80069b2 <_puts_r+0x9e>
 800698e:	4622      	mov	r2, r4
 8006990:	210a      	movs	r1, #10
 8006992:	4628      	mov	r0, r5
 8006994:	f000 f91b 	bl	8006bce <__swbuf_r>
 8006998:	3001      	adds	r0, #1
 800699a:	d0d7      	beq.n	800694c <_puts_r+0x38>
 800699c:	250a      	movs	r5, #10
 800699e:	e7d7      	b.n	8006950 <_puts_r+0x3c>
 80069a0:	4622      	mov	r2, r4
 80069a2:	4628      	mov	r0, r5
 80069a4:	f000 f913 	bl	8006bce <__swbuf_r>
 80069a8:	3001      	adds	r0, #1
 80069aa:	d1e7      	bne.n	800697c <_puts_r+0x68>
 80069ac:	e7ce      	b.n	800694c <_puts_r+0x38>
 80069ae:	3e01      	subs	r6, #1
 80069b0:	e7e4      	b.n	800697c <_puts_r+0x68>
 80069b2:	6823      	ldr	r3, [r4, #0]
 80069b4:	1c5a      	adds	r2, r3, #1
 80069b6:	6022      	str	r2, [r4, #0]
 80069b8:	220a      	movs	r2, #10
 80069ba:	701a      	strb	r2, [r3, #0]
 80069bc:	e7ee      	b.n	800699c <_puts_r+0x88>
	...

080069c0 <puts>:
 80069c0:	4b02      	ldr	r3, [pc, #8]	@ (80069cc <puts+0xc>)
 80069c2:	4601      	mov	r1, r0
 80069c4:	6818      	ldr	r0, [r3, #0]
 80069c6:	f7ff bfa5 	b.w	8006914 <_puts_r>
 80069ca:	bf00      	nop
 80069cc:	200000d0 	.word	0x200000d0

080069d0 <setbuf>:
 80069d0:	fab1 f281 	clz	r2, r1
 80069d4:	0952      	lsrs	r2, r2, #5
 80069d6:	f44f 6380 	mov.w	r3, #1024	@ 0x400
 80069da:	0052      	lsls	r2, r2, #1
 80069dc:	f000 b800 	b.w	80069e0 <setvbuf>

080069e0 <setvbuf>:
 80069e0:	e92d 43f7 	stmdb	sp!, {r0, r1, r2, r4, r5, r6, r7, r8, r9, lr}
 80069e4:	461d      	mov	r5, r3
 80069e6:	4b57      	ldr	r3, [pc, #348]	@ (8006b44 <setvbuf+0x164>)
 80069e8:	681f      	ldr	r7, [r3, #0]
 80069ea:	4604      	mov	r4, r0
 80069ec:	460e      	mov	r6, r1
 80069ee:	4690      	mov	r8, r2
 80069f0:	b127      	cbz	r7, 80069fc <setvbuf+0x1c>
 80069f2:	6a3b      	ldr	r3, [r7, #32]
 80069f4:	b913      	cbnz	r3, 80069fc <setvbuf+0x1c>
 80069f6:	4638      	mov	r0, r7
 80069f8:	f7ff ff44 	bl	8006884 <__sinit>
 80069fc:	f1b8 0f02 	cmp.w	r8, #2
 8006a00:	d006      	beq.n	8006a10 <setvbuf+0x30>
 8006a02:	f1b8 0f01 	cmp.w	r8, #1
 8006a06:	f200 809a 	bhi.w	8006b3e <setvbuf+0x15e>
 8006a0a:	2d00      	cmp	r5, #0
 8006a0c:	f2c0 8097 	blt.w	8006b3e <setvbuf+0x15e>
 8006a10:	6e63      	ldr	r3, [r4, #100]	@ 0x64
 8006a12:	07d9      	lsls	r1, r3, #31
 8006a14:	d405      	bmi.n	8006a22 <setvbuf+0x42>
 8006a16:	89a3      	ldrh	r3, [r4, #12]
 8006a18:	059a      	lsls	r2, r3, #22
 8006a1a:	d402      	bmi.n	8006a22 <setvbuf+0x42>
 8006a1c:	6da0      	ldr	r0, [r4, #88]	@ 0x58
 8006a1e:	f000 f9f6 	bl	8006e0e <__retarget_lock_acquire_recursive>
 8006a22:	4621      	mov	r1, r4
 8006a24:	4638      	mov	r0, r7
 8006a26:	f000 fe57 	bl	80076d8 <_fflush_r>
 8006a2a:	6b61      	ldr	r1, [r4, #52]	@ 0x34
 8006a2c:	b141      	cbz	r1, 8006a40 <setvbuf+0x60>
 8006a2e:	f104 0344 	add.w	r3, r4, #68	@ 0x44
 8006a32:	4299      	cmp	r1, r3
 8006a34:	d002      	beq.n	8006a3c <setvbuf+0x5c>
 8006a36:	4638      	mov	r0, r7
 8006a38:	f000 f9fa 	bl	8006e30 <_free_r>
 8006a3c:	2300      	movs	r3, #0
 8006a3e:	6363      	str	r3, [r4, #52]	@ 0x34
 8006a40:	2300      	movs	r3, #0
 8006a42:	61a3      	str	r3, [r4, #24]
 8006a44:	6063      	str	r3, [r4, #4]
 8006a46:	89a3      	ldrh	r3, [r4, #12]
 8006a48:	061b      	lsls	r3, r3, #24
 8006a4a:	d503      	bpl.n	8006a54 <setvbuf+0x74>
 8006a4c:	6921      	ldr	r1, [r4, #16]
 8006a4e:	4638      	mov	r0, r7
 8006a50:	f000 f9ee 	bl	8006e30 <_free_r>
 8006a54:	89a3      	ldrh	r3, [r4, #12]
 8006a56:	f423 634a 	bic.w	r3, r3, #3232	@ 0xca0
 8006a5a:	f023 0303 	bic.w	r3, r3, #3
 8006a5e:	f1b8 0f02 	cmp.w	r8, #2
 8006a62:	81a3      	strh	r3, [r4, #12]
 8006a64:	d061      	beq.n	8006b2a <setvbuf+0x14a>
 8006a66:	ab01      	add	r3, sp, #4
 8006a68:	466a      	mov	r2, sp
 8006a6a:	4621      	mov	r1, r4
 8006a6c:	4638      	mov	r0, r7
 8006a6e:	f000 fe5b 	bl	8007728 <__swhatbuf_r>
 8006a72:	89a3      	ldrh	r3, [r4, #12]
 8006a74:	4318      	orrs	r0, r3
 8006a76:	81a0      	strh	r0, [r4, #12]
 8006a78:	bb2d      	cbnz	r5, 8006ac6 <setvbuf+0xe6>
 8006a7a:	9d00      	ldr	r5, [sp, #0]
 8006a7c:	4628      	mov	r0, r5
 8006a7e:	f000 fa21 	bl	8006ec4 <malloc>
 8006a82:	4606      	mov	r6, r0
 8006a84:	2800      	cmp	r0, #0
 8006a86:	d152      	bne.n	8006b2e <setvbuf+0x14e>
 8006a88:	f8dd 9000 	ldr.w	r9, [sp]
 8006a8c:	45a9      	cmp	r9, r5
 8006a8e:	d140      	bne.n	8006b12 <setvbuf+0x132>
 8006a90:	f04f 35ff 	mov.w	r5, #4294967295
 8006a94:	f9b4 300c 	ldrsh.w	r3, [r4, #12]
 8006a98:	f043 0202 	orr.w	r2, r3, #2
 8006a9c:	81a2      	strh	r2, [r4, #12]
 8006a9e:	2200      	movs	r2, #0
 8006aa0:	60a2      	str	r2, [r4, #8]
 8006aa2:	f104 0247 	add.w	r2, r4, #71	@ 0x47
 8006aa6:	6022      	str	r2, [r4, #0]
 8006aa8:	6122      	str	r2, [r4, #16]
 8006aaa:	2201      	movs	r2, #1
 8006aac:	6162      	str	r2, [r4, #20]
 8006aae:	6e62      	ldr	r2, [r4, #100]	@ 0x64
 8006ab0:	07d6      	lsls	r6, r2, #31
 8006ab2:	d404      	bmi.n	8006abe <setvbuf+0xde>
 8006ab4:	0598      	lsls	r0, r3, #22
 8006ab6:	d402      	bmi.n	8006abe <setvbuf+0xde>
 8006ab8:	6da0      	ldr	r0, [r4, #88]	@ 0x58
 8006aba:	f000 f9a9 	bl	8006e10 <__retarget_lock_release_recursive>
 8006abe:	4628      	mov	r0, r5
 8006ac0:	b003      	add	sp, #12
 8006ac2:	e8bd 83f0 	ldmia.w	sp!, {r4, r5, r6, r7, r8, r9, pc}
 8006ac6:	2e00      	cmp	r6, #0
 8006ac8:	d0d8      	beq.n	8006a7c <setvbuf+0x9c>
 8006aca:	6a3b      	ldr	r3, [r7, #32]
 8006acc:	b913      	cbnz	r3, 8006ad4 <setvbuf+0xf4>
 8006ace:	4638      	mov	r0, r7
 8006ad0:	f7ff fed8 	bl	8006884 <__sinit>
 8006ad4:	f1b8 0f01 	cmp.w	r8, #1
 8006ad8:	bf08      	it	eq
 8006ada:	89a3      	ldrheq	r3, [r4, #12]
 8006adc:	6026      	str	r6, [r4, #0]
 8006ade:	bf04      	itt	eq
 8006ae0:	f043 0301 	orreq.w	r3, r3, #1
 8006ae4:	81a3      	strheq	r3, [r4, #12]
 8006ae6:	f9b4 300c 	ldrsh.w	r3, [r4, #12]
 8006aea:	f013 0208 	ands.w	r2, r3, #8
 8006aee:	e9c4 6504 	strd	r6, r5, [r4, #16]
 8006af2:	d01e      	beq.n	8006b32 <setvbuf+0x152>
 8006af4:	07d9      	lsls	r1, r3, #31
 8006af6:	bf41      	itttt	mi
 8006af8:	2200      	movmi	r2, #0
 8006afa:	426d      	negmi	r5, r5
 8006afc:	60a2      	strmi	r2, [r4, #8]
 8006afe:	61a5      	strmi	r5, [r4, #24]
 8006b00:	bf58      	it	pl
 8006b02:	60a5      	strpl	r5, [r4, #8]
 8006b04:	6e62      	ldr	r2, [r4, #100]	@ 0x64
 8006b06:	07d2      	lsls	r2, r2, #31
 8006b08:	d401      	bmi.n	8006b0e <setvbuf+0x12e>
 8006b0a:	059b      	lsls	r3, r3, #22
 8006b0c:	d513      	bpl.n	8006b36 <setvbuf+0x156>
 8006b0e:	2500      	movs	r5, #0
 8006b10:	e7d5      	b.n	8006abe <setvbuf+0xde>
 8006b12:	4648      	mov	r0, r9
 8006b14:	f000 f9d6 	bl	8006ec4 <malloc>
 8006b18:	4606      	mov	r6, r0
 8006b1a:	2800      	cmp	r0, #0
 8006b1c:	d0b8      	beq.n	8006a90 <setvbuf+0xb0>
 8006b1e:	89a3      	ldrh	r3, [r4, #12]
 8006b20:	f043 0380 	orr.w	r3, r3, #128	@ 0x80
 8006b24:	81a3      	strh	r3, [r4, #12]
 8006b26:	464d      	mov	r5, r9
 8006b28:	e7cf      	b.n	8006aca <setvbuf+0xea>
 8006b2a:	2500      	movs	r5, #0
 8006b2c:	e7b2      	b.n	8006a94 <setvbuf+0xb4>
 8006b2e:	46a9      	mov	r9, r5
 8006b30:	e7f5      	b.n	8006b1e <setvbuf+0x13e>
 8006b32:	60a2      	str	r2, [r4, #8]
 8006b34:	e7e6      	b.n	8006b04 <setvbuf+0x124>
 8006b36:	6da0      	ldr	r0, [r4, #88]	@ 0x58
 8006b38:	f000 f96a 	bl	8006e10 <__retarget_lock_release_recursive>
 8006b3c:	e7e7      	b.n	8006b0e <setvbuf+0x12e>
 8006b3e:	f04f 35ff 	mov.w	r5, #4294967295
 8006b42:	e7bc      	b.n	8006abe <setvbuf+0xde>
 8006b44:	200000d0 	.word	0x200000d0

08006b48 <__sread>:
 8006b48:	b510      	push	{r4, lr}
 8006b4a:	460c      	mov	r4, r1
 8006b4c:	f9b1 100e 	ldrsh.w	r1, [r1, #14]
 8006b50:	f000 f90e 	bl	8006d70 <_read_r>
 8006b54:	2800      	cmp	r0, #0
 8006b56:	bfab      	itete	ge
 8006b58:	6d63      	ldrge	r3, [r4, #84]	@ 0x54
 8006b5a:	89a3      	ldrhlt	r3, [r4, #12]
 8006b5c:	181b      	addge	r3, r3, r0
 8006b5e:	f423 5380 	biclt.w	r3, r3, #4096	@ 0x1000
 8006b62:	bfac      	ite	ge
 8006b64:	6563      	strge	r3, [r4, #84]	@ 0x54
 8006b66:	81a3      	strhlt	r3, [r4, #12]
 8006b68:	bd10      	pop	{r4, pc}

08006b6a <__swrite>:
 8006b6a:	e92d 41f0 	stmdb	sp!, {r4, r5, r6, r7, r8, lr}
 8006b6e:	461f      	mov	r7, r3
 8006b70:	898b      	ldrh	r3, [r1, #12]
 8006b72:	05db      	lsls	r3, r3, #23
 8006b74:	4605      	mov	r5, r0
 8006b76:	460c      	mov	r4, r1
 8006b78:	4616      	mov	r6, r2
 8006b7a:	d505      	bpl.n	8006b88 <__swrite+0x1e>
 8006b7c:	f9b1 100e 	ldrsh.w	r1, [r1, #14]
 8006b80:	2302      	movs	r3, #2
 8006b82:	2200      	movs	r2, #0
 8006b84:	f000 f8e2 	bl	8006d4c <_lseek_r>
 8006b88:	89a3      	ldrh	r3, [r4, #12]
 8006b8a:	f9b4 100e 	ldrsh.w	r1, [r4, #14]
 8006b8e:	f423 5380 	bic.w	r3, r3, #4096	@ 0x1000
 8006b92:	81a3      	strh	r3, [r4, #12]
 8006b94:	4632      	mov	r2, r6
 8006b96:	463b      	mov	r3, r7
 8006b98:	4628      	mov	r0, r5
 8006b9a:	e8bd 41f0 	ldmia.w	sp!, {r4, r5, r6, r7, r8, lr}
 8006b9e:	f000 b8f9 	b.w	8006d94 <_write_r>

08006ba2 <__sseek>:
 8006ba2:	b510      	push	{r4, lr}
 8006ba4:	460c      	mov	r4, r1
 8006ba6:	f9b1 100e 	ldrsh.w	r1, [r1, #14]
 8006baa:	f000 f8cf 	bl	8006d4c <_lseek_r>
 8006bae:	1c43      	adds	r3, r0, #1
 8006bb0:	89a3      	ldrh	r3, [r4, #12]
 8006bb2:	bf15      	itete	ne
 8006bb4:	6560      	strne	r0, [r4, #84]	@ 0x54
 8006bb6:	f423 5380 	biceq.w	r3, r3, #4096	@ 0x1000
 8006bba:	f443 5380 	orrne.w	r3, r3, #4096	@ 0x1000
 8006bbe:	81a3      	strheq	r3, [r4, #12]
 8006bc0:	bf18      	it	ne
 8006bc2:	81a3      	strhne	r3, [r4, #12]
 8006bc4:	bd10      	pop	{r4, pc}

08006bc6 <__sclose>:
 8006bc6:	f9b1 100e 	ldrsh.w	r1, [r1, #14]
 8006bca:	f000 b8af 	b.w	8006d2c <_close_r>

08006bce <__swbuf_r>:
 8006bce:	b5f8      	push	{r3, r4, r5, r6, r7, lr}
 8006bd0:	460e      	mov	r6, r1
 8006bd2:	4614      	mov	r4, r2
 8006bd4:	4605      	mov	r5, r0
 8006bd6:	b118      	cbz	r0, 8006be0 <__swbuf_r+0x12>
 8006bd8:	6a03      	ldr	r3, [r0, #32]
 8006bda:	b90b      	cbnz	r3, 8006be0 <__swbuf_r+0x12>
 8006bdc:	f7ff fe52 	bl	8006884 <__sinit>
 8006be0:	69a3      	ldr	r3, [r4, #24]
 8006be2:	60a3      	str	r3, [r4, #8]
 8006be4:	89a3      	ldrh	r3, [r4, #12]
 8006be6:	071a      	lsls	r2, r3, #28
 8006be8:	d501      	bpl.n	8006bee <__swbuf_r+0x20>
 8006bea:	6923      	ldr	r3, [r4, #16]
 8006bec:	b943      	cbnz	r3, 8006c00 <__swbuf_r+0x32>
 8006bee:	4621      	mov	r1, r4
 8006bf0:	4628      	mov	r0, r5
 8006bf2:	f000 f82b 	bl	8006c4c <__swsetup_r>
 8006bf6:	b118      	cbz	r0, 8006c00 <__swbuf_r+0x32>
 8006bf8:	f04f 37ff 	mov.w	r7, #4294967295
 8006bfc:	4638      	mov	r0, r7
 8006bfe:	bdf8      	pop	{r3, r4, r5, r6, r7, pc}
 8006c00:	6823      	ldr	r3, [r4, #0]
 8006c02:	6922      	ldr	r2, [r4, #16]
 8006c04:	1a98      	subs	r0, r3, r2
 8006c06:	6963      	ldr	r3, [r4, #20]
 8006c08:	b2f6      	uxtb	r6, r6
 8006c0a:	4283      	cmp	r3, r0
 8006c0c:	4637      	mov	r7, r6
 8006c0e:	dc05      	bgt.n	8006c1c <__swbuf_r+0x4e>
 8006c10:	4621      	mov	r1, r4
 8006c12:	4628      	mov	r0, r5
 8006c14:	f000 fd60 	bl	80076d8 <_fflush_r>
 8006c18:	2800      	cmp	r0, #0
 8006c1a:	d1ed      	bne.n	8006bf8 <__swbuf_r+0x2a>
 8006c1c:	68a3      	ldr	r3, [r4, #8]
 8006c1e:	3b01      	subs	r3, #1
 8006c20:	60a3      	str	r3, [r4, #8]
 8006c22:	6823      	ldr	r3, [r4, #0]
 8006c24:	1c5a      	adds	r2, r3, #1
 8006c26:	6022      	str	r2, [r4, #0]
 8006c28:	701e      	strb	r6, [r3, #0]
 8006c2a:	6962      	ldr	r2, [r4, #20]
 8006c2c:	1c43      	adds	r3, r0, #1
 8006c2e:	429a      	cmp	r2, r3
 8006c30:	d004      	beq.n	8006c3c <__swbuf_r+0x6e>
 8006c32:	89a3      	ldrh	r3, [r4, #12]
 8006c34:	07db      	lsls	r3, r3, #31
 8006c36:	d5e1      	bpl.n	8006bfc <__swbuf_r+0x2e>
 8006c38:	2e0a      	cmp	r6, #10
 8006c3a:	d1df      	bne.n	8006bfc <__swbuf_r+0x2e>
 8006c3c:	4621      	mov	r1, r4
 8006c3e:	4628      	mov	r0, r5
 8006c40:	f000 fd4a 	bl	80076d8 <_fflush_r>
 8006c44:	2800      	cmp	r0, #0
 8006c46:	d0d9      	beq.n	8006bfc <__swbuf_r+0x2e>
 8006c48:	e7d6      	b.n	8006bf8 <__swbuf_r+0x2a>
	...

08006c4c <__swsetup_r>:
 8006c4c:	b538      	push	{r3, r4, r5, lr}
 8006c4e:	4b29      	ldr	r3, [pc, #164]	@ (8006cf4 <__swsetup_r+0xa8>)
 8006c50:	4605      	mov	r5, r0
 8006c52:	6818      	ldr	r0, [r3, #0]
 8006c54:	460c      	mov	r4, r1
 8006c56:	b118      	cbz	r0, 8006c60 <__swsetup_r+0x14>
 8006c58:	6a03      	ldr	r3, [r0, #32]
 8006c5a:	b90b      	cbnz	r3, 8006c60 <__swsetup_r+0x14>
 8006c5c:	f7ff fe12 	bl	8006884 <__sinit>
 8006c60:	f9b4 300c 	ldrsh.w	r3, [r4, #12]
 8006c64:	0719      	lsls	r1, r3, #28
 8006c66:	d422      	bmi.n	8006cae <__swsetup_r+0x62>
 8006c68:	06da      	lsls	r2, r3, #27
 8006c6a:	d407      	bmi.n	8006c7c <__swsetup_r+0x30>
 8006c6c:	2209      	movs	r2, #9
 8006c6e:	602a      	str	r2, [r5, #0]
 8006c70:	f043 0340 	orr.w	r3, r3, #64	@ 0x40
 8006c74:	81a3      	strh	r3, [r4, #12]
 8006c76:	f04f 30ff 	mov.w	r0, #4294967295
 8006c7a:	e033      	b.n	8006ce4 <__swsetup_r+0x98>
 8006c7c:	0758      	lsls	r0, r3, #29
 8006c7e:	d512      	bpl.n	8006ca6 <__swsetup_r+0x5a>
 8006c80:	6b61      	ldr	r1, [r4, #52]	@ 0x34
 8006c82:	b141      	cbz	r1, 8006c96 <__swsetup_r+0x4a>
 8006c84:	f104 0344 	add.w	r3, r4, #68	@ 0x44
 8006c88:	4299      	cmp	r1, r3
 8006c8a:	d002      	beq.n	8006c92 <__swsetup_r+0x46>
 8006c8c:	4628      	mov	r0, r5
 8006c8e:	f000 f8cf 	bl	8006e30 <_free_r>
 8006c92:	2300      	movs	r3, #0
 8006c94:	6363      	str	r3, [r4, #52]	@ 0x34
 8006c96:	89a3      	ldrh	r3, [r4, #12]
 8006c98:	f023 0324 	bic.w	r3, r3, #36	@ 0x24
 8006c9c:	81a3      	strh	r3, [r4, #12]
 8006c9e:	2300      	movs	r3, #0
 8006ca0:	6063      	str	r3, [r4, #4]
 8006ca2:	6923      	ldr	r3, [r4, #16]
 8006ca4:	6023      	str	r3, [r4, #0]
 8006ca6:	89a3      	ldrh	r3, [r4, #12]
 8006ca8:	f043 0308 	orr.w	r3, r3, #8
 8006cac:	81a3      	strh	r3, [r4, #12]
 8006cae:	6923      	ldr	r3, [r4, #16]
 8006cb0:	b94b      	cbnz	r3, 8006cc6 <__swsetup_r+0x7a>
 8006cb2:	89a3      	ldrh	r3, [r4, #12]
 8006cb4:	f403 7320 	and.w	r3, r3, #640	@ 0x280
 8006cb8:	f5b3 7f00 	cmp.w	r3, #512	@ 0x200
 8006cbc:	d003      	beq.n	8006cc6 <__swsetup_r+0x7a>
 8006cbe:	4621      	mov	r1, r4
 8006cc0:	4628      	mov	r0, r5
 8006cc2:	f000 fd57 	bl	8007774 <__smakebuf_r>
 8006cc6:	f9b4 300c 	ldrsh.w	r3, [r4, #12]
 8006cca:	f013 0201 	ands.w	r2, r3, #1
 8006cce:	d00a      	beq.n	8006ce6 <__swsetup_r+0x9a>
 8006cd0:	2200      	movs	r2, #0
 8006cd2:	60a2      	str	r2, [r4, #8]
 8006cd4:	6962      	ldr	r2, [r4, #20]
 8006cd6:	4252      	negs	r2, r2
 8006cd8:	61a2      	str	r2, [r4, #24]
 8006cda:	6922      	ldr	r2, [r4, #16]
 8006cdc:	b942      	cbnz	r2, 8006cf0 <__swsetup_r+0xa4>
 8006cde:	f013 0080 	ands.w	r0, r3, #128	@ 0x80
 8006ce2:	d1c5      	bne.n	8006c70 <__swsetup_r+0x24>
 8006ce4:	bd38      	pop	{r3, r4, r5, pc}
 8006ce6:	0799      	lsls	r1, r3, #30
 8006ce8:	bf58      	it	pl
 8006cea:	6962      	ldrpl	r2, [r4, #20]
 8006cec:	60a2      	str	r2, [r4, #8]
 8006cee:	e7f4      	b.n	8006cda <__swsetup_r+0x8e>
 8006cf0:	2000      	movs	r0, #0
 8006cf2:	e7f7      	b.n	8006ce4 <__swsetup_r+0x98>
 8006cf4:	200000d0 	.word	0x200000d0

08006cf8 <memset>:
 8006cf8:	4402      	add	r2, r0
 8006cfa:	4603      	mov	r3, r0
 8006cfc:	4293      	cmp	r3, r2
 8006cfe:	d100      	bne.n	8006d02 <memset+0xa>
 8006d00:	4770      	bx	lr
 8006d02:	f803 1b01 	strb.w	r1, [r3], #1
 8006d06:	e7f9      	b.n	8006cfc <memset+0x4>

08006d08 <strncmp>:
 8006d08:	b510      	push	{r4, lr}
 8006d0a:	b16a      	cbz	r2, 8006d28 <strncmp+0x20>
 8006d0c:	3901      	subs	r1, #1
 8006d0e:	1884      	adds	r4, r0, r2
 8006d10:	f810 2b01 	ldrb.w	r2, [r0], #1
 8006d14:	f811 3f01 	ldrb.w	r3, [r1, #1]!
 8006d18:	429a      	cmp	r2, r3
 8006d1a:	d103      	bne.n	8006d24 <strncmp+0x1c>
 8006d1c:	42a0      	cmp	r0, r4
 8006d1e:	d001      	beq.n	8006d24 <strncmp+0x1c>
 8006d20:	2a00      	cmp	r2, #0
 8006d22:	d1f5      	bne.n	8006d10 <strncmp+0x8>
 8006d24:	1ad0      	subs	r0, r2, r3
 8006d26:	bd10      	pop	{r4, pc}
 8006d28:	4610      	mov	r0, r2
 8006d2a:	e7fc      	b.n	8006d26 <strncmp+0x1e>

08006d2c <_close_r>:
 8006d2c:	b538      	push	{r3, r4, r5, lr}
 8006d2e:	4d06      	ldr	r5, [pc, #24]	@ (8006d48 <_close_r+0x1c>)
 8006d30:	2300      	movs	r3, #0
 8006d32:	4604      	mov	r4, r0
 8006d34:	4608      	mov	r0, r1
 8006d36:	602b      	str	r3, [r5, #0]
 8006d38:	f7fa f827 	bl	8000d8a <_close>
 8006d3c:	1c43      	adds	r3, r0, #1
 8006d3e:	d102      	bne.n	8006d46 <_close_r+0x1a>
 8006d40:	682b      	ldr	r3, [r5, #0]
 8006d42:	b103      	cbz	r3, 8006d46 <_close_r+0x1a>
 8006d44:	6023      	str	r3, [r4, #0]
 8006d46:	bd38      	pop	{r3, r4, r5, pc}
 8006d48:	20000620 	.word	0x20000620

08006d4c <_lseek_r>:
 8006d4c:	b538      	push	{r3, r4, r5, lr}
 8006d4e:	4d07      	ldr	r5, [pc, #28]	@ (8006d6c <_lseek_r+0x20>)
 8006d50:	4604      	mov	r4, r0
 8006d52:	4608      	mov	r0, r1
 8006d54:	4611      	mov	r1, r2
 8006d56:	2200      	movs	r2, #0
 8006d58:	602a      	str	r2, [r5, #0]
 8006d5a:	461a      	mov	r2, r3
 8006d5c:	f7fa f83c 	bl	8000dd8 <_lseek>
 8006d60:	1c43      	adds	r3, r0, #1
 8006d62:	d102      	bne.n	8006d6a <_lseek_r+0x1e>
 8006d64:	682b      	ldr	r3, [r5, #0]
 8006d66:	b103      	cbz	r3, 8006d6a <_lseek_r+0x1e>
 8006d68:	6023      	str	r3, [r4, #0]
 8006d6a:	bd38      	pop	{r3, r4, r5, pc}
 8006d6c:	20000620 	.word	0x20000620

08006d70 <_read_r>:
 8006d70:	b538      	push	{r3, r4, r5, lr}
 8006d72:	4d07      	ldr	r5, [pc, #28]	@ (8006d90 <_read_r+0x20>)
 8006d74:	4604      	mov	r4, r0
 8006d76:	4608      	mov	r0, r1
 8006d78:	4611      	mov	r1, r2
 8006d7a:	2200      	movs	r2, #0
 8006d7c:	602a      	str	r2, [r5, #0]
 8006d7e:	461a      	mov	r2, r3
 8006d80:	f7f9 ffca 	bl	8000d18 <_read>
 8006d84:	1c43      	adds	r3, r0, #1
 8006d86:	d102      	bne.n	8006d8e <_read_r+0x1e>
 8006d88:	682b      	ldr	r3, [r5, #0]
 8006d8a:	b103      	cbz	r3, 8006d8e <_read_r+0x1e>
 8006d8c:	6023      	str	r3, [r4, #0]
 8006d8e:	bd38      	pop	{r3, r4, r5, pc}
 8006d90:	20000620 	.word	0x20000620

08006d94 <_write_r>:
 8006d94:	b538      	push	{r3, r4, r5, lr}
 8006d96:	4d07      	ldr	r5, [pc, #28]	@ (8006db4 <_write_r+0x20>)
 8006d98:	4604      	mov	r4, r0
 8006d9a:	4608      	mov	r0, r1
 8006d9c:	4611      	mov	r1, r2
 8006d9e:	2200      	movs	r2, #0
 8006da0:	602a      	str	r2, [r5, #0]
 8006da2:	461a      	mov	r2, r3
 8006da4:	f7f9 ffd5 	bl	8000d52 <_write>
 8006da8:	1c43      	adds	r3, r0, #1
 8006daa:	d102      	bne.n	8006db2 <_write_r+0x1e>
 8006dac:	682b      	ldr	r3, [r5, #0]
 8006dae:	b103      	cbz	r3, 8006db2 <_write_r+0x1e>
 8006db0:	6023      	str	r3, [r4, #0]
 8006db2:	bd38      	pop	{r3, r4, r5, pc}
 8006db4:	20000620 	.word	0x20000620

08006db8 <__errno>:
 8006db8:	4b01      	ldr	r3, [pc, #4]	@ (8006dc0 <__errno+0x8>)
 8006dba:	6818      	ldr	r0, [r3, #0]
 8006dbc:	4770      	bx	lr
 8006dbe:	bf00      	nop
 8006dc0:	200000d0 	.word	0x200000d0

08006dc4 <__libc_init_array>:
 8006dc4:	b570      	push	{r4, r5, r6, lr}
 8006dc6:	4d0d      	ldr	r5, [pc, #52]	@ (8006dfc <__libc_init_array+0x38>)
 8006dc8:	4c0d      	ldr	r4, [pc, #52]	@ (8006e00 <__libc_init_array+0x3c>)
 8006dca:	1b64      	subs	r4, r4, r5
 8006dcc:	10a4      	asrs	r4, r4, #2
 8006dce:	2600      	movs	r6, #0
 8006dd0:	42a6      	cmp	r6, r4
 8006dd2:	d109      	bne.n	8006de8 <__libc_init_array+0x24>
 8006dd4:	4d0b      	ldr	r5, [pc, #44]	@ (8006e04 <__libc_init_array+0x40>)
 8006dd6:	4c0c      	ldr	r4, [pc, #48]	@ (8006e08 <__libc_init_array+0x44>)
 8006dd8:	f000 fd3a 	bl	8007850 <_init>
 8006ddc:	1b64      	subs	r4, r4, r5
 8006dde:	10a4      	asrs	r4, r4, #2
 8006de0:	2600      	movs	r6, #0
 8006de2:	42a6      	cmp	r6, r4
 8006de4:	d105      	bne.n	8006df2 <__libc_init_array+0x2e>
 8006de6:	bd70      	pop	{r4, r5, r6, pc}
 8006de8:	f855 3b04 	ldr.w	r3, [r5], #4
 8006dec:	4798      	blx	r3
 8006dee:	3601      	adds	r6, #1
 8006df0:	e7ee      	b.n	8006dd0 <__libc_init_array+0xc>
 8006df2:	f855 3b04 	ldr.w	r3, [r5], #4
 8006df6:	4798      	blx	r3
 8006df8:	3601      	adds	r6, #1
 8006dfa:	e7f2      	b.n	8006de2 <__libc_init_array+0x1e>
 8006dfc:	08007bf0 	.word	0x08007bf0
 8006e00:	08007bf0 	.word	0x08007bf0
 8006e04:	08007bf0 	.word	0x08007bf0
 8006e08:	08007bf4 	.word	0x08007bf4

08006e0c <__retarget_lock_init_recursive>:
 8006e0c:	4770      	bx	lr

08006e0e <__retarget_lock_acquire_recursive>:
 8006e0e:	4770      	bx	lr

08006e10 <__retarget_lock_release_recursive>:
 8006e10:	4770      	bx	lr

08006e12 <memcpy>:
 8006e12:	440a      	add	r2, r1
 8006e14:	4291      	cmp	r1, r2
 8006e16:	f100 33ff 	add.w	r3, r0, #4294967295
 8006e1a:	d100      	bne.n	8006e1e <memcpy+0xc>
 8006e1c:	4770      	bx	lr
 8006e1e:	b510      	push	{r4, lr}
 8006e20:	f811 4b01 	ldrb.w	r4, [r1], #1
 8006e24:	f803 4f01 	strb.w	r4, [r3, #1]!
 8006e28:	4291      	cmp	r1, r2
 8006e2a:	d1f9      	bne.n	8006e20 <memcpy+0xe>
 8006e2c:	bd10      	pop	{r4, pc}
	...

08006e30 <_free_r>:
 8006e30:	b538      	push	{r3, r4, r5, lr}
 8006e32:	4605      	mov	r5, r0
 8006e34:	2900      	cmp	r1, #0
 8006e36:	d041      	beq.n	8006ebc <_free_r+0x8c>
 8006e38:	f851 3c04 	ldr.w	r3, [r1, #-4]
 8006e3c:	1f0c      	subs	r4, r1, #4
 8006e3e:	2b00      	cmp	r3, #0
 8006e40:	bfb8      	it	lt
 8006e42:	18e4      	addlt	r4, r4, r3
 8006e44:	f000 f8e8 	bl	8007018 <__malloc_lock>
 8006e48:	4a1d      	ldr	r2, [pc, #116]	@ (8006ec0 <_free_r+0x90>)
 8006e4a:	6813      	ldr	r3, [r2, #0]
 8006e4c:	b933      	cbnz	r3, 8006e5c <_free_r+0x2c>
 8006e4e:	6063      	str	r3, [r4, #4]
 8006e50:	6014      	str	r4, [r2, #0]
 8006e52:	4628      	mov	r0, r5
 8006e54:	e8bd 4038 	ldmia.w	sp!, {r3, r4, r5, lr}
 8006e58:	f000 b8e4 	b.w	8007024 <__malloc_unlock>
 8006e5c:	42a3      	cmp	r3, r4
 8006e5e:	d908      	bls.n	8006e72 <_free_r+0x42>
 8006e60:	6820      	ldr	r0, [r4, #0]
 8006e62:	1821      	adds	r1, r4, r0
 8006e64:	428b      	cmp	r3, r1
 8006e66:	bf01      	itttt	eq
 8006e68:	6819      	ldreq	r1, [r3, #0]
 8006e6a:	685b      	ldreq	r3, [r3, #4]
 8006e6c:	1809      	addeq	r1, r1, r0
 8006e6e:	6021      	streq	r1, [r4, #0]
 8006e70:	e7ed      	b.n	8006e4e <_free_r+0x1e>
 8006e72:	461a      	mov	r2, r3
 8006e74:	685b      	ldr	r3, [r3, #4]
 8006e76:	b10b      	cbz	r3, 8006e7c <_free_r+0x4c>
 8006e78:	42a3      	cmp	r3, r4
 8006e7a:	d9fa      	bls.n	8006e72 <_free_r+0x42>
 8006e7c:	6811      	ldr	r1, [r2, #0]
 8006e7e:	1850      	adds	r0, r2, r1
 8006e80:	42a0      	cmp	r0, r4
 8006e82:	d10b      	bne.n	8006e9c <_free_r+0x6c>
 8006e84:	6820      	ldr	r0, [r4, #0]
 8006e86:	4401      	add	r1, r0
 8006e88:	1850      	adds	r0, r2, r1
 8006e8a:	4283      	cmp	r3, r0
 8006e8c:	6011      	str	r1, [r2, #0]
 8006e8e:	d1e0      	bne.n	8006e52 <_free_r+0x22>
 8006e90:	6818      	ldr	r0, [r3, #0]
 8006e92:	685b      	ldr	r3, [r3, #4]
 8006e94:	6053      	str	r3, [r2, #4]
 8006e96:	4408      	add	r0, r1
 8006e98:	6010      	str	r0, [r2, #0]
 8006e9a:	e7da      	b.n	8006e52 <_free_r+0x22>
 8006e9c:	d902      	bls.n	8006ea4 <_free_r+0x74>
 8006e9e:	230c      	movs	r3, #12
 8006ea0:	602b      	str	r3, [r5, #0]
 8006ea2:	e7d6      	b.n	8006e52 <_free_r+0x22>
 8006ea4:	6820      	ldr	r0, [r4, #0]
 8006ea6:	1821      	adds	r1, r4, r0
 8006ea8:	428b      	cmp	r3, r1
 8006eaa:	bf04      	itt	eq
 8006eac:	6819      	ldreq	r1, [r3, #0]
 8006eae:	685b      	ldreq	r3, [r3, #4]
 8006eb0:	6063      	str	r3, [r4, #4]
 8006eb2:	bf04      	itt	eq
 8006eb4:	1809      	addeq	r1, r1, r0
 8006eb6:	6021      	streq	r1, [r4, #0]
 8006eb8:	6054      	str	r4, [r2, #4]
 8006eba:	e7ca      	b.n	8006e52 <_free_r+0x22>
 8006ebc:	bd38      	pop	{r3, r4, r5, pc}
 8006ebe:	bf00      	nop
 8006ec0:	2000062c 	.word	0x2000062c

08006ec4 <malloc>:
 8006ec4:	4b02      	ldr	r3, [pc, #8]	@ (8006ed0 <malloc+0xc>)
 8006ec6:	4601      	mov	r1, r0
 8006ec8:	6818      	ldr	r0, [r3, #0]
 8006eca:	f000 b825 	b.w	8006f18 <_malloc_r>
 8006ece:	bf00      	nop
 8006ed0:	200000d0 	.word	0x200000d0

08006ed4 <sbrk_aligned>:
 8006ed4:	b570      	push	{r4, r5, r6, lr}
 8006ed6:	4e0f      	ldr	r6, [pc, #60]	@ (8006f14 <sbrk_aligned+0x40>)
 8006ed8:	460c      	mov	r4, r1
 8006eda:	6831      	ldr	r1, [r6, #0]
 8006edc:	4605      	mov	r5, r0
 8006ede:	b911      	cbnz	r1, 8006ee6 <sbrk_aligned+0x12>
 8006ee0:	f000 fca6 	bl	8007830 <_sbrk_r>
 8006ee4:	6030      	str	r0, [r6, #0]
 8006ee6:	4621      	mov	r1, r4
 8006ee8:	4628      	mov	r0, r5
 8006eea:	f000 fca1 	bl	8007830 <_sbrk_r>
 8006eee:	1c43      	adds	r3, r0, #1
 8006ef0:	d103      	bne.n	8006efa <sbrk_aligned+0x26>
 8006ef2:	f04f 34ff 	mov.w	r4, #4294967295
 8006ef6:	4620      	mov	r0, r4
 8006ef8:	bd70      	pop	{r4, r5, r6, pc}
 8006efa:	1cc4      	adds	r4, r0, #3
 8006efc:	f024 0403 	bic.w	r4, r4, #3
 8006f00:	42a0      	cmp	r0, r4
 8006f02:	d0f8      	beq.n	8006ef6 <sbrk_aligned+0x22>
 8006f04:	1a21      	subs	r1, r4, r0
 8006f06:	4628      	mov	r0, r5
 8006f08:	f000 fc92 	bl	8007830 <_sbrk_r>
 8006f0c:	3001      	adds	r0, #1
 8006f0e:	d1f2      	bne.n	8006ef6 <sbrk_aligned+0x22>
 8006f10:	e7ef      	b.n	8006ef2 <sbrk_aligned+0x1e>
 8006f12:	bf00      	nop
 8006f14:	20000628 	.word	0x20000628

08006f18 <_malloc_r>:
 8006f18:	e92d 43f8 	stmdb	sp!, {r3, r4, r5, r6, r7, r8, r9, lr}
 8006f1c:	1ccd      	adds	r5, r1, #3
 8006f1e:	f025 0503 	bic.w	r5, r5, #3
 8006f22:	3508      	adds	r5, #8
 8006f24:	2d0c      	cmp	r5, #12
 8006f26:	bf38      	it	cc
 8006f28:	250c      	movcc	r5, #12
 8006f2a:	2d00      	cmp	r5, #0
 8006f2c:	4606      	mov	r6, r0
 8006f2e:	db01      	blt.n	8006f34 <_malloc_r+0x1c>
 8006f30:	42a9      	cmp	r1, r5
 8006f32:	d904      	bls.n	8006f3e <_malloc_r+0x26>
 8006f34:	230c      	movs	r3, #12
 8006f36:	6033      	str	r3, [r6, #0]
 8006f38:	2000      	movs	r0, #0
 8006f3a:	e8bd 83f8 	ldmia.w	sp!, {r3, r4, r5, r6, r7, r8, r9, pc}
 8006f3e:	f8df 80d4 	ldr.w	r8, [pc, #212]	@ 8007014 <_malloc_r+0xfc>
 8006f42:	f000 f869 	bl	8007018 <__malloc_lock>
 8006f46:	f8d8 3000 	ldr.w	r3, [r8]
 8006f4a:	461c      	mov	r4, r3
 8006f4c:	bb44      	cbnz	r4, 8006fa0 <_malloc_r+0x88>
 8006f4e:	4629      	mov	r1, r5
 8006f50:	4630      	mov	r0, r6
 8006f52:	f7ff ffbf 	bl	8006ed4 <sbrk_aligned>
 8006f56:	1c43      	adds	r3, r0, #1
 8006f58:	4604      	mov	r4, r0
 8006f5a:	d158      	bne.n	800700e <_malloc_r+0xf6>
 8006f5c:	f8d8 4000 	ldr.w	r4, [r8]
 8006f60:	4627      	mov	r7, r4
 8006f62:	2f00      	cmp	r7, #0
 8006f64:	d143      	bne.n	8006fee <_malloc_r+0xd6>
 8006f66:	2c00      	cmp	r4, #0
 8006f68:	d04b      	beq.n	8007002 <_malloc_r+0xea>
 8006f6a:	6823      	ldr	r3, [r4, #0]
 8006f6c:	4639      	mov	r1, r7
 8006f6e:	4630      	mov	r0, r6
 8006f70:	eb04 0903 	add.w	r9, r4, r3
 8006f74:	f000 fc5c 	bl	8007830 <_sbrk_r>
 8006f78:	4581      	cmp	r9, r0
 8006f7a:	d142      	bne.n	8007002 <_malloc_r+0xea>
 8006f7c:	6821      	ldr	r1, [r4, #0]
 8006f7e:	1a6d      	subs	r5, r5, r1
 8006f80:	4629      	mov	r1, r5
 8006f82:	4630      	mov	r0, r6
 8006f84:	f7ff ffa6 	bl	8006ed4 <sbrk_aligned>
 8006f88:	3001      	adds	r0, #1
 8006f8a:	d03a      	beq.n	8007002 <_malloc_r+0xea>
 8006f8c:	6823      	ldr	r3, [r4, #0]
 8006f8e:	442b      	add	r3, r5
 8006f90:	6023      	str	r3, [r4, #0]
 8006f92:	f8d8 3000 	ldr.w	r3, [r8]
 8006f96:	685a      	ldr	r2, [r3, #4]
 8006f98:	bb62      	cbnz	r2, 8006ff4 <_malloc_r+0xdc>
 8006f9a:	f8c8 7000 	str.w	r7, [r8]
 8006f9e:	e00f      	b.n	8006fc0 <_malloc_r+0xa8>
 8006fa0:	6822      	ldr	r2, [r4, #0]
 8006fa2:	1b52      	subs	r2, r2, r5
 8006fa4:	d420      	bmi.n	8006fe8 <_malloc_r+0xd0>
 8006fa6:	2a0b      	cmp	r2, #11
 8006fa8:	d917      	bls.n	8006fda <_malloc_r+0xc2>
 8006faa:	1961      	adds	r1, r4, r5
 8006fac:	42a3      	cmp	r3, r4
 8006fae:	6025      	str	r5, [r4, #0]
 8006fb0:	bf18      	it	ne
 8006fb2:	6059      	strne	r1, [r3, #4]
 8006fb4:	6863      	ldr	r3, [r4, #4]
 8006fb6:	bf08      	it	eq
 8006fb8:	f8c8 1000 	streq.w	r1, [r8]
 8006fbc:	5162      	str	r2, [r4, r5]
 8006fbe:	604b      	str	r3, [r1, #4]
 8006fc0:	4630      	mov	r0, r6
 8006fc2:	f000 f82f 	bl	8007024 <__malloc_unlock>
 8006fc6:	f104 000b 	add.w	r0, r4, #11
 8006fca:	1d23      	adds	r3, r4, #4
 8006fcc:	f020 0007 	bic.w	r0, r0, #7
 8006fd0:	1ac2      	subs	r2, r0, r3
 8006fd2:	bf1c      	itt	ne
 8006fd4:	1a1b      	subne	r3, r3, r0
 8006fd6:	50a3      	strne	r3, [r4, r2]
 8006fd8:	e7af      	b.n	8006f3a <_malloc_r+0x22>
 8006fda:	6862      	ldr	r2, [r4, #4]
 8006fdc:	42a3      	cmp	r3, r4
 8006fde:	bf0c      	ite	eq
 8006fe0:	f8c8 2000 	streq.w	r2, [r8]
 8006fe4:	605a      	strne	r2, [r3, #4]
 8006fe6:	e7eb      	b.n	8006fc0 <_malloc_r+0xa8>
 8006fe8:	4623      	mov	r3, r4
 8006fea:	6864      	ldr	r4, [r4, #4]
 8006fec:	e7ae      	b.n	8006f4c <_malloc_r+0x34>
 8006fee:	463c      	mov	r4, r7
 8006ff0:	687f      	ldr	r7, [r7, #4]
 8006ff2:	e7b6      	b.n	8006f62 <_malloc_r+0x4a>
 8006ff4:	461a      	mov	r2, r3
 8006ff6:	685b      	ldr	r3, [r3, #4]
 8006ff8:	42a3      	cmp	r3, r4
 8006ffa:	d1fb      	bne.n	8006ff4 <_malloc_r+0xdc>
 8006ffc:	2300      	movs	r3, #0
 8006ffe:	6053      	str	r3, [r2, #4]
 8007000:	e7de      	b.n	8006fc0 <_malloc_r+0xa8>
 8007002:	230c      	movs	r3, #12
 8007004:	6033      	str	r3, [r6, #0]
 8007006:	4630      	mov	r0, r6
 8007008:	f000 f80c 	bl	8007024 <__malloc_unlock>
 800700c:	e794      	b.n	8006f38 <_malloc_r+0x20>
 800700e:	6005      	str	r5, [r0, #0]
 8007010:	e7d6      	b.n	8006fc0 <_malloc_r+0xa8>
 8007012:	bf00      	nop
 8007014:	2000062c 	.word	0x2000062c

08007018 <__malloc_lock>:
 8007018:	4801      	ldr	r0, [pc, #4]	@ (8007020 <__malloc_lock+0x8>)
 800701a:	f7ff bef8 	b.w	8006e0e <__retarget_lock_acquire_recursive>
 800701e:	bf00      	nop
 8007020:	20000624 	.word	0x20000624

08007024 <__malloc_unlock>:
 8007024:	4801      	ldr	r0, [pc, #4]	@ (800702c <__malloc_unlock+0x8>)
 8007026:	f7ff bef3 	b.w	8006e10 <__retarget_lock_release_recursive>
 800702a:	bf00      	nop
 800702c:	20000624 	.word	0x20000624

08007030 <__sfputc_r>:
 8007030:	6893      	ldr	r3, [r2, #8]
 8007032:	3b01      	subs	r3, #1
 8007034:	2b00      	cmp	r3, #0
 8007036:	b410      	push	{r4}
 8007038:	6093      	str	r3, [r2, #8]
 800703a:	da08      	bge.n	800704e <__sfputc_r+0x1e>
 800703c:	6994      	ldr	r4, [r2, #24]
 800703e:	42a3      	cmp	r3, r4
 8007040:	db01      	blt.n	8007046 <__sfputc_r+0x16>
 8007042:	290a      	cmp	r1, #10
 8007044:	d103      	bne.n	800704e <__sfputc_r+0x1e>
 8007046:	f85d 4b04 	ldr.w	r4, [sp], #4
 800704a:	f7ff bdc0 	b.w	8006bce <__swbuf_r>
 800704e:	6813      	ldr	r3, [r2, #0]
 8007050:	1c58      	adds	r0, r3, #1
 8007052:	6010      	str	r0, [r2, #0]
 8007054:	7019      	strb	r1, [r3, #0]
 8007056:	4608      	mov	r0, r1
 8007058:	f85d 4b04 	ldr.w	r4, [sp], #4
 800705c:	4770      	bx	lr

0800705e <__sfputs_r>:
 800705e:	b5f8      	push	{r3, r4, r5, r6, r7, lr}
 8007060:	4606      	mov	r6, r0
 8007062:	460f      	mov	r7, r1
 8007064:	4614      	mov	r4, r2
 8007066:	18d5      	adds	r5, r2, r3
 8007068:	42ac      	cmp	r4, r5
 800706a:	d101      	bne.n	8007070 <__sfputs_r+0x12>
 800706c:	2000      	movs	r0, #0
 800706e:	e007      	b.n	8007080 <__sfputs_r+0x22>
 8007070:	f814 1b01 	ldrb.w	r1, [r4], #1
 8007074:	463a      	mov	r2, r7
 8007076:	4630      	mov	r0, r6
 8007078:	f7ff ffda 	bl	8007030 <__sfputc_r>
 800707c:	1c43      	adds	r3, r0, #1
 800707e:	d1f3      	bne.n	8007068 <__sfputs_r+0xa>
 8007080:	bdf8      	pop	{r3, r4, r5, r6, r7, pc}
	...

08007084 <_vfiprintf_r>:
 8007084:	e92d 4ff0 	stmdb	sp!, {r4, r5, r6, r7, r8, r9, sl, fp, lr}
 8007088:	460d      	mov	r5, r1
 800708a:	b09d      	sub	sp, #116	@ 0x74
 800708c:	4614      	mov	r4, r2
 800708e:	4698      	mov	r8, r3
 8007090:	4606      	mov	r6, r0
 8007092:	b118      	cbz	r0, 800709c <_vfiprintf_r+0x18>
 8007094:	6a03      	ldr	r3, [r0, #32]
 8007096:	b90b      	cbnz	r3, 800709c <_vfiprintf_r+0x18>
 8007098:	f7ff fbf4 	bl	8006884 <__sinit>
 800709c:	6e6b      	ldr	r3, [r5, #100]	@ 0x64
 800709e:	07d9      	lsls	r1, r3, #31
 80070a0:	d405      	bmi.n	80070ae <_vfiprintf_r+0x2a>
 80070a2:	89ab      	ldrh	r3, [r5, #12]
 80070a4:	059a      	lsls	r2, r3, #22
 80070a6:	d402      	bmi.n	80070ae <_vfiprintf_r+0x2a>
 80070a8:	6da8      	ldr	r0, [r5, #88]	@ 0x58
 80070aa:	f7ff feb0 	bl	8006e0e <__retarget_lock_acquire_recursive>
 80070ae:	89ab      	ldrh	r3, [r5, #12]
 80070b0:	071b      	lsls	r3, r3, #28
 80070b2:	d501      	bpl.n	80070b8 <_vfiprintf_r+0x34>
 80070b4:	692b      	ldr	r3, [r5, #16]
 80070b6:	b99b      	cbnz	r3, 80070e0 <_vfiprintf_r+0x5c>
 80070b8:	4629      	mov	r1, r5
 80070ba:	4630      	mov	r0, r6
 80070bc:	f7ff fdc6 	bl	8006c4c <__swsetup_r>
 80070c0:	b170      	cbz	r0, 80070e0 <_vfiprintf_r+0x5c>
 80070c2:	6e6b      	ldr	r3, [r5, #100]	@ 0x64
 80070c4:	07dc      	lsls	r4, r3, #31
 80070c6:	d504      	bpl.n	80070d2 <_vfiprintf_r+0x4e>
 80070c8:	f04f 30ff 	mov.w	r0, #4294967295
 80070cc:	b01d      	add	sp, #116	@ 0x74
 80070ce:	e8bd 8ff0 	ldmia.w	sp!, {r4, r5, r6, r7, r8, r9, sl, fp, pc}
 80070d2:	89ab      	ldrh	r3, [r5, #12]
 80070d4:	0598      	lsls	r0, r3, #22
 80070d6:	d4f7      	bmi.n	80070c8 <_vfiprintf_r+0x44>
 80070d8:	6da8      	ldr	r0, [r5, #88]	@ 0x58
 80070da:	f7ff fe99 	bl	8006e10 <__retarget_lock_release_recursive>
 80070de:	e7f3      	b.n	80070c8 <_vfiprintf_r+0x44>
 80070e0:	2300      	movs	r3, #0
 80070e2:	9309      	str	r3, [sp, #36]	@ 0x24
 80070e4:	2320      	movs	r3, #32
 80070e6:	f88d 3029 	strb.w	r3, [sp, #41]	@ 0x29
 80070ea:	f8cd 800c 	str.w	r8, [sp, #12]
 80070ee:	2330      	movs	r3, #48	@ 0x30
 80070f0:	f8df 81ac 	ldr.w	r8, [pc, #428]	@ 80072a0 <_vfiprintf_r+0x21c>
 80070f4:	f88d 302a 	strb.w	r3, [sp, #42]	@ 0x2a
 80070f8:	f04f 0901 	mov.w	r9, #1
 80070fc:	4623      	mov	r3, r4
 80070fe:	469a      	mov	sl, r3
 8007100:	f813 2b01 	ldrb.w	r2, [r3], #1
 8007104:	b10a      	cbz	r2, 800710a <_vfiprintf_r+0x86>
 8007106:	2a25      	cmp	r2, #37	@ 0x25
 8007108:	d1f9      	bne.n	80070fe <_vfiprintf_r+0x7a>
 800710a:	ebba 0b04 	subs.w	fp, sl, r4
 800710e:	d00b      	beq.n	8007128 <_vfiprintf_r+0xa4>
 8007110:	465b      	mov	r3, fp
 8007112:	4622      	mov	r2, r4
 8007114:	4629      	mov	r1, r5
 8007116:	4630      	mov	r0, r6
 8007118:	f7ff ffa1 	bl	800705e <__sfputs_r>
 800711c:	3001      	adds	r0, #1
 800711e:	f000 80a7 	beq.w	8007270 <_vfiprintf_r+0x1ec>
 8007122:	9a09      	ldr	r2, [sp, #36]	@ 0x24
 8007124:	445a      	add	r2, fp
 8007126:	9209      	str	r2, [sp, #36]	@ 0x24
 8007128:	f89a 3000 	ldrb.w	r3, [sl]
 800712c:	2b00      	cmp	r3, #0
 800712e:	f000 809f 	beq.w	8007270 <_vfiprintf_r+0x1ec>
 8007132:	2300      	movs	r3, #0
 8007134:	f04f 32ff 	mov.w	r2, #4294967295
 8007138:	e9cd 2305 	strd	r2, r3, [sp, #20]
 800713c:	f10a 0a01 	add.w	sl, sl, #1
 8007140:	9304      	str	r3, [sp, #16]
 8007142:	9307      	str	r3, [sp, #28]
 8007144:	f88d 3053 	strb.w	r3, [sp, #83]	@ 0x53
 8007148:	931a      	str	r3, [sp, #104]	@ 0x68
 800714a:	4654      	mov	r4, sl
 800714c:	2205      	movs	r2, #5
 800714e:	f814 1b01 	ldrb.w	r1, [r4], #1
 8007152:	4853      	ldr	r0, [pc, #332]	@ (80072a0 <_vfiprintf_r+0x21c>)
 8007154:	f7f9 f86c 	bl	8000230 <memchr>
 8007158:	9a04      	ldr	r2, [sp, #16]
 800715a:	b9d8      	cbnz	r0, 8007194 <_vfiprintf_r+0x110>
 800715c:	06d1      	lsls	r1, r2, #27
 800715e:	bf44      	itt	mi
 8007160:	2320      	movmi	r3, #32
 8007162:	f88d 3053 	strbmi.w	r3, [sp, #83]	@ 0x53
 8007166:	0713      	lsls	r3, r2, #28
 8007168:	bf44      	itt	mi
 800716a:	232b      	movmi	r3, #43	@ 0x2b
 800716c:	f88d 3053 	strbmi.w	r3, [sp, #83]	@ 0x53
 8007170:	f89a 3000 	ldrb.w	r3, [sl]
 8007174:	2b2a      	cmp	r3, #42	@ 0x2a
 8007176:	d015      	beq.n	80071a4 <_vfiprintf_r+0x120>
 8007178:	9a07      	ldr	r2, [sp, #28]
 800717a:	4654      	mov	r4, sl
 800717c:	2000      	movs	r0, #0
 800717e:	f04f 0c0a 	mov.w	ip, #10
 8007182:	4621      	mov	r1, r4
 8007184:	f811 3b01 	ldrb.w	r3, [r1], #1
 8007188:	3b30      	subs	r3, #48	@ 0x30
 800718a:	2b09      	cmp	r3, #9
 800718c:	d94b      	bls.n	8007226 <_vfiprintf_r+0x1a2>
 800718e:	b1b0      	cbz	r0, 80071be <_vfiprintf_r+0x13a>
 8007190:	9207      	str	r2, [sp, #28]
 8007192:	e014      	b.n	80071be <_vfiprintf_r+0x13a>
 8007194:	eba0 0308 	sub.w	r3, r0, r8
 8007198:	fa09 f303 	lsl.w	r3, r9, r3
 800719c:	4313      	orrs	r3, r2
 800719e:	9304      	str	r3, [sp, #16]
 80071a0:	46a2      	mov	sl, r4
 80071a2:	e7d2      	b.n	800714a <_vfiprintf_r+0xc6>
 80071a4:	9b03      	ldr	r3, [sp, #12]
 80071a6:	1d19      	adds	r1, r3, #4
 80071a8:	681b      	ldr	r3, [r3, #0]
 80071aa:	9103      	str	r1, [sp, #12]
 80071ac:	2b00      	cmp	r3, #0
 80071ae:	bfbb      	ittet	lt
 80071b0:	425b      	neglt	r3, r3
 80071b2:	f042 0202 	orrlt.w	r2, r2, #2
 80071b6:	9307      	strge	r3, [sp, #28]
 80071b8:	9307      	strlt	r3, [sp, #28]
 80071ba:	bfb8      	it	lt
 80071bc:	9204      	strlt	r2, [sp, #16]
 80071be:	7823      	ldrb	r3, [r4, #0]
 80071c0:	2b2e      	cmp	r3, #46	@ 0x2e
 80071c2:	d10a      	bne.n	80071da <_vfiprintf_r+0x156>
 80071c4:	7863      	ldrb	r3, [r4, #1]
 80071c6:	2b2a      	cmp	r3, #42	@ 0x2a
 80071c8:	d132      	bne.n	8007230 <_vfiprintf_r+0x1ac>
 80071ca:	9b03      	ldr	r3, [sp, #12]
 80071cc:	1d1a      	adds	r2, r3, #4
 80071ce:	681b      	ldr	r3, [r3, #0]
 80071d0:	9203      	str	r2, [sp, #12]
 80071d2:	ea43 73e3 	orr.w	r3, r3, r3, asr #31
 80071d6:	3402      	adds	r4, #2
 80071d8:	9305      	str	r3, [sp, #20]
 80071da:	f8df a0d4 	ldr.w	sl, [pc, #212]	@ 80072b0 <_vfiprintf_r+0x22c>
 80071de:	7821      	ldrb	r1, [r4, #0]
 80071e0:	2203      	movs	r2, #3
 80071e2:	4650      	mov	r0, sl
 80071e4:	f7f9 f824 	bl	8000230 <memchr>
 80071e8:	b138      	cbz	r0, 80071fa <_vfiprintf_r+0x176>
 80071ea:	9b04      	ldr	r3, [sp, #16]
 80071ec:	eba0 000a 	sub.w	r0, r0, sl
 80071f0:	2240      	movs	r2, #64	@ 0x40
 80071f2:	4082      	lsls	r2, r0
 80071f4:	4313      	orrs	r3, r2
 80071f6:	3401      	adds	r4, #1
 80071f8:	9304      	str	r3, [sp, #16]
 80071fa:	f814 1b01 	ldrb.w	r1, [r4], #1
 80071fe:	4829      	ldr	r0, [pc, #164]	@ (80072a4 <_vfiprintf_r+0x220>)
 8007200:	f88d 1028 	strb.w	r1, [sp, #40]	@ 0x28
 8007204:	2206      	movs	r2, #6
 8007206:	f7f9 f813 	bl	8000230 <memchr>
 800720a:	2800      	cmp	r0, #0
 800720c:	d03f      	beq.n	800728e <_vfiprintf_r+0x20a>
 800720e:	4b26      	ldr	r3, [pc, #152]	@ (80072a8 <_vfiprintf_r+0x224>)
 8007210:	bb1b      	cbnz	r3, 800725a <_vfiprintf_r+0x1d6>
 8007212:	9b03      	ldr	r3, [sp, #12]
 8007214:	3307      	adds	r3, #7
 8007216:	f023 0307 	bic.w	r3, r3, #7
 800721a:	3308      	adds	r3, #8
 800721c:	9303      	str	r3, [sp, #12]
 800721e:	9b09      	ldr	r3, [sp, #36]	@ 0x24
 8007220:	443b      	add	r3, r7
 8007222:	9309      	str	r3, [sp, #36]	@ 0x24
 8007224:	e76a      	b.n	80070fc <_vfiprintf_r+0x78>
 8007226:	fb0c 3202 	mla	r2, ip, r2, r3
 800722a:	460c      	mov	r4, r1
 800722c:	2001      	movs	r0, #1
 800722e:	e7a8      	b.n	8007182 <_vfiprintf_r+0xfe>
 8007230:	2300      	movs	r3, #0
 8007232:	3401      	adds	r4, #1
 8007234:	9305      	str	r3, [sp, #20]
 8007236:	4619      	mov	r1, r3
 8007238:	f04f 0c0a 	mov.w	ip, #10
 800723c:	4620      	mov	r0, r4
 800723e:	f810 2b01 	ldrb.w	r2, [r0], #1
 8007242:	3a30      	subs	r2, #48	@ 0x30
 8007244:	2a09      	cmp	r2, #9
 8007246:	d903      	bls.n	8007250 <_vfiprintf_r+0x1cc>
 8007248:	2b00      	cmp	r3, #0
 800724a:	d0c6      	beq.n	80071da <_vfiprintf_r+0x156>
 800724c:	9105      	str	r1, [sp, #20]
 800724e:	e7c4      	b.n	80071da <_vfiprintf_r+0x156>
 8007250:	fb0c 2101 	mla	r1, ip, r1, r2
 8007254:	4604      	mov	r4, r0
 8007256:	2301      	movs	r3, #1
 8007258:	e7f0      	b.n	800723c <_vfiprintf_r+0x1b8>
 800725a:	ab03      	add	r3, sp, #12
 800725c:	9300      	str	r3, [sp, #0]
 800725e:	462a      	mov	r2, r5
 8007260:	4b12      	ldr	r3, [pc, #72]	@ (80072ac <_vfiprintf_r+0x228>)
 8007262:	a904      	add	r1, sp, #16
 8007264:	4630      	mov	r0, r6
 8007266:	f3af 8000 	nop.w
 800726a:	4607      	mov	r7, r0
 800726c:	1c78      	adds	r0, r7, #1
 800726e:	d1d6      	bne.n	800721e <_vfiprintf_r+0x19a>
 8007270:	6e6b      	ldr	r3, [r5, #100]	@ 0x64
 8007272:	07d9      	lsls	r1, r3, #31
 8007274:	d405      	bmi.n	8007282 <_vfiprintf_r+0x1fe>
 8007276:	89ab      	ldrh	r3, [r5, #12]
 8007278:	059a      	lsls	r2, r3, #22
 800727a:	d402      	bmi.n	8007282 <_vfiprintf_r+0x1fe>
 800727c:	6da8      	ldr	r0, [r5, #88]	@ 0x58
 800727e:	f7ff fdc7 	bl	8006e10 <__retarget_lock_release_recursive>
 8007282:	89ab      	ldrh	r3, [r5, #12]
 8007284:	065b      	lsls	r3, r3, #25
 8007286:	f53f af1f 	bmi.w	80070c8 <_vfiprintf_r+0x44>
 800728a:	9809      	ldr	r0, [sp, #36]	@ 0x24
 800728c:	e71e      	b.n	80070cc <_vfiprintf_r+0x48>
 800728e:	ab03      	add	r3, sp, #12
 8007290:	9300      	str	r3, [sp, #0]
 8007292:	462a      	mov	r2, r5
 8007294:	4b05      	ldr	r3, [pc, #20]	@ (80072ac <_vfiprintf_r+0x228>)
 8007296:	a904      	add	r1, sp, #16
 8007298:	4630      	mov	r0, r6
 800729a:	f000 f879 	bl	8007390 <_printf_i>
 800729e:	e7e4      	b.n	800726a <_vfiprintf_r+0x1e6>
 80072a0:	08007bb4 	.word	0x08007bb4
 80072a4:	08007bbe 	.word	0x08007bbe
 80072a8:	00000000 	.word	0x00000000
 80072ac:	0800705f 	.word	0x0800705f
 80072b0:	08007bba 	.word	0x08007bba

080072b4 <_printf_common>:
 80072b4:	e92d 47f0 	stmdb	sp!, {r4, r5, r6, r7, r8, r9, sl, lr}
 80072b8:	4616      	mov	r6, r2
 80072ba:	4698      	mov	r8, r3
 80072bc:	688a      	ldr	r2, [r1, #8]
 80072be:	690b      	ldr	r3, [r1, #16]
 80072c0:	f8dd 9020 	ldr.w	r9, [sp, #32]
 80072c4:	4293      	cmp	r3, r2
 80072c6:	bfb8      	it	lt
 80072c8:	4613      	movlt	r3, r2
 80072ca:	6033      	str	r3, [r6, #0]
 80072cc:	f891 2043 	ldrb.w	r2, [r1, #67]	@ 0x43
 80072d0:	4607      	mov	r7, r0
 80072d2:	460c      	mov	r4, r1
 80072d4:	b10a      	cbz	r2, 80072da <_printf_common+0x26>
 80072d6:	3301      	adds	r3, #1
 80072d8:	6033      	str	r3, [r6, #0]
 80072da:	6823      	ldr	r3, [r4, #0]
 80072dc:	0699      	lsls	r1, r3, #26
 80072de:	bf42      	ittt	mi
 80072e0:	6833      	ldrmi	r3, [r6, #0]
 80072e2:	3302      	addmi	r3, #2
 80072e4:	6033      	strmi	r3, [r6, #0]
 80072e6:	6825      	ldr	r5, [r4, #0]
 80072e8:	f015 0506 	ands.w	r5, r5, #6
 80072ec:	d106      	bne.n	80072fc <_printf_common+0x48>
 80072ee:	f104 0a19 	add.w	sl, r4, #25
 80072f2:	68e3      	ldr	r3, [r4, #12]
 80072f4:	6832      	ldr	r2, [r6, #0]
 80072f6:	1a9b      	subs	r3, r3, r2
 80072f8:	42ab      	cmp	r3, r5
 80072fa:	dc26      	bgt.n	800734a <_printf_common+0x96>
 80072fc:	f894 3043 	ldrb.w	r3, [r4, #67]	@ 0x43
 8007300:	6822      	ldr	r2, [r4, #0]
 8007302:	3b00      	subs	r3, #0
 8007304:	bf18      	it	ne
 8007306:	2301      	movne	r3, #1
 8007308:	0692      	lsls	r2, r2, #26
 800730a:	d42b      	bmi.n	8007364 <_printf_common+0xb0>
 800730c:	f104 0243 	add.w	r2, r4, #67	@ 0x43
 8007310:	4641      	mov	r1, r8
 8007312:	4638      	mov	r0, r7
 8007314:	47c8      	blx	r9
 8007316:	3001      	adds	r0, #1
 8007318:	d01e      	beq.n	8007358 <_printf_common+0xa4>
 800731a:	6823      	ldr	r3, [r4, #0]
 800731c:	6922      	ldr	r2, [r4, #16]
 800731e:	f003 0306 	and.w	r3, r3, #6
 8007322:	2b04      	cmp	r3, #4
 8007324:	bf02      	ittt	eq
 8007326:	68e5      	ldreq	r5, [r4, #12]
 8007328:	6833      	ldreq	r3, [r6, #0]
 800732a:	1aed      	subeq	r5, r5, r3
 800732c:	68a3      	ldr	r3, [r4, #8]
 800732e:	bf0c      	ite	eq
 8007330:	ea25 75e5 	biceq.w	r5, r5, r5, asr #31
 8007334:	2500      	movne	r5, #0
 8007336:	4293      	cmp	r3, r2
 8007338:	bfc4      	itt	gt
 800733a:	1a9b      	subgt	r3, r3, r2
 800733c:	18ed      	addgt	r5, r5, r3
 800733e:	2600      	movs	r6, #0
 8007340:	341a      	adds	r4, #26
 8007342:	42b5      	cmp	r5, r6
 8007344:	d11a      	bne.n	800737c <_printf_common+0xc8>
 8007346:	2000      	movs	r0, #0
 8007348:	e008      	b.n	800735c <_printf_common+0xa8>
 800734a:	2301      	movs	r3, #1
 800734c:	4652      	mov	r2, sl
 800734e:	4641      	mov	r1, r8
 8007350:	4638      	mov	r0, r7
 8007352:	47c8      	blx	r9
 8007354:	3001      	adds	r0, #1
 8007356:	d103      	bne.n	8007360 <_printf_common+0xac>
 8007358:	f04f 30ff 	mov.w	r0, #4294967295
 800735c:	e8bd 87f0 	ldmia.w	sp!, {r4, r5, r6, r7, r8, r9, sl, pc}
 8007360:	3501      	adds	r5, #1
 8007362:	e7c6      	b.n	80072f2 <_printf_common+0x3e>
 8007364:	18e1      	adds	r1, r4, r3
 8007366:	1c5a      	adds	r2, r3, #1
 8007368:	2030      	movs	r0, #48	@ 0x30
 800736a:	f881 0043 	strb.w	r0, [r1, #67]	@ 0x43
 800736e:	4422      	add	r2, r4
 8007370:	f894 1045 	ldrb.w	r1, [r4, #69]	@ 0x45
 8007374:	f882 1043 	strb.w	r1, [r2, #67]	@ 0x43
 8007378:	3302      	adds	r3, #2
 800737a:	e7c7      	b.n	800730c <_printf_common+0x58>
 800737c:	2301      	movs	r3, #1
 800737e:	4622      	mov	r2, r4
 8007380:	4641      	mov	r1, r8
 8007382:	4638      	mov	r0, r7
 8007384:	47c8      	blx	r9
 8007386:	3001      	adds	r0, #1
 8007388:	d0e6      	beq.n	8007358 <_printf_common+0xa4>
 800738a:	3601      	adds	r6, #1
 800738c:	e7d9      	b.n	8007342 <_printf_common+0x8e>
	...

08007390 <_printf_i>:
 8007390:	e92d 47ff 	stmdb	sp!, {r0, r1, r2, r3, r4, r5, r6, r7, r8, r9, sl, lr}
 8007394:	7e0f      	ldrb	r7, [r1, #24]
 8007396:	9e0c      	ldr	r6, [sp, #48]	@ 0x30
 8007398:	2f78      	cmp	r7, #120	@ 0x78
 800739a:	4691      	mov	r9, r2
 800739c:	4680      	mov	r8, r0
 800739e:	460c      	mov	r4, r1
 80073a0:	469a      	mov	sl, r3
 80073a2:	f101 0243 	add.w	r2, r1, #67	@ 0x43
 80073a6:	d807      	bhi.n	80073b8 <_printf_i+0x28>
 80073a8:	2f62      	cmp	r7, #98	@ 0x62
 80073aa:	d80a      	bhi.n	80073c2 <_printf_i+0x32>
 80073ac:	2f00      	cmp	r7, #0
 80073ae:	f000 80d2 	beq.w	8007556 <_printf_i+0x1c6>
 80073b2:	2f58      	cmp	r7, #88	@ 0x58
 80073b4:	f000 80b9 	beq.w	800752a <_printf_i+0x19a>
 80073b8:	f104 0642 	add.w	r6, r4, #66	@ 0x42
 80073bc:	f884 7042 	strb.w	r7, [r4, #66]	@ 0x42
 80073c0:	e03a      	b.n	8007438 <_printf_i+0xa8>
 80073c2:	f1a7 0363 	sub.w	r3, r7, #99	@ 0x63
 80073c6:	2b15      	cmp	r3, #21
 80073c8:	d8f6      	bhi.n	80073b8 <_printf_i+0x28>
 80073ca:	a101      	add	r1, pc, #4	@ (adr r1, 80073d0 <_printf_i+0x40>)
 80073cc:	f851 f023 	ldr.w	pc, [r1, r3, lsl #2]
 80073d0:	08007429 	.word	0x08007429
 80073d4:	0800743d 	.word	0x0800743d
 80073d8:	080073b9 	.word	0x080073b9
 80073dc:	080073b9 	.word	0x080073b9
 80073e0:	080073b9 	.word	0x080073b9
 80073e4:	080073b9 	.word	0x080073b9
 80073e8:	0800743d 	.word	0x0800743d
 80073ec:	080073b9 	.word	0x080073b9
 80073f0:	080073b9 	.word	0x080073b9
 80073f4:	080073b9 	.word	0x080073b9
 80073f8:	080073b9 	.word	0x080073b9
 80073fc:	0800753d 	.word	0x0800753d
 8007400:	08007467 	.word	0x08007467
 8007404:	080074f7 	.word	0x080074f7
 8007408:	080073b9 	.word	0x080073b9
 800740c:	080073b9 	.word	0x080073b9
 8007410:	0800755f 	.word	0x0800755f
 8007414:	080073b9 	.word	0x080073b9
 8007418:	08007467 	.word	0x08007467
 800741c:	080073b9 	.word	0x080073b9
 8007420:	080073b9 	.word	0x080073b9
 8007424:	080074ff 	.word	0x080074ff
 8007428:	6833      	ldr	r3, [r6, #0]
 800742a:	1d1a      	adds	r2, r3, #4
 800742c:	681b      	ldr	r3, [r3, #0]
 800742e:	6032      	str	r2, [r6, #0]
 8007430:	f104 0642 	add.w	r6, r4, #66	@ 0x42
 8007434:	f884 3042 	strb.w	r3, [r4, #66]	@ 0x42
 8007438:	2301      	movs	r3, #1
 800743a:	e09d      	b.n	8007578 <_printf_i+0x1e8>
 800743c:	6833      	ldr	r3, [r6, #0]
 800743e:	6820      	ldr	r0, [r4, #0]
 8007440:	1d19      	adds	r1, r3, #4
 8007442:	6031      	str	r1, [r6, #0]
 8007444:	0606      	lsls	r6, r0, #24
 8007446:	d501      	bpl.n	800744c <_printf_i+0xbc>
 8007448:	681d      	ldr	r5, [r3, #0]
 800744a:	e003      	b.n	8007454 <_printf_i+0xc4>
 800744c:	0645      	lsls	r5, r0, #25
 800744e:	d5fb      	bpl.n	8007448 <_printf_i+0xb8>
 8007450:	f9b3 5000 	ldrsh.w	r5, [r3]
 8007454:	2d00      	cmp	r5, #0
 8007456:	da03      	bge.n	8007460 <_printf_i+0xd0>
 8007458:	232d      	movs	r3, #45	@ 0x2d
 800745a:	426d      	negs	r5, r5
 800745c:	f884 3043 	strb.w	r3, [r4, #67]	@ 0x43
 8007460:	4859      	ldr	r0, [pc, #356]	@ (80075c8 <_printf_i+0x238>)
 8007462:	230a      	movs	r3, #10
 8007464:	e011      	b.n	800748a <_printf_i+0xfa>
 8007466:	6821      	ldr	r1, [r4, #0]
 8007468:	6833      	ldr	r3, [r6, #0]
 800746a:	0608      	lsls	r0, r1, #24
 800746c:	f853 5b04 	ldr.w	r5, [r3], #4
 8007470:	d402      	bmi.n	8007478 <_printf_i+0xe8>
 8007472:	0649      	lsls	r1, r1, #25
 8007474:	bf48      	it	mi
 8007476:	b2ad      	uxthmi	r5, r5
 8007478:	2f6f      	cmp	r7, #111	@ 0x6f
 800747a:	4853      	ldr	r0, [pc, #332]	@ (80075c8 <_printf_i+0x238>)
 800747c:	6033      	str	r3, [r6, #0]
 800747e:	bf14      	ite	ne
 8007480:	230a      	movne	r3, #10
 8007482:	2308      	moveq	r3, #8
 8007484:	2100      	movs	r1, #0
 8007486:	f884 1043 	strb.w	r1, [r4, #67]	@ 0x43
 800748a:	6866      	ldr	r6, [r4, #4]
 800748c:	60a6      	str	r6, [r4, #8]
 800748e:	2e00      	cmp	r6, #0
 8007490:	bfa2      	ittt	ge
 8007492:	6821      	ldrge	r1, [r4, #0]
 8007494:	f021 0104 	bicge.w	r1, r1, #4
 8007498:	6021      	strge	r1, [r4, #0]
 800749a:	b90d      	cbnz	r5, 80074a0 <_printf_i+0x110>
 800749c:	2e00      	cmp	r6, #0
 800749e:	d04b      	beq.n	8007538 <_printf_i+0x1a8>
 80074a0:	4616      	mov	r6, r2
 80074a2:	fbb5 f1f3 	udiv	r1, r5, r3
 80074a6:	fb03 5711 	mls	r7, r3, r1, r5
 80074aa:	5dc7      	ldrb	r7, [r0, r7]
 80074ac:	f806 7d01 	strb.w	r7, [r6, #-1]!
 80074b0:	462f      	mov	r7, r5
 80074b2:	42bb      	cmp	r3, r7
 80074b4:	460d      	mov	r5, r1
 80074b6:	d9f4      	bls.n	80074a2 <_printf_i+0x112>
 80074b8:	2b08      	cmp	r3, #8
 80074ba:	d10b      	bne.n	80074d4 <_printf_i+0x144>
 80074bc:	6823      	ldr	r3, [r4, #0]
 80074be:	07df      	lsls	r7, r3, #31
 80074c0:	d508      	bpl.n	80074d4 <_printf_i+0x144>
 80074c2:	6923      	ldr	r3, [r4, #16]
 80074c4:	6861      	ldr	r1, [r4, #4]
 80074c6:	4299      	cmp	r1, r3
 80074c8:	bfde      	ittt	le
 80074ca:	2330      	movle	r3, #48	@ 0x30
 80074cc:	f806 3c01 	strble.w	r3, [r6, #-1]
 80074d0:	f106 36ff 	addle.w	r6, r6, #4294967295
 80074d4:	1b92      	subs	r2, r2, r6
 80074d6:	6122      	str	r2, [r4, #16]
 80074d8:	f8cd a000 	str.w	sl, [sp]
 80074dc:	464b      	mov	r3, r9
 80074de:	aa03      	add	r2, sp, #12
 80074e0:	4621      	mov	r1, r4
 80074e2:	4640      	mov	r0, r8
 80074e4:	f7ff fee6 	bl	80072b4 <_printf_common>
 80074e8:	3001      	adds	r0, #1
 80074ea:	d14a      	bne.n	8007582 <_printf_i+0x1f2>
 80074ec:	f04f 30ff 	mov.w	r0, #4294967295
 80074f0:	b004      	add	sp, #16
 80074f2:	e8bd 87f0 	ldmia.w	sp!, {r4, r5, r6, r7, r8, r9, sl, pc}
 80074f6:	6823      	ldr	r3, [r4, #0]
 80074f8:	f043 0320 	orr.w	r3, r3, #32
 80074fc:	6023      	str	r3, [r4, #0]
 80074fe:	4833      	ldr	r0, [pc, #204]	@ (80075cc <_printf_i+0x23c>)
 8007500:	2778      	movs	r7, #120	@ 0x78
 8007502:	f884 7045 	strb.w	r7, [r4, #69]	@ 0x45
 8007506:	6823      	ldr	r3, [r4, #0]
 8007508:	6831      	ldr	r1, [r6, #0]
 800750a:	061f      	lsls	r7, r3, #24
 800750c:	f851 5b04 	ldr.w	r5, [r1], #4
 8007510:	d402      	bmi.n	8007518 <_printf_i+0x188>
 8007512:	065f      	lsls	r7, r3, #25
 8007514:	bf48      	it	mi
 8007516:	b2ad      	uxthmi	r5, r5
 8007518:	6031      	str	r1, [r6, #0]
 800751a:	07d9      	lsls	r1, r3, #31
 800751c:	bf44      	itt	mi
 800751e:	f043 0320 	orrmi.w	r3, r3, #32
 8007522:	6023      	strmi	r3, [r4, #0]
 8007524:	b11d      	cbz	r5, 800752e <_printf_i+0x19e>
 8007526:	2310      	movs	r3, #16
 8007528:	e7ac      	b.n	8007484 <_printf_i+0xf4>
 800752a:	4827      	ldr	r0, [pc, #156]	@ (80075c8 <_printf_i+0x238>)
 800752c:	e7e9      	b.n	8007502 <_printf_i+0x172>
 800752e:	6823      	ldr	r3, [r4, #0]
 8007530:	f023 0320 	bic.w	r3, r3, #32
 8007534:	6023      	str	r3, [r4, #0]
 8007536:	e7f6      	b.n	8007526 <_printf_i+0x196>
 8007538:	4616      	mov	r6, r2
 800753a:	e7bd      	b.n	80074b8 <_printf_i+0x128>
 800753c:	6833      	ldr	r3, [r6, #0]
 800753e:	6825      	ldr	r5, [r4, #0]
 8007540:	6961      	ldr	r1, [r4, #20]
 8007542:	1d18      	adds	r0, r3, #4
 8007544:	6030      	str	r0, [r6, #0]
 8007546:	062e      	lsls	r6, r5, #24
 8007548:	681b      	ldr	r3, [r3, #0]
 800754a:	d501      	bpl.n	8007550 <_printf_i+0x1c0>
 800754c:	6019      	str	r1, [r3, #0]
 800754e:	e002      	b.n	8007556 <_printf_i+0x1c6>
 8007550:	0668      	lsls	r0, r5, #25
 8007552:	d5fb      	bpl.n	800754c <_printf_i+0x1bc>
 8007554:	8019      	strh	r1, [r3, #0]
 8007556:	2300      	movs	r3, #0
 8007558:	6123      	str	r3, [r4, #16]
 800755a:	4616      	mov	r6, r2
 800755c:	e7bc      	b.n	80074d8 <_printf_i+0x148>
 800755e:	6833      	ldr	r3, [r6, #0]
 8007560:	1d1a      	adds	r2, r3, #4
 8007562:	6032      	str	r2, [r6, #0]
 8007564:	681e      	ldr	r6, [r3, #0]
 8007566:	6862      	ldr	r2, [r4, #4]
 8007568:	2100      	movs	r1, #0
 800756a:	4630      	mov	r0, r6
 800756c:	f7f8 fe60 	bl	8000230 <memchr>
 8007570:	b108      	cbz	r0, 8007576 <_printf_i+0x1e6>
 8007572:	1b80      	subs	r0, r0, r6
 8007574:	6060      	str	r0, [r4, #4]
 8007576:	6863      	ldr	r3, [r4, #4]
 8007578:	6123      	str	r3, [r4, #16]
 800757a:	2300      	movs	r3, #0
 800757c:	f884 3043 	strb.w	r3, [r4, #67]	@ 0x43
 8007580:	e7aa      	b.n	80074d8 <_printf_i+0x148>
 8007582:	6923      	ldr	r3, [r4, #16]
 8007584:	4632      	mov	r2, r6
 8007586:	4649      	mov	r1, r9
 8007588:	4640      	mov	r0, r8
 800758a:	47d0      	blx	sl
 800758c:	3001      	adds	r0, #1
 800758e:	d0ad      	beq.n	80074ec <_printf_i+0x15c>
 8007590:	6823      	ldr	r3, [r4, #0]
 8007592:	079b      	lsls	r3, r3, #30
 8007594:	d413      	bmi.n	80075be <_printf_i+0x22e>
 8007596:	68e0      	ldr	r0, [r4, #12]
 8007598:	9b03      	ldr	r3, [sp, #12]
 800759a:	4298      	cmp	r0, r3
 800759c:	bfb8      	it	lt
 800759e:	4618      	movlt	r0, r3
 80075a0:	e7a6      	b.n	80074f0 <_printf_i+0x160>
 80075a2:	2301      	movs	r3, #1
 80075a4:	4632      	mov	r2, r6
 80075a6:	4649      	mov	r1, r9
 80075a8:	4640      	mov	r0, r8
 80075aa:	47d0      	blx	sl
 80075ac:	3001      	adds	r0, #1
 80075ae:	d09d      	beq.n	80074ec <_printf_i+0x15c>
 80075b0:	3501      	adds	r5, #1
 80075b2:	68e3      	ldr	r3, [r4, #12]
 80075b4:	9903      	ldr	r1, [sp, #12]
 80075b6:	1a5b      	subs	r3, r3, r1
 80075b8:	42ab      	cmp	r3, r5
 80075ba:	dcf2      	bgt.n	80075a2 <_printf_i+0x212>
 80075bc:	e7eb      	b.n	8007596 <_printf_i+0x206>
 80075be:	2500      	movs	r5, #0
 80075c0:	f104 0619 	add.w	r6, r4, #25
 80075c4:	e7f5      	b.n	80075b2 <_printf_i+0x222>
 80075c6:	bf00      	nop
 80075c8:	08007bc5 	.word	0x08007bc5
 80075cc:	08007bd6 	.word	0x08007bd6

080075d0 <__sflush_r>:
 80075d0:	f9b1 200c 	ldrsh.w	r2, [r1, #12]
 80075d4:	e92d 41f0 	stmdb	sp!, {r4, r5, r6, r7, r8, lr}
 80075d8:	0716      	lsls	r6, r2, #28
 80075da:	4605      	mov	r5, r0
 80075dc:	460c      	mov	r4, r1
 80075de:	d454      	bmi.n	800768a <__sflush_r+0xba>
 80075e0:	684b      	ldr	r3, [r1, #4]
 80075e2:	2b00      	cmp	r3, #0
 80075e4:	dc02      	bgt.n	80075ec <__sflush_r+0x1c>
 80075e6:	6c0b      	ldr	r3, [r1, #64]	@ 0x40
 80075e8:	2b00      	cmp	r3, #0
 80075ea:	dd48      	ble.n	800767e <__sflush_r+0xae>
 80075ec:	6ae6      	ldr	r6, [r4, #44]	@ 0x2c
 80075ee:	2e00      	cmp	r6, #0
 80075f0:	d045      	beq.n	800767e <__sflush_r+0xae>
 80075f2:	2300      	movs	r3, #0
 80075f4:	f412 5280 	ands.w	r2, r2, #4096	@ 0x1000
 80075f8:	682f      	ldr	r7, [r5, #0]
 80075fa:	6a21      	ldr	r1, [r4, #32]
 80075fc:	602b      	str	r3, [r5, #0]
 80075fe:	d030      	beq.n	8007662 <__sflush_r+0x92>
 8007600:	6d62      	ldr	r2, [r4, #84]	@ 0x54
 8007602:	89a3      	ldrh	r3, [r4, #12]
 8007604:	0759      	lsls	r1, r3, #29
 8007606:	d505      	bpl.n	8007614 <__sflush_r+0x44>
 8007608:	6863      	ldr	r3, [r4, #4]
 800760a:	1ad2      	subs	r2, r2, r3
 800760c:	6b63      	ldr	r3, [r4, #52]	@ 0x34
 800760e:	b10b      	cbz	r3, 8007614 <__sflush_r+0x44>
 8007610:	6c23      	ldr	r3, [r4, #64]	@ 0x40
 8007612:	1ad2      	subs	r2, r2, r3
 8007614:	2300      	movs	r3, #0
 8007616:	6ae6      	ldr	r6, [r4, #44]	@ 0x2c
 8007618:	6a21      	ldr	r1, [r4, #32]
 800761a:	4628      	mov	r0, r5
 800761c:	47b0      	blx	r6
 800761e:	1c43      	adds	r3, r0, #1
 8007620:	89a3      	ldrh	r3, [r4, #12]
 8007622:	d106      	bne.n	8007632 <__sflush_r+0x62>
 8007624:	6829      	ldr	r1, [r5, #0]
 8007626:	291d      	cmp	r1, #29
 8007628:	d82b      	bhi.n	8007682 <__sflush_r+0xb2>
 800762a:	4a2a      	ldr	r2, [pc, #168]	@ (80076d4 <__sflush_r+0x104>)
 800762c:	410a      	asrs	r2, r1
 800762e:	07d6      	lsls	r6, r2, #31
 8007630:	d427      	bmi.n	8007682 <__sflush_r+0xb2>
 8007632:	2200      	movs	r2, #0
 8007634:	6062      	str	r2, [r4, #4]
 8007636:	04d9      	lsls	r1, r3, #19
 8007638:	6922      	ldr	r2, [r4, #16]
 800763a:	6022      	str	r2, [r4, #0]
 800763c:	d504      	bpl.n	8007648 <__sflush_r+0x78>
 800763e:	1c42      	adds	r2, r0, #1
 8007640:	d101      	bne.n	8007646 <__sflush_r+0x76>
 8007642:	682b      	ldr	r3, [r5, #0]
 8007644:	b903      	cbnz	r3, 8007648 <__sflush_r+0x78>
 8007646:	6560      	str	r0, [r4, #84]	@ 0x54
 8007648:	6b61      	ldr	r1, [r4, #52]	@ 0x34
 800764a:	602f      	str	r7, [r5, #0]
 800764c:	b1b9      	cbz	r1, 800767e <__sflush_r+0xae>
 800764e:	f104 0344 	add.w	r3, r4, #68	@ 0x44
 8007652:	4299      	cmp	r1, r3
 8007654:	d002      	beq.n	800765c <__sflush_r+0x8c>
 8007656:	4628      	mov	r0, r5
 8007658:	f7ff fbea 	bl	8006e30 <_free_r>
 800765c:	2300      	movs	r3, #0
 800765e:	6363      	str	r3, [r4, #52]	@ 0x34
 8007660:	e00d      	b.n	800767e <__sflush_r+0xae>
 8007662:	2301      	movs	r3, #1
 8007664:	4628      	mov	r0, r5
 8007666:	47b0      	blx	r6
 8007668:	4602      	mov	r2, r0
 800766a:	1c50      	adds	r0, r2, #1
 800766c:	d1c9      	bne.n	8007602 <__sflush_r+0x32>
 800766e:	682b      	ldr	r3, [r5, #0]
 8007670:	2b00      	cmp	r3, #0
 8007672:	d0c6      	beq.n	8007602 <__sflush_r+0x32>
 8007674:	2b1d      	cmp	r3, #29
 8007676:	d001      	beq.n	800767c <__sflush_r+0xac>
 8007678:	2b16      	cmp	r3, #22
 800767a:	d11e      	bne.n	80076ba <__sflush_r+0xea>
 800767c:	602f      	str	r7, [r5, #0]
 800767e:	2000      	movs	r0, #0
 8007680:	e022      	b.n	80076c8 <__sflush_r+0xf8>
 8007682:	f043 0340 	orr.w	r3, r3, #64	@ 0x40
 8007686:	b21b      	sxth	r3, r3
 8007688:	e01b      	b.n	80076c2 <__sflush_r+0xf2>
 800768a:	690f      	ldr	r7, [r1, #16]
 800768c:	2f00      	cmp	r7, #0
 800768e:	d0f6      	beq.n	800767e <__sflush_r+0xae>
 8007690:	0793      	lsls	r3, r2, #30
 8007692:	680e      	ldr	r6, [r1, #0]
 8007694:	bf08      	it	eq
 8007696:	694b      	ldreq	r3, [r1, #20]
 8007698:	600f      	str	r7, [r1, #0]
 800769a:	bf18      	it	ne
 800769c:	2300      	movne	r3, #0
 800769e:	eba6 0807 	sub.w	r8, r6, r7
 80076a2:	608b      	str	r3, [r1, #8]
 80076a4:	f1b8 0f00 	cmp.w	r8, #0
 80076a8:	dde9      	ble.n	800767e <__sflush_r+0xae>
 80076aa:	6a21      	ldr	r1, [r4, #32]
 80076ac:	6aa6      	ldr	r6, [r4, #40]	@ 0x28
 80076ae:	4643      	mov	r3, r8
 80076b0:	463a      	mov	r2, r7
 80076b2:	4628      	mov	r0, r5
 80076b4:	47b0      	blx	r6
 80076b6:	2800      	cmp	r0, #0
 80076b8:	dc08      	bgt.n	80076cc <__sflush_r+0xfc>
 80076ba:	f9b4 300c 	ldrsh.w	r3, [r4, #12]
 80076be:	f043 0340 	orr.w	r3, r3, #64	@ 0x40
 80076c2:	81a3      	strh	r3, [r4, #12]
 80076c4:	f04f 30ff 	mov.w	r0, #4294967295
 80076c8:	e8bd 81f0 	ldmia.w	sp!, {r4, r5, r6, r7, r8, pc}
 80076cc:	4407      	add	r7, r0
 80076ce:	eba8 0800 	sub.w	r8, r8, r0
 80076d2:	e7e7      	b.n	80076a4 <__sflush_r+0xd4>
 80076d4:	dfbffffe 	.word	0xdfbffffe

080076d8 <_fflush_r>:
 80076d8:	b538      	push	{r3, r4, r5, lr}
 80076da:	690b      	ldr	r3, [r1, #16]
 80076dc:	4605      	mov	r5, r0
 80076de:	460c      	mov	r4, r1
 80076e0:	b913      	cbnz	r3, 80076e8 <_fflush_r+0x10>
 80076e2:	2500      	movs	r5, #0
 80076e4:	4628      	mov	r0, r5
 80076e6:	bd38      	pop	{r3, r4, r5, pc}
 80076e8:	b118      	cbz	r0, 80076f2 <_fflush_r+0x1a>
 80076ea:	6a03      	ldr	r3, [r0, #32]
 80076ec:	b90b      	cbnz	r3, 80076f2 <_fflush_r+0x1a>
 80076ee:	f7ff f8c9 	bl	8006884 <__sinit>
 80076f2:	f9b4 300c 	ldrsh.w	r3, [r4, #12]
 80076f6:	2b00      	cmp	r3, #0
 80076f8:	d0f3      	beq.n	80076e2 <_fflush_r+0xa>
 80076fa:	6e62      	ldr	r2, [r4, #100]	@ 0x64
 80076fc:	07d0      	lsls	r0, r2, #31
 80076fe:	d404      	bmi.n	800770a <_fflush_r+0x32>
 8007700:	0599      	lsls	r1, r3, #22
 8007702:	d402      	bmi.n	800770a <_fflush_r+0x32>
 8007704:	6da0      	ldr	r0, [r4, #88]	@ 0x58
 8007706:	f7ff fb82 	bl	8006e0e <__retarget_lock_acquire_recursive>
 800770a:	4628      	mov	r0, r5
 800770c:	4621      	mov	r1, r4
 800770e:	f7ff ff5f 	bl	80075d0 <__sflush_r>
 8007712:	6e63      	ldr	r3, [r4, #100]	@ 0x64
 8007714:	07da      	lsls	r2, r3, #31
 8007716:	4605      	mov	r5, r0
 8007718:	d4e4      	bmi.n	80076e4 <_fflush_r+0xc>
 800771a:	89a3      	ldrh	r3, [r4, #12]
 800771c:	059b      	lsls	r3, r3, #22
 800771e:	d4e1      	bmi.n	80076e4 <_fflush_r+0xc>
 8007720:	6da0      	ldr	r0, [r4, #88]	@ 0x58
 8007722:	f7ff fb75 	bl	8006e10 <__retarget_lock_release_recursive>
 8007726:	e7dd      	b.n	80076e4 <_fflush_r+0xc>

08007728 <__swhatbuf_r>:
 8007728:	b570      	push	{r4, r5, r6, lr}
 800772a:	460c      	mov	r4, r1
 800772c:	f9b1 100e 	ldrsh.w	r1, [r1, #14]
 8007730:	2900      	cmp	r1, #0
 8007732:	b096      	sub	sp, #88	@ 0x58
 8007734:	4615      	mov	r5, r2
 8007736:	461e      	mov	r6, r3
 8007738:	da0d      	bge.n	8007756 <__swhatbuf_r+0x2e>
 800773a:	89a3      	ldrh	r3, [r4, #12]
 800773c:	f013 0f80 	tst.w	r3, #128	@ 0x80
 8007740:	f04f 0100 	mov.w	r1, #0
 8007744:	bf14      	ite	ne
 8007746:	2340      	movne	r3, #64	@ 0x40
 8007748:	f44f 6380 	moveq.w	r3, #1024	@ 0x400
 800774c:	2000      	movs	r0, #0
 800774e:	6031      	str	r1, [r6, #0]
 8007750:	602b      	str	r3, [r5, #0]
 8007752:	b016      	add	sp, #88	@ 0x58
 8007754:	bd70      	pop	{r4, r5, r6, pc}
 8007756:	466a      	mov	r2, sp
 8007758:	f000 f848 	bl	80077ec <_fstat_r>
 800775c:	2800      	cmp	r0, #0
 800775e:	dbec      	blt.n	800773a <__swhatbuf_r+0x12>
 8007760:	9901      	ldr	r1, [sp, #4]
 8007762:	f401 4170 	and.w	r1, r1, #61440	@ 0xf000
 8007766:	f5a1 5300 	sub.w	r3, r1, #8192	@ 0x2000
 800776a:	4259      	negs	r1, r3
 800776c:	4159      	adcs	r1, r3
 800776e:	f44f 6380 	mov.w	r3, #1024	@ 0x400
 8007772:	e7eb      	b.n	800774c <__swhatbuf_r+0x24>

08007774 <__smakebuf_r>:
 8007774:	898b      	ldrh	r3, [r1, #12]
 8007776:	b5f7      	push	{r0, r1, r2, r4, r5, r6, r7, lr}
 8007778:	079d      	lsls	r5, r3, #30
 800777a:	4606      	mov	r6, r0
 800777c:	460c      	mov	r4, r1
 800777e:	d507      	bpl.n	8007790 <__smakebuf_r+0x1c>
 8007780:	f104 0347 	add.w	r3, r4, #71	@ 0x47
 8007784:	6023      	str	r3, [r4, #0]
 8007786:	6123      	str	r3, [r4, #16]
 8007788:	2301      	movs	r3, #1
 800778a:	6163      	str	r3, [r4, #20]
 800778c:	b003      	add	sp, #12
 800778e:	bdf0      	pop	{r4, r5, r6, r7, pc}
 8007790:	ab01      	add	r3, sp, #4
 8007792:	466a      	mov	r2, sp
 8007794:	f7ff ffc8 	bl	8007728 <__swhatbuf_r>
 8007798:	9f00      	ldr	r7, [sp, #0]
 800779a:	4605      	mov	r5, r0
 800779c:	4639      	mov	r1, r7
 800779e:	4630      	mov	r0, r6
 80077a0:	f7ff fbba 	bl	8006f18 <_malloc_r>
 80077a4:	b948      	cbnz	r0, 80077ba <__smakebuf_r+0x46>
 80077a6:	f9b4 300c 	ldrsh.w	r3, [r4, #12]
 80077aa:	059a      	lsls	r2, r3, #22
 80077ac:	d4ee      	bmi.n	800778c <__smakebuf_r+0x18>
 80077ae:	f023 0303 	bic.w	r3, r3, #3
 80077b2:	f043 0302 	orr.w	r3, r3, #2
 80077b6:	81a3      	strh	r3, [r4, #12]
 80077b8:	e7e2      	b.n	8007780 <__smakebuf_r+0xc>
 80077ba:	89a3      	ldrh	r3, [r4, #12]
 80077bc:	6020      	str	r0, [r4, #0]
 80077be:	f043 0380 	orr.w	r3, r3, #128	@ 0x80
 80077c2:	81a3      	strh	r3, [r4, #12]
 80077c4:	9b01      	ldr	r3, [sp, #4]
 80077c6:	e9c4 0704 	strd	r0, r7, [r4, #16]
 80077ca:	b15b      	cbz	r3, 80077e4 <__smakebuf_r+0x70>
 80077cc:	f9b4 100e 	ldrsh.w	r1, [r4, #14]
 80077d0:	4630      	mov	r0, r6
 80077d2:	f000 f81d 	bl	8007810 <_isatty_r>
 80077d6:	b128      	cbz	r0, 80077e4 <__smakebuf_r+0x70>
 80077d8:	89a3      	ldrh	r3, [r4, #12]
 80077da:	f023 0303 	bic.w	r3, r3, #3
 80077de:	f043 0301 	orr.w	r3, r3, #1
 80077e2:	81a3      	strh	r3, [r4, #12]
 80077e4:	89a3      	ldrh	r3, [r4, #12]
 80077e6:	431d      	orrs	r5, r3
 80077e8:	81a5      	strh	r5, [r4, #12]
 80077ea:	e7cf      	b.n	800778c <__smakebuf_r+0x18>

080077ec <_fstat_r>:
 80077ec:	b538      	push	{r3, r4, r5, lr}
 80077ee:	4d07      	ldr	r5, [pc, #28]	@ (800780c <_fstat_r+0x20>)
 80077f0:	2300      	movs	r3, #0
 80077f2:	4604      	mov	r4, r0
 80077f4:	4608      	mov	r0, r1
 80077f6:	4611      	mov	r1, r2
 80077f8:	602b      	str	r3, [r5, #0]
 80077fa:	f7f9 fad2 	bl	8000da2 <_fstat>
 80077fe:	1c43      	adds	r3, r0, #1
 8007800:	d102      	bne.n	8007808 <_fstat_r+0x1c>
 8007802:	682b      	ldr	r3, [r5, #0]
 8007804:	b103      	cbz	r3, 8007808 <_fstat_r+0x1c>
 8007806:	6023      	str	r3, [r4, #0]
 8007808:	bd38      	pop	{r3, r4, r5, pc}
 800780a:	bf00      	nop
 800780c:	20000620 	.word	0x20000620

08007810 <_isatty_r>:
 8007810:	b538      	push	{r3, r4, r5, lr}
 8007812:	4d06      	ldr	r5, [pc, #24]	@ (800782c <_isatty_r+0x1c>)
 8007814:	2300      	movs	r3, #0
 8007816:	4604      	mov	r4, r0
 8007818:	4608      	mov	r0, r1
 800781a:	602b      	str	r3, [r5, #0]
 800781c:	f7f9 fad1 	bl	8000dc2 <_isatty>
 8007820:	1c43      	adds	r3, r0, #1
 8007822:	d102      	bne.n	800782a <_isatty_r+0x1a>
 8007824:	682b      	ldr	r3, [r5, #0]
 8007826:	b103      	cbz	r3, 800782a <_isatty_r+0x1a>
 8007828:	6023      	str	r3, [r4, #0]
 800782a:	bd38      	pop	{r3, r4, r5, pc}
 800782c:	20000620 	.word	0x20000620

08007830 <_sbrk_r>:
 8007830:	b538      	push	{r3, r4, r5, lr}
 8007832:	4d06      	ldr	r5, [pc, #24]	@ (800784c <_sbrk_r+0x1c>)
 8007834:	2300      	movs	r3, #0
 8007836:	4604      	mov	r4, r0
 8007838:	4608      	mov	r0, r1
 800783a:	602b      	str	r3, [r5, #0]
 800783c:	f7f9 fada 	bl	8000df4 <_sbrk>
 8007840:	1c43      	adds	r3, r0, #1
 8007842:	d102      	bne.n	800784a <_sbrk_r+0x1a>
 8007844:	682b      	ldr	r3, [r5, #0]
 8007846:	b103      	cbz	r3, 800784a <_sbrk_r+0x1a>
 8007848:	6023      	str	r3, [r4, #0]
 800784a:	bd38      	pop	{r3, r4, r5, pc}
 800784c:	20000620 	.word	0x20000620

08007850 <_init>:
 8007850:	b5f8      	push	{r3, r4, r5, r6, r7, lr}
 8007852:	bf00      	nop
 8007854:	bcf8      	pop	{r3, r4, r5, r6, r7}
 8007856:	bc08      	pop	{r3}
 8007858:	469e      	mov	lr, r3
 800785a:	4770      	bx	lr

0800785c <_fini>:
 800785c:	b5f8      	push	{r3, r4, r5, r6, r7, lr}
 800785e:	bf00      	nop
 8007860:	bcf8      	pop	{r3, r4, r5, r6, r7}
 8007862:	bc08      	pop	{r3}
 8007864:	469e      	mov	lr, r3
 8007866:	4770      	bx	lr
